
LevelMeter_sampl_MCU.elf:     file format elf32-littlearm

Sections:
Idx Name          Size      VMA       LMA       File off  Algn
  0 .isr_vector   00000238  08000000  08000000  00001000  2**0
                  CONTENTS, ALLOC, LOAD, READONLY, DATA
  1 .text         00008ef0  08000238  08000238  00001238  2**2
                  CONTENTS, ALLOC, LOAD, READONLY, CODE
  2 .rodata       000001dc  08009128  08009128  0000a128  2**2
                  CONTENTS, ALLOC, LOAD, READONLY, DATA
  3 .ARM          00000008  08009304  08009304  0000a304  2**2
                  CONTENTS, ALLOC, LOAD, READONLY, DATA
  4 .init_array   00000004  0800930c  0800930c  0000a30c  2**2
                  CONTENTS, ALLOC, LOAD, READONLY, DATA
  5 .fini_array   00000004  08009310  08009310  0000a310  2**2
                  CONTENTS, ALLOC, LOAD, READONLY, DATA
  6 .data         0000005b  20000000  08009314  0000b000  2**2
                  CONTENTS, ALLOC, LOAD, DATA
  7 .bss          00003fe8  2000005c  0800936f  0000b05c  2**2
                  ALLOC
  8 ._user_heap_stack 00000604  20004044  0800936f  0000c044  2**0
                  ALLOC
  9 .ARM.attributes 00000036  00000000  00000000  0000b05b  2**0
                  CONTENTS, READONLY
 10 .comment      00000043  00000000  00000000  0000b091  2**0
                  CONTENTS, READONLY
 11 .debug_frame  0000004c  00000000  00000000  0000b0d4  2**2
                  CONTENTS, READONLY, DEBUGGING, OCTETS

Disassembly of section .text:

08000238 <__do_global_dtors_aux>:
 8000238:	b510      	push	{r4, lr}
 800023a:	4c05      	ldr	r4, [pc, #20]	@ (8000250 <__do_global_dtors_aux+0x18>)
 800023c:	7823      	ldrb	r3, [r4, #0]
 800023e:	b933      	cbnz	r3, 800024e <__do_global_dtors_aux+0x16>
 8000240:	4b04      	ldr	r3, [pc, #16]	@ (8000254 <__do_global_dtors_aux+0x1c>)
 8000242:	b113      	cbz	r3, 800024a <__do_global_dtors_aux+0x12>
 8000244:	4804      	ldr	r0, [pc, #16]	@ (8000258 <__do_global_dtors_aux+0x20>)
 8000246:	f3af 8000 	nop.w
 800024a:	2301      	movs	r3, #1
 800024c:	7023      	strb	r3, [r4, #0]
 800024e:	bd10      	pop	{r4, pc}
 8000250:	2000005c 	.word	0x2000005c
 8000254:	00000000 	.word	0x00000000
 8000258:	08009110 	.word	0x08009110

0800025c <frame_dummy>:
 800025c:	b508      	push	{r3, lr}
 800025e:	4b03      	ldr	r3, [pc, #12]	@ (800026c <frame_dummy+0x10>)
 8000260:	b11b      	cbz	r3, 800026a <frame_dummy+0xe>
 8000262:	4903      	ldr	r1, [pc, #12]	@ (8000270 <frame_dummy+0x14>)
 8000264:	4803      	ldr	r0, [pc, #12]	@ (8000274 <frame_dummy+0x18>)
 8000266:	f3af 8000 	nop.w
 800026a:	bd08      	pop	{r3, pc}
 800026c:	00000000 	.word	0x00000000
 8000270:	20000060 	.word	0x20000060
 8000274:	08009110 	.word	0x08009110

08000278 <_tx_initialize_low_level>:
 8000278:	b672      	cpsid	i
 800027a:	f04f 20e0 	mov.w	r0, #3758153728	@ 0xe000e000
 800027e:	4917      	ldr	r1, [pc, #92]	@ (80002dc <__tx_DBGHandler+0x4>)
 8000280:	f8c0 1d08 	str.w	r1, [r0, #3336]	@ 0xd08
 8000284:	4816      	ldr	r0, [pc, #88]	@ (80002e0 <__tx_DBGHandler+0x8>)
 8000286:	6801      	ldr	r1, [r0, #0]
 8000288:	f041 0101 	orr.w	r1, r1, #1
 800028c:	6001      	str	r1, [r0, #0]
 800028e:	4815      	ldr	r0, [pc, #84]	@ (80002e4 <__tx_DBGHandler+0xc>)
 8000290:	4912      	ldr	r1, [pc, #72]	@ (80002dc <__tx_DBGHandler+0x4>)
 8000292:	6809      	ldr	r1, [r1, #0]
 8000294:	6001      	str	r1, [r0, #0]
 8000296:	f04f 20e0 	mov.w	r0, #3758153728	@ 0xe000e000
 800029a:	4913      	ldr	r1, [pc, #76]	@ (80002e8 <__tx_DBGHandler+0x10>)
 800029c:	6141      	str	r1, [r0, #20]
 800029e:	f04f 0107 	mov.w	r1, #7
 80002a2:	6101      	str	r1, [r0, #16]
 80002a4:	f04f 0100 	mov.w	r1, #0
 80002a8:	f8c0 1d18 	str.w	r1, [r0, #3352]	@ 0xd18
 80002ac:	f04f 417f 	mov.w	r1, #4278190080	@ 0xff000000
 80002b0:	f8c0 1d1c 	str.w	r1, [r0, #3356]	@ 0xd1c
 80002b4:	490d      	ldr	r1, [pc, #52]	@ (80002ec <__tx_DBGHandler+0x14>)
 80002b6:	f8c0 1d20 	str.w	r1, [r0, #3360]	@ 0xd20
 80002ba:	4770      	bx	lr

080002bc <__tx_BadHandler>:
 80002bc:	f7ff bffe 	b.w	80002bc <__tx_BadHandler>

080002c0 <__tx_IntHandler>:
 80002c0:	b501      	push	{r0, lr}
 80002c2:	e8bd 4001 	ldmia.w	sp!, {r0, lr}
 80002c6:	4770      	bx	lr

080002c8 <SysTick_Handler>:
 80002c8:	b501      	push	{r0, lr}
 80002ca:	f000 f897 	bl	80003fc <_tx_timer_interrupt>
 80002ce:	e8bd 4001 	ldmia.w	sp!, {r0, lr}
 80002d2:	4770      	bx	lr

080002d4 <__tx_NMIHandler>:
 80002d4:	f7ff bffe 	b.w	80002d4 <__tx_NMIHandler>

080002d8 <__tx_DBGHandler>:
 80002d8:	f7ff bffe 	b.w	80002d8 <__tx_DBGHandler>
 80002dc:	08000000 	.word	0x08000000
 80002e0:	e0001000 	.word	0xe0001000
 80002e4:	20003130 	.word	0x20003130
 80002e8:	0007a11f 	.word	0x0007a11f
 80002ec:	40ff0000 	.word	0x40ff0000

080002f0 <_tx_thread_schedule>:
 80002f0:	f04f 0000 	mov.w	r0, #0
 80002f4:	4a2d      	ldr	r2, [pc, #180]	@ (80003ac <_tx_vfp_access+0x4>)
 80002f6:	6010      	str	r0, [r2, #0]
 80002f8:	f3ef 8014 	mrs	r0, CONTROL
 80002fc:	f020 0004 	bic.w	r0, r0, #4
 8000300:	f380 8814 	msr	CONTROL, r0
 8000304:	b662      	cpsie	i
 8000306:	f04f 5080 	mov.w	r0, #268435456	@ 0x10000000
 800030a:	f04f 21e0 	mov.w	r1, #3758153728	@ 0xe000e000
 800030e:	f8c1 0d04 	str.w	r0, [r1, #3332]	@ 0xd04
 8000312:	f3bf 8f4f 	dsb	sy
 8000316:	f3bf 8f6f 	isb	sy

0800031a <__tx_wait_here>:
 800031a:	e7fe      	b.n	800031a <__tx_wait_here>

0800031c <PendSV_Handler>:
 800031c:	4824      	ldr	r0, [pc, #144]	@ (80003b0 <_tx_vfp_access+0x8>)
 800031e:	4a25      	ldr	r2, [pc, #148]	@ (80003b4 <_tx_vfp_access+0xc>)
 8000320:	f04f 0300 	mov.w	r3, #0
 8000324:	6801      	ldr	r1, [r0, #0]
 8000326:	b191      	cbz	r1, 800034e <__tx_ts_new>
 8000328:	6003      	str	r3, [r0, #0]
 800032a:	f3ef 8c09 	mrs	ip, PSP
 800032e:	e92c 0ff0 	stmdb	ip!, {r4, r5, r6, r7, r8, r9, sl, fp}
 8000332:	f01e 0f10 	tst.w	lr, #16
 8000336:	d101      	bne.n	800033c <_skip_vfp_save>
 8000338:	ed2c 8a10 	vstmdb	ip!, {s16-s31}

0800033c <_skip_vfp_save>:
 800033c:	4c1e      	ldr	r4, [pc, #120]	@ (80003b8 <_tx_vfp_access+0x10>)
 800033e:	f84c ed04 	str.w	lr, [ip, #-4]!
 8000342:	f8c1 c008 	str.w	ip, [r1, #8]
 8000346:	6825      	ldr	r5, [r4, #0]
 8000348:	b10d      	cbz	r5, 800034e <__tx_ts_new>
 800034a:	618d      	str	r5, [r1, #24]
 800034c:	6023      	str	r3, [r4, #0]

0800034e <__tx_ts_new>:
 800034e:	b672      	cpsid	i
 8000350:	6811      	ldr	r1, [r2, #0]
 8000352:	b1d1      	cbz	r1, 800038a <__tx_ts_wait>
 8000354:	6001      	str	r1, [r0, #0]
 8000356:	b662      	cpsie	i

08000358 <__tx_ts_restore>:
 8000358:	684f      	ldr	r7, [r1, #4]
 800035a:	4c17      	ldr	r4, [pc, #92]	@ (80003b8 <_tx_vfp_access+0x10>)
 800035c:	698d      	ldr	r5, [r1, #24]
 800035e:	f107 0701 	add.w	r7, r7, #1
 8000362:	604f      	str	r7, [r1, #4]
 8000364:	6025      	str	r5, [r4, #0]
 8000366:	f8d1 c00c 	ldr.w	ip, [r1, #12]
 800036a:	f38c 880b 	msr	PSPLIM, ip
 800036e:	f8d1 c008 	ldr.w	ip, [r1, #8]
 8000372:	f85c eb04 	ldr.w	lr, [ip], #4
 8000376:	f01e 0f10 	tst.w	lr, #16
 800037a:	d101      	bne.n	8000380 <_skip_vfp_restore>
 800037c:	ecbc 8a10 	vldmia	ip!, {s16-s31}

08000380 <_skip_vfp_restore>:
 8000380:	e8bc 0ff0 	ldmia.w	ip!, {r4, r5, r6, r7, r8, r9, sl, fp}
 8000384:	f38c 8809 	msr	PSP, ip
 8000388:	4770      	bx	lr

0800038a <__tx_ts_wait>:
 800038a:	b672      	cpsid	i
 800038c:	6811      	ldr	r1, [r2, #0]
 800038e:	6001      	str	r1, [r0, #0]
 8000390:	b909      	cbnz	r1, 8000396 <__tx_ts_ready>
 8000392:	b662      	cpsie	i
 8000394:	e7f9      	b.n	800038a <__tx_ts_wait>

08000396 <__tx_ts_ready>:
 8000396:	f04f 6700 	mov.w	r7, #134217728	@ 0x8000000
 800039a:	f04f 28e0 	mov.w	r8, #3758153728	@ 0xe000e000
 800039e:	f8c8 7d04 	str.w	r7, [r8, #3332]	@ 0xd04
 80003a2:	b662      	cpsie	i
 80003a4:	e7d8      	b.n	8000358 <__tx_ts_restore>
 80003a6:	bf00      	nop

080003a8 <_tx_vfp_access>:
 80003a8:	4770      	bx	lr
 80003aa:	0000      	.short	0x0000
 80003ac:	20003094 	.word	0x20003094
 80003b0:	2000312c 	.word	0x2000312c
 80003b4:	20003128 	.word	0x20003128
 80003b8:	20003134 	.word	0x20003134

080003bc <_tx_thread_stack_build>:
 80003bc:	6902      	ldr	r2, [r0, #16]
 80003be:	f022 0207 	bic.w	r2, r2, #7
 80003c2:	f1a2 0244 	sub.w	r2, r2, #68	@ 0x44
 80003c6:	f06f 0343 	mvn.w	r3, #67	@ 0x43
 80003ca:	6013      	str	r3, [r2, #0]
 80003cc:	f04f 0300 	mov.w	r3, #0
 80003d0:	6053      	str	r3, [r2, #4]
 80003d2:	6093      	str	r3, [r2, #8]
 80003d4:	60d3      	str	r3, [r2, #12]
 80003d6:	6113      	str	r3, [r2, #16]
 80003d8:	6153      	str	r3, [r2, #20]
 80003da:	6193      	str	r3, [r2, #24]
 80003dc:	61d3      	str	r3, [r2, #28]
 80003de:	6213      	str	r3, [r2, #32]
 80003e0:	6253      	str	r3, [r2, #36]	@ 0x24
 80003e2:	6293      	str	r3, [r2, #40]	@ 0x28
 80003e4:	62d3      	str	r3, [r2, #44]	@ 0x2c
 80003e6:	6313      	str	r3, [r2, #48]	@ 0x30
 80003e8:	6353      	str	r3, [r2, #52]	@ 0x34
 80003ea:	f04f 33ff 	mov.w	r3, #4294967295
 80003ee:	6393      	str	r3, [r2, #56]	@ 0x38
 80003f0:	63d1      	str	r1, [r2, #60]	@ 0x3c
 80003f2:	f04f 7380 	mov.w	r3, #16777216	@ 0x1000000
 80003f6:	6413      	str	r3, [r2, #64]	@ 0x40
 80003f8:	6082      	str	r2, [r0, #8]
 80003fa:	4770      	bx	lr

080003fc <_tx_timer_interrupt>:
 80003fc:	4922      	ldr	r1, [pc, #136]	@ (8000488 <__tx_timer_nothing_expired+0x8>)
 80003fe:	6808      	ldr	r0, [r1, #0]
 8000400:	f100 0001 	add.w	r0, r0, #1
 8000404:	6008      	str	r0, [r1, #0]
 8000406:	4b21      	ldr	r3, [pc, #132]	@ (800048c <__tx_timer_nothing_expired+0xc>)
 8000408:	681a      	ldr	r2, [r3, #0]
 800040a:	b13a      	cbz	r2, 800041c <__tx_timer_no_time_slice>
 800040c:	f1a2 0201 	sub.w	r2, r2, #1
 8000410:	601a      	str	r2, [r3, #0]
 8000412:	b91a      	cbnz	r2, 800041c <__tx_timer_no_time_slice>
 8000414:	4b1e      	ldr	r3, [pc, #120]	@ (8000490 <__tx_timer_nothing_expired+0x10>)
 8000416:	f04f 0001 	mov.w	r0, #1
 800041a:	6018      	str	r0, [r3, #0]

0800041c <__tx_timer_no_time_slice>:
 800041c:	491d      	ldr	r1, [pc, #116]	@ (8000494 <__tx_timer_nothing_expired+0x14>)
 800041e:	6808      	ldr	r0, [r1, #0]
 8000420:	6802      	ldr	r2, [r0, #0]
 8000422:	b122      	cbz	r2, 800042e <__tx_timer_no_timer>
 8000424:	4b1c      	ldr	r3, [pc, #112]	@ (8000498 <__tx_timer_nothing_expired+0x18>)
 8000426:	f04f 0201 	mov.w	r2, #1
 800042a:	601a      	str	r2, [r3, #0]
 800042c:	e008      	b.n	8000440 <__tx_timer_done>

0800042e <__tx_timer_no_timer>:
 800042e:	f100 0004 	add.w	r0, r0, #4
 8000432:	4b1a      	ldr	r3, [pc, #104]	@ (800049c <__tx_timer_nothing_expired+0x1c>)
 8000434:	681a      	ldr	r2, [r3, #0]
 8000436:	4290      	cmp	r0, r2
 8000438:	d101      	bne.n	800043e <__tx_timer_skip_wrap>
 800043a:	4b19      	ldr	r3, [pc, #100]	@ (80004a0 <__tx_timer_nothing_expired+0x20>)
 800043c:	6818      	ldr	r0, [r3, #0]

0800043e <__tx_timer_skip_wrap>:
 800043e:	6008      	str	r0, [r1, #0]

08000440 <__tx_timer_done>:
 8000440:	4b13      	ldr	r3, [pc, #76]	@ (8000490 <__tx_timer_nothing_expired+0x10>)
 8000442:	681a      	ldr	r2, [r3, #0]
 8000444:	b912      	cbnz	r2, 800044c <__tx_something_expired>
 8000446:	4914      	ldr	r1, [pc, #80]	@ (8000498 <__tx_timer_nothing_expired+0x18>)
 8000448:	6808      	ldr	r0, [r1, #0]
 800044a:	b1c8      	cbz	r0, 8000480 <__tx_timer_nothing_expired>

0800044c <__tx_something_expired>:
 800044c:	b501      	push	{r0, lr}
 800044e:	4912      	ldr	r1, [pc, #72]	@ (8000498 <__tx_timer_nothing_expired+0x18>)
 8000450:	6808      	ldr	r0, [r1, #0]
 8000452:	b108      	cbz	r0, 8000458 <__tx_timer_dont_activate>
 8000454:	f006 f91c 	bl	8006690 <_tx_timer_expiration_process>

08000458 <__tx_timer_dont_activate>:
 8000458:	4b0d      	ldr	r3, [pc, #52]	@ (8000490 <__tx_timer_nothing_expired+0x10>)
 800045a:	681a      	ldr	r2, [r3, #0]
 800045c:	b172      	cbz	r2, 800047c <__tx_timer_not_ts_expiration>
 800045e:	f006 f8c9 	bl	80065f4 <_tx_thread_time_slice>
 8000462:	4810      	ldr	r0, [pc, #64]	@ (80004a4 <__tx_timer_nothing_expired+0x24>)
 8000464:	6801      	ldr	r1, [r0, #0]
 8000466:	b949      	cbnz	r1, 800047c <__tx_timer_not_ts_expiration>
 8000468:	480f      	ldr	r0, [pc, #60]	@ (80004a8 <__tx_timer_nothing_expired+0x28>)
 800046a:	6801      	ldr	r1, [r0, #0]
 800046c:	4a0f      	ldr	r2, [pc, #60]	@ (80004ac <__tx_timer_nothing_expired+0x2c>)
 800046e:	6813      	ldr	r3, [r2, #0]
 8000470:	480f      	ldr	r0, [pc, #60]	@ (80004b0 <__tx_timer_nothing_expired+0x30>)
 8000472:	f04f 5280 	mov.w	r2, #268435456	@ 0x10000000
 8000476:	4299      	cmp	r1, r3
 8000478:	d000      	beq.n	800047c <__tx_timer_not_ts_expiration>
 800047a:	6002      	str	r2, [r0, #0]

0800047c <__tx_timer_not_ts_expiration>:
 800047c:	e8bd 4001 	ldmia.w	sp!, {r0, lr}

08000480 <__tx_timer_nothing_expired>:
 8000480:	f3bf 8f4f 	dsb	sy
 8000484:	4770      	bx	lr
 8000486:	0000      	.short	0x0000
 8000488:	20003a94 	.word	0x20003a94
 800048c:	20003134 	.word	0x20003134
 8000490:	20003a90 	.word	0x20003a90
 8000494:	20003a04 	.word	0x20003a04
 8000498:	20003a00 	.word	0x20003a00
 800049c:	20003a08 	.word	0x20003a08
 80004a0:	20003a0c 	.word	0x20003a0c
 80004a4:	20003094 	.word	0x20003094
 80004a8:	2000312c 	.word	0x2000312c
 80004ac:	20003128 	.word	0x20003128
 80004b0:	e000ed04 	.word	0xe000ed04

080004b4 <strlen>:
 80004b4:	4603      	mov	r3, r0
 80004b6:	f813 2b01 	ldrb.w	r2, [r3], #1
 80004ba:	2a00      	cmp	r2, #0
 80004bc:	d1fb      	bne.n	80004b6 <strlen+0x2>
 80004be:	1a18      	subs	r0, r3, r0
 80004c0:	3801      	subs	r0, #1
 80004c2:	4770      	bx	lr

080004c4 <tx_application_define>:
 80004c4:	2334      	movs	r3, #52	@ 0x34
 80004c6:	b507      	push	{r0, r1, r2, lr}
 80004c8:	4a0f      	ldr	r2, [pc, #60]	@ (8000508 <tx_application_define+0x44>)
 80004ca:	9300      	str	r3, [sp, #0]
 80004cc:	490f      	ldr	r1, [pc, #60]	@ (800050c <tx_application_define+0x48>)
 80004ce:	f44f 6340 	mov.w	r3, #3072	@ 0xc00
 80004d2:	480f      	ldr	r0, [pc, #60]	@ (8000510 <tx_application_define+0x4c>)
 80004d4:	f006 fa5e 	bl	8006994 <_txe_byte_pool_create>
 80004d8:	b920      	cbnz	r0, 80004e4 <tx_application_define+0x20>
 80004da:	480d      	ldr	r0, [pc, #52]	@ (8000510 <tx_application_define+0x4c>)
 80004dc:	f000 fabc 	bl	8000a58 <App_ThreadX_Init>
 80004e0:	b100      	cbz	r0, 80004e4 <tx_application_define+0x20>
 80004e2:	e7fe      	b.n	80004e2 <tx_application_define+0x1e>
 80004e4:	2334      	movs	r3, #52	@ 0x34
 80004e6:	4a0b      	ldr	r2, [pc, #44]	@ (8000514 <tx_application_define+0x50>)
 80004e8:	9300      	str	r3, [sp, #0]
 80004ea:	490b      	ldr	r1, [pc, #44]	@ (8000518 <tx_application_define+0x54>)
 80004ec:	f44f 53e0 	mov.w	r3, #7168	@ 0x1c00
 80004f0:	480a      	ldr	r0, [pc, #40]	@ (800051c <tx_application_define+0x58>)
 80004f2:	f006 fa4f 	bl	8006994 <_txe_byte_pool_create>
 80004f6:	b920      	cbnz	r0, 8000502 <tx_application_define+0x3e>
 80004f8:	4808      	ldr	r0, [pc, #32]	@ (800051c <tx_application_define+0x58>)
 80004fa:	f008 fadb 	bl	8008ab4 <MX_USBX_Device_Init>
 80004fe:	b100      	cbz	r0, 8000502 <tx_application_define+0x3e>
 8000500:	e7fe      	b.n	8000500 <tx_application_define+0x3c>
 8000502:	b003      	add	sp, #12
 8000504:	f85d fb04 	ldr.w	pc, [sp], #4
 8000508:	20001ce0 	.word	0x20001ce0
 800050c:	08009128 	.word	0x08009128
 8000510:	20001cac 	.word	0x20001cac
 8000514:	200000ac 	.word	0x200000ac
 8000518:	0800913b 	.word	0x0800913b
 800051c:	20000078 	.word	0x20000078

08000520 <ADF4351_setDATA>:
 8000520:	4602      	mov	r2, r0
 8000522:	2101      	movs	r1, #1
 8000524:	4801      	ldr	r0, [pc, #4]	@ (800052c <ADF4351_setDATA+0xc>)
 8000526:	f002 b837 	b.w	8002598 <HAL_GPIO_WritePin>
 800052a:	bf00      	nop
 800052c:	42020000 	.word	0x42020000

08000530 <ADF4351_setCLK>:
 8000530:	4602      	mov	r2, r0
 8000532:	2102      	movs	r1, #2
 8000534:	4801      	ldr	r0, [pc, #4]	@ (800053c <ADF4351_setCLK+0xc>)
 8000536:	f002 b82f 	b.w	8002598 <HAL_GPIO_WritePin>
 800053a:	bf00      	nop
 800053c:	42020000 	.word	0x42020000

08000540 <ADF4351_setLE>:
 8000540:	4602      	mov	r2, r0
 8000542:	2108      	movs	r1, #8
 8000544:	4801      	ldr	r0, [pc, #4]	@ (800054c <ADF4351_setLE+0xc>)
 8000546:	f002 b827 	b.w	8002598 <HAL_GPIO_WritePin>
 800054a:	bf00      	nop
 800054c:	42020800 	.word	0x42020800

08000550 <ADF4351_initPorts>:
 8000550:	e92d 43f0 	stmdb	sp!, {r4, r5, r6, r7, r8, r9, lr}
 8000554:	2704      	movs	r7, #4
 8000556:	f04f 0802 	mov.w	r8, #2
 800055a:	2401      	movs	r4, #1
 800055c:	f04f 0908 	mov.w	r9, #8
 8000560:	b087      	sub	sp, #28
 8000562:	4d21      	ldr	r5, [pc, #132]	@ (80005e8 <ADF4351_initPorts+0x98>)
 8000564:	2210      	movs	r2, #16
 8000566:	2100      	movs	r1, #0
 8000568:	a802      	add	r0, sp, #8
 800056a:	f008 fda5 	bl	80090b8 <memset>
 800056e:	4628      	mov	r0, r5
 8000570:	eb0d 0107 	add.w	r1, sp, r7
 8000574:	4e1d      	ldr	r6, [pc, #116]	@ (80005ec <ADF4351_initPorts+0x9c>)
 8000576:	f8cd 8010 	str.w	r8, [sp, #16]
 800057a:	9701      	str	r7, [sp, #4]
 800057c:	f001 ff02 	bl	8002384 <HAL_GPIO_Init>
 8000580:	4628      	mov	r0, r5
 8000582:	eb0d 0107 	add.w	r1, sp, r7
 8000586:	f8cd 8004 	str.w	r8, [sp, #4]
 800058a:	9402      	str	r4, [sp, #8]
 800058c:	f001 fefa 	bl	8002384 <HAL_GPIO_Init>
 8000590:	4628      	mov	r0, r5
 8000592:	eb0d 0107 	add.w	r1, sp, r7
 8000596:	e9cd 4401 	strd	r4, r4, [sp, #4]
 800059a:	f001 fef3 	bl	8002384 <HAL_GPIO_Init>
 800059e:	4630      	mov	r0, r6
 80005a0:	eb0d 0107 	add.w	r1, sp, r7
 80005a4:	e9cd 9401 	strd	r9, r4, [sp, #4]
 80005a8:	f001 feec 	bl	8002384 <HAL_GPIO_Init>
 80005ac:	4630      	mov	r0, r6
 80005ae:	eb0d 0107 	add.w	r1, sp, r7
 80005b2:	e9cd 7401 	strd	r7, r4, [sp, #4]
 80005b6:	f001 fee5 	bl	8002384 <HAL_GPIO_Init>
 80005ba:	4641      	mov	r1, r8
 80005bc:	4628      	mov	r0, r5
 80005be:	2200      	movs	r2, #0
 80005c0:	f001 ffea 	bl	8002598 <HAL_GPIO_WritePin>
 80005c4:	4621      	mov	r1, r4
 80005c6:	4628      	mov	r0, r5
 80005c8:	2200      	movs	r2, #0
 80005ca:	f001 ffe5 	bl	8002598 <HAL_GPIO_WritePin>
 80005ce:	4649      	mov	r1, r9
 80005d0:	4630      	mov	r0, r6
 80005d2:	2200      	movs	r2, #0
 80005d4:	f001 ffe0 	bl	8002598 <HAL_GPIO_WritePin>
 80005d8:	2200      	movs	r2, #0
 80005da:	4639      	mov	r1, r7
 80005dc:	4630      	mov	r0, r6
 80005de:	f001 ffdb 	bl	8002598 <HAL_GPIO_WritePin>
 80005e2:	b007      	add	sp, #28
 80005e4:	e8bd 83f0 	ldmia.w	sp!, {r4, r5, r6, r7, r8, r9, pc}
 80005e8:	42020000 	.word	0x42020000
 80005ec:	42020800 	.word	0x42020800

080005f0 <ADF4351_sendData>:
 80005f0:	b538      	push	{r3, r4, r5, lr}
 80005f2:	4605      	mov	r5, r0
 80005f4:	2000      	movs	r0, #0
 80005f6:	f7ff ff9b 	bl	8000530 <ADF4351_setCLK>
 80005fa:	bf00      	nop
 80005fc:	2420      	movs	r4, #32
 80005fe:	2d00      	cmp	r5, #0
 8000600:	bfb4      	ite	lt
 8000602:	2001      	movlt	r0, #1
 8000604:	2000      	movge	r0, #0
 8000606:	f7ff ff8b 	bl	8000520 <ADF4351_setDATA>
 800060a:	bf00      	nop
 800060c:	2001      	movs	r0, #1
 800060e:	f7ff ff8f 	bl	8000530 <ADF4351_setCLK>
 8000612:	006d      	lsls	r5, r5, #1
 8000614:	bf00      	nop
 8000616:	2000      	movs	r0, #0
 8000618:	3c01      	subs	r4, #1
 800061a:	f7ff ff89 	bl	8000530 <ADF4351_setCLK>
 800061e:	f014 04ff 	ands.w	r4, r4, #255	@ 0xff
 8000622:	d1ec      	bne.n	80005fe <ADF4351_sendData+0xe>
 8000624:	bf00      	nop
 8000626:	2001      	movs	r0, #1
 8000628:	f7ff ff8a 	bl	8000540 <ADF4351_setLE>
 800062c:	bf00      	nop
 800062e:	bf00      	nop
 8000630:	4620      	mov	r0, r4
 8000632:	e8bd 4038 	ldmia.w	sp!, {r3, r4, r5, lr}
 8000636:	f7ff bf83 	b.w	8000540 <ADF4351_setLE>

0800063a <ADF4351_calcBandSelClkDivMax>:
 800063a:	3101      	adds	r1, #1
 800063c:	3201      	adds	r2, #1
 800063e:	ee07 0a10 	vmov	s14, r0
 8000642:	ee07 1a90 	vmov	s15, r1
 8000646:	ee06 2a90 	vmov	s13, r2
 800064a:	eef8 7ae7 	vcvt.f32.s32	s15, s15
 800064e:	eef8 6ae6 	vcvt.f32.s32	s13, s13
 8000652:	eebb 7aee 	vcvt.f32.u32	s14, s14, #3
 8000656:	ee67 7a80 	vmul.f32	s15, s15, s0
 800065a:	ee27 7a26 	vmul.f32	s14, s14, s13
 800065e:	eec7 6a87 	vdiv.f32	s13, s15, s14
 8000662:	eefc 7ae6 	vcvt.u32.f32	s15, s13
 8000666:	b082      	sub	sp, #8
 8000668:	edcd 7a01 	vstr	s15, [sp, #4]
 800066c:	f89d 0004 	ldrb.w	r0, [sp, #4]
 8000670:	b002      	add	sp, #8
 8000672:	4770      	bx	lr

08000674 <ADF4351_setRegister0>:
 8000674:	f3c0 000b 	ubfx	r0, r0, #0, #12
 8000678:	03c9      	lsls	r1, r1, #15
 800067a:	ea41 00c0 	orr.w	r0, r1, r0, lsl #3
 800067e:	f7ff bfb7 	b.w	80005f0 <ADF4351_sendData>

08000682 <ADF4351_setRegister1>:
 8000682:	f3c0 000b 	ubfx	r0, r0, #0, #12
 8000686:	f003 0301 	and.w	r3, r3, #1
 800068a:	00c0      	lsls	r0, r0, #3
 800068c:	ea40 7003 	orr.w	r0, r0, r3, lsl #28
 8000690:	f002 0201 	and.w	r2, r2, #1
 8000694:	ea40 60c2 	orr.w	r0, r0, r2, lsl #27
 8000698:	f3c1 010b 	ubfx	r1, r1, #0, #12
 800069c:	ea40 30c1 	orr.w	r0, r0, r1, lsl #15
 80006a0:	f040 0001 	orr.w	r0, r0, #1
 80006a4:	f7ff bfa4 	b.w	80005f0 <ADF4351_sendData>

080006a8 <ADF4351_setRegister2>:
 80006a8:	e92d 47f0 	stmdb	sp!, {r4, r5, r6, r7, r8, r9, sl, lr}
 80006ac:	f89d a040 	ldrb.w	sl, [sp, #64]	@ 0x40
 80006b0:	f89d 903c 	ldrb.w	r9, [sp, #60]	@ 0x3c
 80006b4:	f000 0001 	and.w	r0, r0, #1
 80006b8:	f89d 8038 	ldrb.w	r8, [sp, #56]	@ 0x38
 80006bc:	f00a 0a03 	and.w	sl, sl, #3
 80006c0:	00c0      	lsls	r0, r0, #3
 80006c2:	f89d e034 	ldrb.w	lr, [sp, #52]	@ 0x34
 80006c6:	ea40 704a 	orr.w	r0, r0, sl, lsl #29
 80006ca:	f009 0907 	and.w	r9, r9, #7
 80006ce:	f8bd c030 	ldrh.w	ip, [sp, #48]	@ 0x30
 80006d2:	ea40 6089 	orr.w	r0, r0, r9, lsl #26
 80006d6:	f008 0801 	and.w	r8, r8, #1
 80006da:	f89d 702c 	ldrb.w	r7, [sp, #44]	@ 0x2c
 80006de:	ea40 6048 	orr.w	r0, r0, r8, lsl #25
 80006e2:	f00e 0e01 	and.w	lr, lr, #1
 80006e6:	f89d 6028 	ldrb.w	r6, [sp, #40]	@ 0x28
 80006ea:	ea40 600e 	orr.w	r0, r0, lr, lsl #24
 80006ee:	f3cc 0c09 	ubfx	ip, ip, #0, #10
 80006f2:	f89d 5024 	ldrb.w	r5, [sp, #36]	@ 0x24
 80006f6:	f007 0701 	and.w	r7, r7, #1
 80006fa:	ea40 308c 	orr.w	r0, r0, ip, lsl #14
 80006fe:	f89d 4020 	ldrb.w	r4, [sp, #32]
 8000702:	ea40 3047 	orr.w	r0, r0, r7, lsl #13
 8000706:	f006 060f 	and.w	r6, r6, #15
 800070a:	ea40 2046 	orr.w	r0, r0, r6, lsl #9
 800070e:	f005 0501 	and.w	r5, r5, #1
 8000712:	ea40 2005 	orr.w	r0, r0, r5, lsl #8
 8000716:	f004 0401 	and.w	r4, r4, #1
 800071a:	ea40 10c4 	orr.w	r0, r0, r4, lsl #7
 800071e:	f003 0301 	and.w	r3, r3, #1
 8000722:	ea40 1083 	orr.w	r0, r0, r3, lsl #6
 8000726:	f002 0201 	and.w	r2, r2, #1
 800072a:	ea40 1042 	orr.w	r0, r0, r2, lsl #5
 800072e:	f001 0101 	and.w	r1, r1, #1
 8000732:	ea40 1001 	orr.w	r0, r0, r1, lsl #4
 8000736:	f040 0002 	orr.w	r0, r0, #2
 800073a:	e8bd 47f0 	ldmia.w	sp!, {r4, r5, r6, r7, r8, r9, sl, lr}
 800073e:	f7ff bf57 	b.w	80005f0 <ADF4351_sendData>
	...

08000744 <ADF4351_enable>:
 8000744:	2201      	movs	r2, #1
 8000746:	2104      	movs	r1, #4
 8000748:	4801      	ldr	r0, [pc, #4]	@ (8000750 <ADF4351_enable+0xc>)
 800074a:	f001 bf25 	b.w	8002598 <HAL_GPIO_WritePin>
 800074e:	bf00      	nop
 8000750:	42020800 	.word	0x42020800

08000754 <ADF4351_init>:
 8000754:	b508      	push	{r3, lr}
 8000756:	f7ff fefb 	bl	8000550 <ADF4351_initPorts>
 800075a:	2014      	movs	r0, #20
 800075c:	f000 fd6e 	bl	800123c <HAL_Delay>
 8000760:	f7ff fff0 	bl	8000744 <ADF4351_enable>
 8000764:	e8bd 4008 	ldmia.w	sp!, {r3, lr}
 8000768:	2014      	movs	r0, #20
 800076a:	f000 bd67 	b.w	800123c <HAL_Delay>

0800076e <ADF4351_VCO_freq>:
 800076e:	3101      	adds	r1, #1
 8000770:	ee07 1a90 	vmov	s15, r1
 8000774:	ee06 3a10 	vmov	s12, r3
 8000778:	1c43      	adds	r3, r0, #1
 800077a:	eeb8 7ae7 	vcvt.f32.s32	s14, s15
 800077e:	ee06 2a90 	vmov	s13, r2
 8000782:	ee07 3a90 	vmov	s15, r3
 8000786:	eef8 6a66 	vcvt.f32.u32	s13, s13
 800078a:	eef8 7ae7 	vcvt.f32.s32	s15, s15
 800078e:	ee67 7aa6 	vmul.f32	s15, s15, s13
 8000792:	eec7 6a27 	vdiv.f32	s13, s14, s15
 8000796:	f8bd 3000 	ldrh.w	r3, [sp]
 800079a:	ee26 0a80 	vmul.f32	s0, s13, s0
 800079e:	ee06 3a90 	vmov	s13, r3
 80007a2:	f8bd 3004 	ldrh.w	r3, [sp, #4]
 80007a6:	eef8 6a66 	vcvt.f32.u32	s13, s13
 80007aa:	ee07 3a10 	vmov	s14, r3
 80007ae:	eeb8 7a47 	vcvt.f32.u32	s14, s14
 80007b2:	eeb8 6a46 	vcvt.f32.u32	s12, s12
 80007b6:	eec6 7a87 	vdiv.f32	s15, s13, s14
 80007ba:	ee77 7a86 	vadd.f32	s15, s15, s12
 80007be:	ee20 0a27 	vmul.f32	s0, s0, s15
 80007c2:	4770      	bx	lr

080007c4 <ADF4351_settings>:
 80007c4:	e92d 4ff0 	stmdb	sp!, {r4, r5, r6, r7, r8, r9, sl, fp, lr}
 80007c8:	ed2d 8b02 	vpush	{d8}
 80007cc:	461e      	mov	r6, r3
 80007ce:	eddf 8a38 	vldr	s17, [pc, #224]	@ 80008b0 <ADF4351_settings+0xec>
 80007d2:	b08b      	sub	sp, #44	@ 0x2c
 80007d4:	f89d b058 	ldrb.w	fp, [sp, #88]	@ 0x58
 80007d8:	f89d 905c 	ldrb.w	r9, [sp, #92]	@ 0x5c
 80007dc:	4603      	mov	r3, r0
 80007de:	e9cd 1200 	strd	r1, r2, [sp]
 80007e2:	4607      	mov	r7, r0
 80007e4:	4690      	mov	r8, r2
 80007e6:	468a      	mov	sl, r1
 80007e8:	4632      	mov	r2, r6
 80007ea:	4648      	mov	r0, r9
 80007ec:	fab1 f481 	clz	r4, r1
 80007f0:	eeb0 0a68 	vmov.f32	s0, s17
 80007f4:	4659      	mov	r1, fp
 80007f6:	f7ff ffba 	bl	800076e <ADF4351_VCO_freq>
 80007fa:	482e      	ldr	r0, [pc, #184]	@ (80008b4 <ADF4351_settings+0xf0>)
 80007fc:	eeb0 8a40 	vmov.f32	s16, s0
 8000800:	f89d 5060 	ldrb.w	r5, [sp, #96]	@ 0x60
 8000804:	f7ff fef4 	bl	80005f0 <ADF4351_sendData>
 8000808:	2032      	movs	r0, #50	@ 0x32
 800080a:	f000 fd17 	bl	800123c <HAL_Delay>
 800080e:	eeb0 0a68 	vmov.f32	s0, s17
 8000812:	464a      	mov	r2, r9
 8000814:	4659      	mov	r1, fp
 8000816:	4630      	mov	r0, r6
 8000818:	f7ff ff0f 	bl	800063a <ADF4351_calcBandSelClkDivMax>
 800081c:	f005 0307 	and.w	r3, r5, #7
 8000820:	0305      	lsls	r5, r0, #12
 8000822:	ea45 5503 	orr.w	r5, r5, r3, lsl #20
 8000826:	f445 0000 	orr.w	r0, r5, #8388608	@ 0x800000
 800082a:	f440 701f 	orr.w	r0, r0, #636	@ 0x27c
 800082e:	f7ff fedf 	bl	80005f0 <ADF4351_sendData>
 8000832:	0964      	lsrs	r4, r4, #5
 8000834:	2032      	movs	r0, #50	@ 0x32
 8000836:	f000 fd01 	bl	800123c <HAL_Delay>
 800083a:	05a0      	lsls	r0, r4, #22
 800083c:	f040 000b 	orr.w	r0, r0, #11
 8000840:	f7ff fed6 	bl	80005f0 <ADF4351_sendData>
 8000844:	2032      	movs	r0, #50	@ 0x32
 8000846:	f000 fcf9 	bl	800123c <HAL_Delay>
 800084a:	2500      	movs	r5, #0
 800084c:	2302      	movs	r3, #2
 800084e:	e9cd 3507 	strd	r3, r5, [sp, #28]
 8000852:	2307      	movs	r3, #7
 8000854:	e9cd 4301 	strd	r4, r3, [sp, #4]
 8000858:	2401      	movs	r4, #1
 800085a:	462a      	mov	r2, r5
 800085c:	4623      	mov	r3, r4
 800085e:	4629      	mov	r1, r5
 8000860:	4628      	mov	r0, r5
 8000862:	e9cd 9b05 	strd	r9, fp, [sp, #20]
 8000866:	e9cd 5603 	strd	r5, r6, [sp, #12]
 800086a:	9400      	str	r4, [sp, #0]
 800086c:	f7ff ff1c 	bl	80006a8 <ADF4351_setRegister2>
 8000870:	2032      	movs	r0, #50	@ 0x32
 8000872:	f000 fce3 	bl	800123c <HAL_Delay>
 8000876:	eddf 7a10 	vldr	s15, [pc, #64]	@ 80008b8 <ADF4351_settings+0xf4>
 800087a:	eeb4 8ae7 	vcmpe.f32	s16, s15
 800087e:	eef1 fa10 	vmrs	APSR_nzcv, fpscr
 8000882:	462b      	mov	r3, r5
 8000884:	bfcc      	ite	gt
 8000886:	4622      	movgt	r2, r4
 8000888:	462a      	movle	r2, r5
 800088a:	4621      	mov	r1, r4
 800088c:	4640      	mov	r0, r8
 800088e:	f7ff fef8 	bl	8000682 <ADF4351_setRegister1>
 8000892:	2032      	movs	r0, #50	@ 0x32
 8000894:	f000 fcd2 	bl	800123c <HAL_Delay>
 8000898:	4650      	mov	r0, sl
 800089a:	4639      	mov	r1, r7
 800089c:	f7ff feea 	bl	8000674 <ADF4351_setRegister0>
 80008a0:	2032      	movs	r0, #50	@ 0x32
 80008a2:	b00b      	add	sp, #44	@ 0x2c
 80008a4:	ecbd 8b02 	vpop	{d8}
 80008a8:	e8bd 4ff0 	ldmia.w	sp!, {r4, r5, r6, r7, r8, r9, sl, fp, lr}
 80008ac:	f000 bcc6 	b.w	800123c <HAL_Delay>
 80008b0:	42480000 	.word	0x42480000
 80008b4:	00d80005 	.word	0x00d80005
 80008b8:	45610000 	.word	0x45610000

080008bc <MX_ADC1_Init>:
 80008bc:	b500      	push	{lr}
 80008be:	b089      	sub	sp, #36	@ 0x24
 80008c0:	2220      	movs	r2, #32
 80008c2:	2100      	movs	r1, #0
 80008c4:	4668      	mov	r0, sp
 80008c6:	f008 fbf7 	bl	80090b8 <memset>
 80008ca:	2300      	movs	r3, #0
 80008cc:	2204      	movs	r2, #4
 80008ce:	481c      	ldr	r0, [pc, #112]	@ (8000940 <MX_ADC1_Init+0x84>)
 80008d0:	491c      	ldr	r1, [pc, #112]	@ (8000944 <MX_ADC1_Init+0x88>)
 80008d2:	f44f 6cc0 	mov.w	ip, #1536	@ 0x600
 80008d6:	e9c0 1300 	strd	r1, r3, [r0]
 80008da:	6182      	str	r2, [r0, #24]
 80008dc:	f44f 6180 	mov.w	r1, #1024	@ 0x400
 80008e0:	2201      	movs	r2, #1
 80008e2:	e9c0 3302 	strd	r3, r3, [r0, #8]
 80008e6:	e9c0 c10d 	strd	ip, r1, [r0, #52]	@ 0x34
 80008ea:	6103      	str	r3, [r0, #16]
 80008ec:	7703      	strb	r3, [r0, #28]
 80008ee:	f880 3024 	strb.w	r3, [r0, #36]	@ 0x24
 80008f2:	6282      	str	r2, [r0, #40]	@ 0x28
 80008f4:	f880 302c 	strb.w	r3, [r0, #44]	@ 0x2c
 80008f8:	f880 3040 	strb.w	r3, [r0, #64]	@ 0x40
 80008fc:	6683      	str	r3, [r0, #104]	@ 0x68
 80008fe:	6443      	str	r3, [r0, #68]	@ 0x44
 8000900:	6503      	str	r3, [r0, #80]	@ 0x50
 8000902:	63c2      	str	r2, [r0, #60]	@ 0x3c
 8000904:	f880 3054 	strb.w	r3, [r0, #84]	@ 0x54
 8000908:	f000 fd30 	bl	800136c <HAL_ADC_Init>
 800090c:	b108      	cbz	r0, 8000912 <MX_ADC1_Init+0x56>
 800090e:	f000 fa6f 	bl	8000df0 <Error_Handler>
 8000912:	2306      	movs	r3, #6
 8000914:	4a0c      	ldr	r2, [pc, #48]	@ (8000948 <MX_ADC1_Init+0x8c>)
 8000916:	4669      	mov	r1, sp
 8000918:	e9cd 2300 	strd	r2, r3, [sp]
 800091c:	2300      	movs	r3, #0
 800091e:	f64f 72ff 	movw	r2, #65535	@ 0xffff
 8000922:	e9cd 3202 	strd	r3, r2, [sp, #8]
 8000926:	2204      	movs	r2, #4
 8000928:	4805      	ldr	r0, [pc, #20]	@ (8000940 <MX_ADC1_Init+0x84>)
 800092a:	e9cd 2304 	strd	r2, r3, [sp, #16]
 800092e:	f000 fecf 	bl	80016d0 <HAL_ADC_ConfigChannel>
 8000932:	b108      	cbz	r0, 8000938 <MX_ADC1_Init+0x7c>
 8000934:	f000 fa5c 	bl	8000df0 <Error_Handler>
 8000938:	b009      	add	sp, #36	@ 0x24
 800093a:	f85d fb04 	ldr.w	pc, [sp], #4
 800093e:	bf00      	nop
 8000940:	20002958 	.word	0x20002958
 8000944:	42028000 	.word	0x42028000
 8000948:	04000002 	.word	0x04000002

0800094c <HAL_ADC_MspInit>:
 800094c:	b570      	push	{r4, r5, r6, lr}
 800094e:	4606      	mov	r6, r0
 8000950:	b0b8      	sub	sp, #224	@ 0xe0
 8000952:	2214      	movs	r2, #20
 8000954:	2100      	movs	r1, #0
 8000956:	a803      	add	r0, sp, #12
 8000958:	f008 fbae 	bl	80090b8 <memset>
 800095c:	22c0      	movs	r2, #192	@ 0xc0
 800095e:	2100      	movs	r1, #0
 8000960:	a808      	add	r0, sp, #32
 8000962:	f008 fba9 	bl	80090b8 <memset>
 8000966:	6832      	ldr	r2, [r6, #0]
 8000968:	4b2b      	ldr	r3, [pc, #172]	@ (8000a18 <HAL_ADC_MspInit+0xcc>)
 800096a:	429a      	cmp	r2, r3
 800096c:	d152      	bne.n	8000a14 <HAL_ADC_MspInit+0xc8>
 800096e:	2300      	movs	r3, #0
 8000970:	f44f 4200 	mov.w	r2, #32768	@ 0x8000
 8000974:	e9cd 2308 	strd	r2, r3, [sp, #32]
 8000978:	f44f 5340 	mov.w	r3, #12288	@ 0x3000
 800097c:	a808      	add	r0, sp, #32
 800097e:	9331      	str	r3, [sp, #196]	@ 0xc4
 8000980:	f003 fbce 	bl	8004120 <HAL_RCCEx_PeriphCLKConfig>
 8000984:	b108      	cbz	r0, 800098a <HAL_ADC_MspInit+0x3e>
 8000986:	f000 fa33 	bl	8000df0 <Error_Handler>
 800098a:	4b24      	ldr	r3, [pc, #144]	@ (8000a1c <HAL_ADC_MspInit+0xd0>)
 800098c:	2500      	movs	r5, #0
 800098e:	f8d3 208c 	ldr.w	r2, [r3, #140]	@ 0x8c
 8000992:	4823      	ldr	r0, [pc, #140]	@ (8000a20 <HAL_ADC_MspInit+0xd4>)
 8000994:	f442 6280 	orr.w	r2, r2, #1024	@ 0x400
 8000998:	f8c3 208c 	str.w	r2, [r3, #140]	@ 0x8c
 800099c:	f8d3 208c 	ldr.w	r2, [r3, #140]	@ 0x8c
 80009a0:	a903      	add	r1, sp, #12
 80009a2:	f402 6280 	and.w	r2, r2, #1024	@ 0x400
 80009a6:	9201      	str	r2, [sp, #4]
 80009a8:	9a01      	ldr	r2, [sp, #4]
 80009aa:	f8d3 208c 	ldr.w	r2, [r3, #140]	@ 0x8c
 80009ae:	4c1d      	ldr	r4, [pc, #116]	@ (8000a24 <HAL_ADC_MspInit+0xd8>)
 80009b0:	f042 0204 	orr.w	r2, r2, #4
 80009b4:	f8c3 208c 	str.w	r2, [r3, #140]	@ 0x8c
 80009b8:	f8d3 308c 	ldr.w	r3, [r3, #140]	@ 0x8c
 80009bc:	2201      	movs	r2, #1
 80009be:	f003 0304 	and.w	r3, r3, #4
 80009c2:	9302      	str	r3, [sp, #8]
 80009c4:	9b02      	ldr	r3, [sp, #8]
 80009c6:	2303      	movs	r3, #3
 80009c8:	9505      	str	r5, [sp, #20]
 80009ca:	e9cd 2303 	strd	r2, r3, [sp, #12]
 80009ce:	f001 fcd9 	bl	8002384 <HAL_GPIO_Init>
 80009d2:	4b15      	ldr	r3, [pc, #84]	@ (8000a28 <HAL_ADC_MspInit+0xdc>)
 80009d4:	4620      	mov	r0, r4
 80009d6:	e9c4 3500 	strd	r3, r5, [r4]
 80009da:	f44f 2300 	mov.w	r3, #524288	@ 0x80000
 80009de:	e9c4 3505 	strd	r3, r5, [r4, #20]
 80009e2:	2302      	movs	r3, #2
 80009e4:	e9c4 5502 	strd	r5, r5, [r4, #8]
 80009e8:	e9c4 5507 	strd	r5, r5, [r4, #28]
 80009ec:	e9c4 3309 	strd	r3, r3, [r4, #36]	@ 0x24
 80009f0:	e9c4 550b 	strd	r5, r5, [r4, #44]	@ 0x2c
 80009f4:	6125      	str	r5, [r4, #16]
 80009f6:	6365      	str	r5, [r4, #52]	@ 0x34
 80009f8:	f001 fa30 	bl	8001e5c <HAL_DMA_Init>
 80009fc:	b108      	cbz	r0, 8000a02 <HAL_ADC_MspInit+0xb6>
 80009fe:	f000 f9f7 	bl	8000df0 <Error_Handler>
 8000a02:	2110      	movs	r1, #16
 8000a04:	4807      	ldr	r0, [pc, #28]	@ (8000a24 <HAL_ADC_MspInit+0xd8>)
 8000a06:	6734      	str	r4, [r6, #112]	@ 0x70
 8000a08:	65e6      	str	r6, [r4, #92]	@ 0x5c
 8000a0a:	f001 fc9c 	bl	8002346 <HAL_DMA_ConfigChannelAttributes>
 8000a0e:	b108      	cbz	r0, 8000a14 <HAL_ADC_MspInit+0xc8>
 8000a10:	f000 f9ee 	bl	8000df0 <Error_Handler>
 8000a14:	b038      	add	sp, #224	@ 0xe0
 8000a16:	bd70      	pop	{r4, r5, r6, pc}
 8000a18:	42028000 	.word	0x42028000
 8000a1c:	46020c00 	.word	0x46020c00
 8000a20:	42020800 	.word	0x42020800
 8000a24:	200028e0 	.word	0x200028e0
 8000a28:	40020050 	.word	0x40020050

08000a2c <main_thread_entry>:
 8000a2c:	b508      	push	{r3, lr}
 8000a2e:	4c09      	ldr	r4, [pc, #36]	@ (8000a54 <main_thread_entry+0x28>)
 8000a30:	2064      	movs	r0, #100	@ 0x64
 8000a32:	f000 fc03 	bl	800123c <HAL_Delay>
 8000a36:	2201      	movs	r2, #1
 8000a38:	2110      	movs	r1, #16
 8000a3a:	4620      	mov	r0, r4
 8000a3c:	f001 fdac 	bl	8002598 <HAL_GPIO_WritePin>
 8000a40:	2064      	movs	r0, #100	@ 0x64
 8000a42:	f000 fbfb 	bl	800123c <HAL_Delay>
 8000a46:	2200      	movs	r2, #0
 8000a48:	2110      	movs	r1, #16
 8000a4a:	4620      	mov	r0, r4
 8000a4c:	f001 fda4 	bl	8002598 <HAL_GPIO_WritePin>
 8000a50:	e7ee      	b.n	8000a30 <main_thread_entry+0x4>
 8000a52:	bf00      	nop
 8000a54:	42020c00 	.word	0x42020c00

08000a58 <App_ThreadX_Init>:
 8000a58:	b500      	push	{lr}
 8000a5a:	b08b      	sub	sp, #44	@ 0x2c
 8000a5c:	2300      	movs	r3, #0
 8000a5e:	f44f 7200 	mov.w	r2, #512	@ 0x200
 8000a62:	a909      	add	r1, sp, #36	@ 0x24
 8000a64:	f005 ff5c 	bl	8006920 <_txe_byte_allocate>
 8000a68:	4603      	mov	r3, r0
 8000a6a:	b9b8      	cbnz	r0, 8000a9c <App_ThreadX_Init+0x44>
 8000a6c:	2201      	movs	r2, #1
 8000a6e:	21b0      	movs	r1, #176	@ 0xb0
 8000a70:	e9cd 2105 	strd	r2, r1, [sp, #20]
 8000a74:	220a      	movs	r2, #10
 8000a76:	e9cd 2202 	strd	r2, r2, [sp, #8]
 8000a7a:	f44f 7200 	mov.w	r2, #512	@ 0x200
 8000a7e:	9201      	str	r2, [sp, #4]
 8000a80:	9a09      	ldr	r2, [sp, #36]	@ 0x24
 8000a82:	9004      	str	r0, [sp, #16]
 8000a84:	9200      	str	r2, [sp, #0]
 8000a86:	4906      	ldr	r1, [pc, #24]	@ (8000aa0 <App_ThreadX_Init+0x48>)
 8000a88:	4a06      	ldr	r2, [pc, #24]	@ (8000aa4 <App_ThreadX_Init+0x4c>)
 8000a8a:	4807      	ldr	r0, [pc, #28]	@ (8000aa8 <App_ThreadX_Init+0x50>)
 8000a8c:	f006 f942 	bl	8006d14 <_txe_thread_create>
 8000a90:	2800      	cmp	r0, #0
 8000a92:	bf18      	it	ne
 8000a94:	200e      	movne	r0, #14
 8000a96:	b00b      	add	sp, #44	@ 0x2c
 8000a98:	f85d fb04 	ldr.w	pc, [sp], #4
 8000a9c:	2002      	movs	r0, #2
 8000a9e:	e7fa      	b.n	8000a96 <App_ThreadX_Init+0x3e>
 8000aa0:	0800914e 	.word	0x0800914e
 8000aa4:	08000a2d 	.word	0x08000a2d
 8000aa8:	200029e4 	.word	0x200029e4

08000aac <MX_ThreadX_Init>:
 8000aac:	f004 bf14 	b.w	80058d8 <_tx_initialize_kernel_enter>

08000ab0 <sync_enableSync>:
 8000ab0:	2201      	movs	r2, #1
 8000ab2:	2140      	movs	r1, #64	@ 0x40
 8000ab4:	4801      	ldr	r0, [pc, #4]	@ (8000abc <sync_enableSync+0xc>)
 8000ab6:	f001 bd6f 	b.w	8002598 <HAL_GPIO_WritePin>
 8000aba:	bf00      	nop
 8000abc:	42020c00 	.word	0x42020c00

08000ac0 <sync_disableSync>:
 8000ac0:	2200      	movs	r2, #0
 8000ac2:	2140      	movs	r1, #64	@ 0x40
 8000ac4:	4801      	ldr	r0, [pc, #4]	@ (8000acc <sync_disableSync+0xc>)
 8000ac6:	f001 bd67 	b.w	8002598 <HAL_GPIO_WritePin>
 8000aca:	bf00      	nop
 8000acc:	42020c00 	.word	0x42020c00

08000ad0 <sync_start>:
 8000ad0:	b508      	push	{r3, lr}
 8000ad2:	f7ff ffed 	bl	8000ab0 <sync_enableSync>
 8000ad6:	2001      	movs	r0, #1
 8000ad8:	f000 fbb0 	bl	800123c <HAL_Delay>
 8000adc:	e8bd 4008 	ldmia.w	sp!, {r3, lr}
 8000ae0:	f7ff bfee 	b.w	8000ac0 <sync_disableSync>

08000ae4 <sync_enableGate>:
 8000ae4:	2201      	movs	r2, #1
 8000ae6:	2180      	movs	r1, #128	@ 0x80
 8000ae8:	4801      	ldr	r0, [pc, #4]	@ (8000af0 <sync_enableGate+0xc>)
 8000aea:	f001 bd55 	b.w	8002598 <HAL_GPIO_WritePin>
 8000aee:	bf00      	nop
 8000af0:	42020c00 	.word	0x42020c00

08000af4 <sync_settings>:
 8000af4:	b570      	push	{r4, r5, r6, lr}
 8000af6:	4604      	mov	r4, r0
 8000af8:	2508      	movs	r5, #8
 8000afa:	4e11      	ldr	r6, [pc, #68]	@ (8000b40 <sync_settings+0x4c>)
 8000afc:	2200      	movs	r2, #0
 8000afe:	2120      	movs	r1, #32
 8000b00:	480f      	ldr	r0, [pc, #60]	@ (8000b40 <sync_settings+0x4c>)
 8000b02:	f001 fd49 	bl	8002598 <HAL_GPIO_WritePin>
 8000b06:	2001      	movs	r0, #1
 8000b08:	f000 fb98 	bl	800123c <HAL_Delay>
 8000b0c:	0623      	lsls	r3, r4, #24
 8000b0e:	bf4c      	ite	mi
 8000b10:	2201      	movmi	r2, #1
 8000b12:	2200      	movpl	r2, #0
 8000b14:	2110      	movs	r1, #16
 8000b16:	4630      	mov	r0, r6
 8000b18:	f001 fd3e 	bl	8002598 <HAL_GPIO_WritePin>
 8000b1c:	2001      	movs	r0, #1
 8000b1e:	f000 fb8d 	bl	800123c <HAL_Delay>
 8000b22:	2201      	movs	r2, #1
 8000b24:	2120      	movs	r1, #32
 8000b26:	4630      	mov	r0, r6
 8000b28:	f001 fd36 	bl	8002598 <HAL_GPIO_WritePin>
 8000b2c:	3d01      	subs	r5, #1
 8000b2e:	2001      	movs	r0, #1
 8000b30:	f000 fb84 	bl	800123c <HAL_Delay>
 8000b34:	0064      	lsls	r4, r4, #1
 8000b36:	f015 05ff 	ands.w	r5, r5, #255	@ 0xff
 8000b3a:	b2e4      	uxtb	r4, r4
 8000b3c:	d1de      	bne.n	8000afc <sync_settings+0x8>
 8000b3e:	bd70      	pop	{r4, r5, r6, pc}
 8000b40:	42020c00 	.word	0x42020c00

08000b44 <MX_GPDMA1_Init>:
 8000b44:	4b0c      	ldr	r3, [pc, #48]	@ (8000b78 <MX_GPDMA1_Init+0x34>)
 8000b46:	b507      	push	{r0, r1, r2, lr}
 8000b48:	f8d3 2088 	ldr.w	r2, [r3, #136]	@ 0x88
 8000b4c:	201d      	movs	r0, #29
 8000b4e:	f042 0201 	orr.w	r2, r2, #1
 8000b52:	f8c3 2088 	str.w	r2, [r3, #136]	@ 0x88
 8000b56:	2200      	movs	r2, #0
 8000b58:	f8d3 3088 	ldr.w	r3, [r3, #136]	@ 0x88
 8000b5c:	4611      	mov	r1, r2
 8000b5e:	f003 0301 	and.w	r3, r3, #1
 8000b62:	9301      	str	r3, [sp, #4]
 8000b64:	9b01      	ldr	r3, [sp, #4]
 8000b66:	f001 f901 	bl	8001d6c <HAL_NVIC_SetPriority>
 8000b6a:	201d      	movs	r0, #29
 8000b6c:	b003      	add	sp, #12
 8000b6e:	f85d eb04 	ldr.w	lr, [sp], #4
 8000b72:	f001 b92b 	b.w	8001dcc <HAL_NVIC_EnableIRQ>
 8000b76:	bf00      	nop
 8000b78:	46020c00 	.word	0x46020c00

08000b7c <MX_GPIO_Init>:
 8000b7c:	2214      	movs	r2, #20
 8000b7e:	e92d 43f0 	stmdb	sp!, {r4, r5, r6, r7, r8, r9, lr}
 8000b82:	b08b      	sub	sp, #44	@ 0x2c
 8000b84:	eb0d 0002 	add.w	r0, sp, r2
 8000b88:	2100      	movs	r1, #0
 8000b8a:	f008 fa95 	bl	80090b8 <memset>
 8000b8e:	4b4e      	ldr	r3, [pc, #312]	@ (8000cc8 <MX_GPIO_Init+0x14c>)
 8000b90:	4d4e      	ldr	r5, [pc, #312]	@ (8000ccc <MX_GPIO_Init+0x150>)
 8000b92:	f8d3 208c 	ldr.w	r2, [r3, #140]	@ 0x8c
 8000b96:	f8df 8140 	ldr.w	r8, [pc, #320]	@ 8000cd8 <MX_GPIO_Init+0x15c>
 8000b9a:	f042 0204 	orr.w	r2, r2, #4
 8000b9e:	f8c3 208c 	str.w	r2, [r3, #140]	@ 0x8c
 8000ba2:	f8d3 208c 	ldr.w	r2, [r3, #140]	@ 0x8c
 8000ba6:	4e4a      	ldr	r6, [pc, #296]	@ (8000cd0 <MX_GPIO_Init+0x154>)
 8000ba8:	f002 0204 	and.w	r2, r2, #4
 8000bac:	9200      	str	r2, [sp, #0]
 8000bae:	9a00      	ldr	r2, [sp, #0]
 8000bb0:	f8d3 208c 	ldr.w	r2, [r3, #140]	@ 0x8c
 8000bb4:	4628      	mov	r0, r5
 8000bb6:	f042 0280 	orr.w	r2, r2, #128	@ 0x80
 8000bba:	f8c3 208c 	str.w	r2, [r3, #140]	@ 0x8c
 8000bbe:	f8d3 208c 	ldr.w	r2, [r3, #140]	@ 0x8c
 8000bc2:	210c      	movs	r1, #12
 8000bc4:	f002 0280 	and.w	r2, r2, #128	@ 0x80
 8000bc8:	9201      	str	r2, [sp, #4]
 8000bca:	9a01      	ldr	r2, [sp, #4]
 8000bcc:	f8d3 208c 	ldr.w	r2, [r3, #140]	@ 0x8c
 8000bd0:	2400      	movs	r4, #0
 8000bd2:	f042 0201 	orr.w	r2, r2, #1
 8000bd6:	f8c3 208c 	str.w	r2, [r3, #140]	@ 0x8c
 8000bda:	f8d3 208c 	ldr.w	r2, [r3, #140]	@ 0x8c
 8000bde:	f8df 90fc 	ldr.w	r9, [pc, #252]	@ 8000cdc <MX_GPIO_Init+0x160>
 8000be2:	f002 0201 	and.w	r2, r2, #1
 8000be6:	9202      	str	r2, [sp, #8]
 8000be8:	9a02      	ldr	r2, [sp, #8]
 8000bea:	f8d3 208c 	ldr.w	r2, [r3, #140]	@ 0x8c
 8000bee:	2701      	movs	r7, #1
 8000bf0:	f042 0210 	orr.w	r2, r2, #16
 8000bf4:	f8c3 208c 	str.w	r2, [r3, #140]	@ 0x8c
 8000bf8:	f8d3 208c 	ldr.w	r2, [r3, #140]	@ 0x8c
 8000bfc:	f002 0210 	and.w	r2, r2, #16
 8000c00:	9203      	str	r2, [sp, #12]
 8000c02:	9a03      	ldr	r2, [sp, #12]
 8000c04:	f8d3 208c 	ldr.w	r2, [r3, #140]	@ 0x8c
 8000c08:	f042 0208 	orr.w	r2, r2, #8
 8000c0c:	f8c3 208c 	str.w	r2, [r3, #140]	@ 0x8c
 8000c10:	f8d3 308c 	ldr.w	r3, [r3, #140]	@ 0x8c
 8000c14:	2200      	movs	r2, #0
 8000c16:	f003 0308 	and.w	r3, r3, #8
 8000c1a:	9304      	str	r3, [sp, #16]
 8000c1c:	9b04      	ldr	r3, [sp, #16]
 8000c1e:	f001 fcbb 	bl	8002598 <HAL_GPIO_WritePin>
 8000c22:	4640      	mov	r0, r8
 8000c24:	2200      	movs	r2, #0
 8000c26:	2103      	movs	r1, #3
 8000c28:	f001 fcb6 	bl	8002598 <HAL_GPIO_WritePin>
 8000c2c:	2200      	movs	r2, #0
 8000c2e:	4630      	mov	r0, r6
 8000c30:	21f0      	movs	r1, #240	@ 0xf0
 8000c32:	f001 fcb1 	bl	8002598 <HAL_GPIO_WritePin>
 8000c36:	f44f 4380 	mov.w	r3, #16384	@ 0x4000
 8000c3a:	4628      	mov	r0, r5
 8000c3c:	a905      	add	r1, sp, #20
 8000c3e:	e9cd 3405 	strd	r3, r4, [sp, #20]
 8000c42:	9407      	str	r4, [sp, #28]
 8000c44:	f001 fb9e 	bl	8002384 <HAL_GPIO_Init>
 8000c48:	f44f 4300 	mov.w	r3, #32768	@ 0x8000
 8000c4c:	4628      	mov	r0, r5
 8000c4e:	a905      	add	r1, sp, #20
 8000c50:	e9cd 3905 	strd	r3, r9, [sp, #20]
 8000c54:	9407      	str	r4, [sp, #28]
 8000c56:	f001 fb95 	bl	8002384 <HAL_GPIO_Init>
 8000c5a:	230c      	movs	r3, #12
 8000c5c:	4628      	mov	r0, r5
 8000c5e:	a905      	add	r1, sp, #20
 8000c60:	e9cd 3705 	strd	r3, r7, [sp, #20]
 8000c64:	e9cd 4407 	strd	r4, r4, [sp, #28]
 8000c68:	f001 fb8c 	bl	8002384 <HAL_GPIO_Init>
 8000c6c:	2303      	movs	r3, #3
 8000c6e:	4640      	mov	r0, r8
 8000c70:	a905      	add	r1, sp, #20
 8000c72:	e9cd 3705 	strd	r3, r7, [sp, #20]
 8000c76:	e9cd 4407 	strd	r4, r4, [sp, #28]
 8000c7a:	f001 fb83 	bl	8002384 <HAL_GPIO_Init>
 8000c7e:	2304      	movs	r3, #4
 8000c80:	4640      	mov	r0, r8
 8000c82:	a905      	add	r1, sp, #20
 8000c84:	e9cd 3405 	strd	r3, r4, [sp, #20]
 8000c88:	9407      	str	r4, [sp, #28]
 8000c8a:	f001 fb7b 	bl	8002384 <HAL_GPIO_Init>
 8000c8e:	f44f 6300 	mov.w	r3, #2048	@ 0x800
 8000c92:	a905      	add	r1, sp, #20
 8000c94:	480f      	ldr	r0, [pc, #60]	@ (8000cd4 <MX_GPIO_Init+0x158>)
 8000c96:	e9cd 3905 	strd	r3, r9, [sp, #20]
 8000c9a:	9407      	str	r4, [sp, #28]
 8000c9c:	f001 fb72 	bl	8002384 <HAL_GPIO_Init>
 8000ca0:	230f      	movs	r3, #15
 8000ca2:	4630      	mov	r0, r6
 8000ca4:	a905      	add	r1, sp, #20
 8000ca6:	e9cd 3405 	strd	r3, r4, [sp, #20]
 8000caa:	9407      	str	r4, [sp, #28]
 8000cac:	f001 fb6a 	bl	8002384 <HAL_GPIO_Init>
 8000cb0:	23f0      	movs	r3, #240	@ 0xf0
 8000cb2:	4630      	mov	r0, r6
 8000cb4:	a905      	add	r1, sp, #20
 8000cb6:	e9cd 3705 	strd	r3, r7, [sp, #20]
 8000cba:	e9cd 4407 	strd	r4, r4, [sp, #28]
 8000cbe:	f001 fb61 	bl	8002384 <HAL_GPIO_Init>
 8000cc2:	b00b      	add	sp, #44	@ 0x2c
 8000cc4:	e8bd 83f0 	ldmia.w	sp!, {r4, r5, r6, r7, r8, r9, pc}
 8000cc8:	46020c00 	.word	0x46020c00
 8000ccc:	42020800 	.word	0x42020800
 8000cd0:	42020c00 	.word	0x42020c00
 8000cd4:	42021000 	.word	0x42021000
 8000cd8:	42020000 	.word	0x42020000
 8000cdc:	10110000 	.word	0x10110000

08000ce0 <MX_ICACHE_Init>:
 8000ce0:	b508      	push	{r3, lr}
 8000ce2:	2000      	movs	r0, #0
 8000ce4:	f001 fc5e 	bl	80025a4 <HAL_ICACHE_ConfigAssociativityMode>
 8000ce8:	b108      	cbz	r0, 8000cee <MX_ICACHE_Init+0xe>
 8000cea:	f000 f881 	bl	8000df0 <Error_Handler>
 8000cee:	f001 fc69 	bl	80025c4 <HAL_ICACHE_Enable>
 8000cf2:	b118      	cbz	r0, 8000cfc <MX_ICACHE_Init+0x1c>
 8000cf4:	e8bd 4008 	ldmia.w	sp!, {r3, lr}
 8000cf8:	f000 b87a 	b.w	8000df0 <Error_Handler>
 8000cfc:	bd08      	pop	{r3, pc}

08000cfe <SystemClock_Config>:
 8000cfe:	b530      	push	{r4, r5, lr}
 8000d00:	b09f      	sub	sp, #124	@ 0x7c
 8000d02:	2260      	movs	r2, #96	@ 0x60
 8000d04:	2100      	movs	r1, #0
 8000d06:	a806      	add	r0, sp, #24
 8000d08:	f008 f9d6 	bl	80090b8 <memset>
 8000d0c:	2218      	movs	r2, #24
 8000d0e:	2100      	movs	r1, #0
 8000d10:	4668      	mov	r0, sp
 8000d12:	f008 f9d1 	bl	80090b8 <memset>
 8000d16:	f44f 3080 	mov.w	r0, #65536	@ 0x10000
 8000d1a:	f002 fa03 	bl	8003124 <HAL_PWREx_ControlVoltageScaling>
 8000d1e:	b108      	cbz	r0, 8000d24 <SystemClock_Config+0x26>
 8000d20:	b672      	cpsid	i
 8000d22:	e7fe      	b.n	8000d22 <SystemClock_Config+0x24>
 8000d24:	2221      	movs	r2, #33	@ 0x21
 8000d26:	f44f 13a8 	mov.w	r3, #1376256	@ 0x150000
 8000d2a:	e9cd 2306 	strd	r2, r3, [sp, #24]
 8000d2e:	f44f 5380 	mov.w	r3, #4096	@ 0x1000
 8000d32:	f44f 5100 	mov.w	r1, #8192	@ 0x2000
 8000d36:	9311      	str	r3, [sp, #68]	@ 0x44
 8000d38:	2304      	movs	r3, #4
 8000d3a:	e9cd 3116 	strd	r3, r1, [sp, #88]	@ 0x58
 8000d3e:	e9cd 331a 	strd	r3, r3, [sp, #104]	@ 0x68
 8000d42:	230c      	movs	r3, #12
 8000d44:	2402      	movs	r4, #2
 8000d46:	2503      	movs	r5, #3
 8000d48:	2210      	movs	r2, #16
 8000d4a:	e9cd 301c 	strd	r3, r0, [sp, #112]	@ 0x70
 8000d4e:	a806      	add	r0, sp, #24
 8000d50:	e9cd 4514 	strd	r4, r5, [sp, #80]	@ 0x50
 8000d54:	e9cd 2418 	strd	r2, r4, [sp, #96]	@ 0x60
 8000d58:	f002 fc7c 	bl	8003654 <HAL_RCC_OscConfig>
 8000d5c:	b108      	cbz	r0, 8000d62 <SystemClock_Config+0x64>
 8000d5e:	b672      	cpsid	i
 8000d60:	e7fe      	b.n	8000d60 <SystemClock_Config+0x62>
 8000d62:	231f      	movs	r3, #31
 8000d64:	e9cd 0002 	strd	r0, r0, [sp, #8]
 8000d68:	e9cd 0004 	strd	r0, r0, [sp, #16]
 8000d6c:	4621      	mov	r1, r4
 8000d6e:	4668      	mov	r0, sp
 8000d70:	e9cd 3500 	strd	r3, r5, [sp]
 8000d74:	f002 fb0c 	bl	8003390 <HAL_RCC_ClockConfig>
 8000d78:	b108      	cbz	r0, 8000d7e <SystemClock_Config+0x80>
 8000d7a:	b672      	cpsid	i
 8000d7c:	e7fe      	b.n	8000d7c <SystemClock_Config+0x7e>
 8000d7e:	b01f      	add	sp, #124	@ 0x7c
 8000d80:	bd30      	pop	{r4, r5, pc}

08000d82 <main>:
 8000d82:	b51f      	push	{r0, r1, r2, r3, r4, lr}
 8000d84:	f000 fa1e 	bl	80011c4 <HAL_Init>
 8000d88:	f7ff ffb9 	bl	8000cfe <SystemClock_Config>
 8000d8c:	f7ff fef6 	bl	8000b7c <MX_GPIO_Init>
 8000d90:	f7ff fed8 	bl	8000b44 <MX_GPDMA1_Init>
 8000d94:	f7ff fd92 	bl	80008bc <MX_ADC1_Init>
 8000d98:	f000 f82c 	bl	8000df4 <MX_SPI3_Init>
 8000d9c:	f000 f960 	bl	8001060 <MX_USB_OTG_FS_PCD_Init>
 8000da0:	f7ff ff9e 	bl	8000ce0 <MX_ICACHE_Init>
 8000da4:	f7ff fcd6 	bl	8000754 <ADF4351_init>
 8000da8:	2301      	movs	r3, #1
 8000daa:	2206      	movs	r2, #6
 8000dac:	e9cd 3201 	strd	r3, r2, [sp, #4]
 8000db0:	2200      	movs	r2, #0
 8000db2:	2132      	movs	r1, #50	@ 0x32
 8000db4:	2080      	movs	r0, #128	@ 0x80
 8000db6:	9200      	str	r2, [sp, #0]
 8000db8:	2264      	movs	r2, #100	@ 0x64
 8000dba:	f7ff fd03 	bl	80007c4 <ADF4351_settings>
 8000dbe:	f7ff fe91 	bl	8000ae4 <sync_enableGate>
 8000dc2:	2004      	movs	r0, #4
 8000dc4:	f7ff fe96 	bl	8000af4 <sync_settings>
 8000dc8:	f7ff fe70 	bl	8000aac <MX_ThreadX_Init>
 8000dcc:	f7ff fe80 	bl	8000ad0 <sync_start>
 8000dd0:	f241 3088 	movw	r0, #5000	@ 0x1388
 8000dd4:	f000 fa32 	bl	800123c <HAL_Delay>
 8000dd8:	e7f8      	b.n	8000dcc <main+0x4a>
	...

08000ddc <HAL_TIM_PeriodElapsedCallback>:
 8000ddc:	6802      	ldr	r2, [r0, #0]
 8000dde:	4b03      	ldr	r3, [pc, #12]	@ (8000dec <HAL_TIM_PeriodElapsedCallback+0x10>)
 8000de0:	429a      	cmp	r2, r3
 8000de2:	d101      	bne.n	8000de8 <HAL_TIM_PeriodElapsedCallback+0xc>
 8000de4:	f000 ba18 	b.w	8001218 <HAL_IncTick>
 8000de8:	4770      	bx	lr
 8000dea:	bf00      	nop
 8000dec:	40001000 	.word	0x40001000

08000df0 <Error_Handler>:
 8000df0:	b672      	cpsid	i
 8000df2:	e7fe      	b.n	8000df2 <Error_Handler+0x2>

08000df4 <MX_SPI3_Init>:
 8000df4:	b51f      	push	{r0, r1, r2, r3, r4, lr}
 8000df6:	2400      	movs	r4, #0
 8000df8:	4816      	ldr	r0, [pc, #88]	@ (8000e54 <MX_SPI3_Init+0x60>)
 8000dfa:	4b17      	ldr	r3, [pc, #92]	@ (8000e58 <MX_SPI3_Init+0x64>)
 8000dfc:	e9cd 4401 	strd	r4, r4, [sp, #4]
 8000e00:	e9c0 3400 	strd	r3, r4, [r0]
 8000e04:	2307      	movs	r3, #7
 8000e06:	e9c0 4405 	strd	r4, r4, [r0, #20]
 8000e0a:	e9c0 3403 	strd	r3, r4, [r0, #12]
 8000e0e:	e9c0 4408 	strd	r4, r4, [r0, #32]
 8000e12:	e9c0 430a 	strd	r4, r3, [r0, #40]	@ 0x28
 8000e16:	e9c0 440d 	strd	r4, r4, [r0, #52]	@ 0x34
 8000e1a:	e9c0 4412 	strd	r4, r4, [r0, #72]	@ 0x48
 8000e1e:	e9c0 4414 	strd	r4, r4, [r0, #80]	@ 0x50
 8000e22:	e9c0 4416 	strd	r4, r4, [r0, #88]	@ 0x58
 8000e26:	9403      	str	r4, [sp, #12]
 8000e28:	6084      	str	r4, [r0, #8]
 8000e2a:	63c4      	str	r4, [r0, #60]	@ 0x3c
 8000e2c:	6604      	str	r4, [r0, #96]	@ 0x60
 8000e2e:	f003 fc47 	bl	80046c0 <HAL_SPI_Init>
 8000e32:	b108      	cbz	r0, 8000e38 <MX_SPI3_Init+0x44>
 8000e34:	f7ff ffdc 	bl	8000df0 <Error_Handler>
 8000e38:	f04f 5300 	mov.w	r3, #536870912	@ 0x20000000
 8000e3c:	4805      	ldr	r0, [pc, #20]	@ (8000e54 <MX_SPI3_Init+0x60>)
 8000e3e:	a901      	add	r1, sp, #4
 8000e40:	e9cd 3402 	strd	r3, r4, [sp, #8]
 8000e44:	9401      	str	r4, [sp, #4]
 8000e46:	f003 fcdd 	bl	8004804 <HAL_SPIEx_SetConfigAutonomousMode>
 8000e4a:	b108      	cbz	r0, 8000e50 <MX_SPI3_Init+0x5c>
 8000e4c:	f7ff ffd0 	bl	8000df0 <Error_Handler>
 8000e50:	b004      	add	sp, #16
 8000e52:	bd10      	pop	{r4, pc}
 8000e54:	20002a94 	.word	0x20002a94
 8000e58:	46002000 	.word	0x46002000

08000e5c <HAL_SPI_MspInit>:
 8000e5c:	b570      	push	{r4, r5, r6, lr}
 8000e5e:	4604      	mov	r4, r0
 8000e60:	b0b8      	sub	sp, #224	@ 0xe0
 8000e62:	2214      	movs	r2, #20
 8000e64:	2100      	movs	r1, #0
 8000e66:	a803      	add	r0, sp, #12
 8000e68:	f008 f926 	bl	80090b8 <memset>
 8000e6c:	22c0      	movs	r2, #192	@ 0xc0
 8000e6e:	2100      	movs	r1, #0
 8000e70:	a808      	add	r0, sp, #32
 8000e72:	f008 f921 	bl	80090b8 <memset>
 8000e76:	6822      	ldr	r2, [r4, #0]
 8000e78:	4b27      	ldr	r3, [pc, #156]	@ (8000f18 <HAL_SPI_MspInit+0xbc>)
 8000e7a:	429a      	cmp	r2, r3
 8000e7c:	d14a      	bne.n	8000f14 <HAL_SPI_MspInit+0xb8>
 8000e7e:	2300      	movs	r3, #0
 8000e80:	f04f 7200 	mov.w	r2, #33554432	@ 0x2000000
 8000e84:	e9cd 2308 	strd	r2, r3, [sp, #32]
 8000e88:	2308      	movs	r3, #8
 8000e8a:	a808      	add	r0, sp, #32
 8000e8c:	9336      	str	r3, [sp, #216]	@ 0xd8
 8000e8e:	f003 f947 	bl	8004120 <HAL_RCCEx_PeriphCLKConfig>
 8000e92:	b108      	cbz	r0, 8000e98 <HAL_SPI_MspInit+0x3c>
 8000e94:	f7ff ffac 	bl	8000df0 <Error_Handler>
 8000e98:	4b20      	ldr	r3, [pc, #128]	@ (8000f1c <HAL_SPI_MspInit+0xc0>)
 8000e9a:	2602      	movs	r6, #2
 8000e9c:	f8d3 20a8 	ldr.w	r2, [r3, #168]	@ 0xa8
 8000ea0:	2400      	movs	r4, #0
 8000ea2:	f042 0220 	orr.w	r2, r2, #32
 8000ea6:	f8c3 20a8 	str.w	r2, [r3, #168]	@ 0xa8
 8000eaa:	f8d3 20a8 	ldr.w	r2, [r3, #168]	@ 0xa8
 8000eae:	2506      	movs	r5, #6
 8000eb0:	f002 0220 	and.w	r2, r2, #32
 8000eb4:	9200      	str	r2, [sp, #0]
 8000eb6:	9a00      	ldr	r2, [sp, #0]
 8000eb8:	f8d3 208c 	ldr.w	r2, [r3, #140]	@ 0x8c
 8000ebc:	4818      	ldr	r0, [pc, #96]	@ (8000f20 <HAL_SPI_MspInit+0xc4>)
 8000ebe:	f042 0201 	orr.w	r2, r2, #1
 8000ec2:	f8c3 208c 	str.w	r2, [r3, #140]	@ 0x8c
 8000ec6:	f8d3 208c 	ldr.w	r2, [r3, #140]	@ 0x8c
 8000eca:	a903      	add	r1, sp, #12
 8000ecc:	f002 0201 	and.w	r2, r2, #1
 8000ed0:	9201      	str	r2, [sp, #4]
 8000ed2:	9a01      	ldr	r2, [sp, #4]
 8000ed4:	f8d3 208c 	ldr.w	r2, [r3, #140]	@ 0x8c
 8000ed8:	f042 0204 	orr.w	r2, r2, #4
 8000edc:	f8c3 208c 	str.w	r2, [r3, #140]	@ 0x8c
 8000ee0:	f8d3 308c 	ldr.w	r3, [r3, #140]	@ 0x8c
 8000ee4:	e9cd 4405 	strd	r4, r4, [sp, #20]
 8000ee8:	f003 0304 	and.w	r3, r3, #4
 8000eec:	9302      	str	r3, [sp, #8]
 8000eee:	9b02      	ldr	r3, [sp, #8]
 8000ef0:	f44f 4300 	mov.w	r3, #32768	@ 0x8000
 8000ef4:	9507      	str	r5, [sp, #28]
 8000ef6:	e9cd 3603 	strd	r3, r6, [sp, #12]
 8000efa:	f001 fa43 	bl	8002384 <HAL_GPIO_Init>
 8000efe:	f44f 53e0 	mov.w	r3, #7168	@ 0x1c00
 8000f02:	4808      	ldr	r0, [pc, #32]	@ (8000f24 <HAL_SPI_MspInit+0xc8>)
 8000f04:	a903      	add	r1, sp, #12
 8000f06:	e9cd 3603 	strd	r3, r6, [sp, #12]
 8000f0a:	e9cd 4405 	strd	r4, r4, [sp, #20]
 8000f0e:	9507      	str	r5, [sp, #28]
 8000f10:	f001 fa38 	bl	8002384 <HAL_GPIO_Init>
 8000f14:	b038      	add	sp, #224	@ 0xe0
 8000f16:	bd70      	pop	{r4, r5, r6, pc}
 8000f18:	46002000 	.word	0x46002000
 8000f1c:	46020c00 	.word	0x46020c00
 8000f20:	42020000 	.word	0x42020000
 8000f24:	42020800 	.word	0x42020800

08000f28 <HAL_MspInit>:
 8000f28:	4b0a      	ldr	r3, [pc, #40]	@ (8000f54 <HAL_MspInit+0x2c>)
 8000f2a:	b507      	push	{r0, r1, r2, lr}
 8000f2c:	f8d3 2094 	ldr.w	r2, [r3, #148]	@ 0x94
 8000f30:	f042 0204 	orr.w	r2, r2, #4
 8000f34:	f8c3 2094 	str.w	r2, [r3, #148]	@ 0x94
 8000f38:	f8d3 3094 	ldr.w	r3, [r3, #148]	@ 0x94
 8000f3c:	f003 0304 	and.w	r3, r3, #4
 8000f40:	9301      	str	r3, [sp, #4]
 8000f42:	9b01      	ldr	r3, [sp, #4]
 8000f44:	f002 f936 	bl	80031b4 <HAL_PWREx_EnableVddUSB>
 8000f48:	b003      	add	sp, #12
 8000f4a:	f85d eb04 	ldr.w	lr, [sp], #4
 8000f4e:	f002 b939 	b.w	80031c4 <HAL_PWREx_EnableVddA>
 8000f52:	bf00      	nop
 8000f54:	46020c00 	.word	0x46020c00

08000f58 <HAL_InitTick>:
 8000f58:	b570      	push	{r4, r5, r6, lr}
 8000f5a:	4b1f      	ldr	r3, [pc, #124]	@ (8000fd8 <HAL_InitTick+0x80>)
 8000f5c:	b088      	sub	sp, #32
 8000f5e:	f8d3 209c 	ldr.w	r2, [r3, #156]	@ 0x9c
 8000f62:	4669      	mov	r1, sp
 8000f64:	f042 0210 	orr.w	r2, r2, #16
 8000f68:	f8c3 209c 	str.w	r2, [r3, #156]	@ 0x9c
 8000f6c:	f8d3 309c 	ldr.w	r3, [r3, #156]	@ 0x9c
 8000f70:	4606      	mov	r6, r0
 8000f72:	f003 0310 	and.w	r3, r3, #16
 8000f76:	9301      	str	r3, [sp, #4]
 8000f78:	a802      	add	r0, sp, #8
 8000f7a:	4d18      	ldr	r5, [pc, #96]	@ (8000fdc <HAL_InitTick+0x84>)
 8000f7c:	9b01      	ldr	r3, [sp, #4]
 8000f7e:	f002 ffd9 	bl	8003f34 <HAL_RCC_GetClockConfig>
 8000f82:	f002 ffc7 	bl	8003f14 <HAL_RCC_GetPCLK1Freq>
 8000f86:	4b16      	ldr	r3, [pc, #88]	@ (8000fe0 <HAL_InitTick+0x88>)
 8000f88:	602b      	str	r3, [r5, #0]
 8000f8a:	f240 33e7 	movw	r3, #999	@ 0x3e7
 8000f8e:	60eb      	str	r3, [r5, #12]
 8000f90:	4b14      	ldr	r3, [pc, #80]	@ (8000fe4 <HAL_InitTick+0x8c>)
 8000f92:	fbb0 f0f3 	udiv	r0, r0, r3
 8000f96:	2300      	movs	r3, #0
 8000f98:	3801      	subs	r0, #1
 8000f9a:	6068      	str	r0, [r5, #4]
 8000f9c:	4628      	mov	r0, r5
 8000f9e:	612b      	str	r3, [r5, #16]
 8000fa0:	60ab      	str	r3, [r5, #8]
 8000fa2:	f003 fe0f 	bl	8004bc4 <HAL_TIM_Base_Init>
 8000fa6:	4604      	mov	r4, r0
 8000fa8:	b968      	cbnz	r0, 8000fc6 <HAL_InitTick+0x6e>
 8000faa:	4628      	mov	r0, r5
 8000fac:	f003 fc4e 	bl	800484c <HAL_TIM_Base_Start_IT>
 8000fb0:	4604      	mov	r4, r0
 8000fb2:	b940      	cbnz	r0, 8000fc6 <HAL_InitTick+0x6e>
 8000fb4:	2e0f      	cmp	r6, #15
 8000fb6:	d80c      	bhi.n	8000fd2 <HAL_InitTick+0x7a>
 8000fb8:	4602      	mov	r2, r0
 8000fba:	4631      	mov	r1, r6
 8000fbc:	2031      	movs	r0, #49	@ 0x31
 8000fbe:	f000 fed5 	bl	8001d6c <HAL_NVIC_SetPriority>
 8000fc2:	4b09      	ldr	r3, [pc, #36]	@ (8000fe8 <HAL_InitTick+0x90>)
 8000fc4:	601e      	str	r6, [r3, #0]
 8000fc6:	2031      	movs	r0, #49	@ 0x31
 8000fc8:	f000 ff00 	bl	8001dcc <HAL_NVIC_EnableIRQ>
 8000fcc:	4620      	mov	r0, r4
 8000fce:	b008      	add	sp, #32
 8000fd0:	bd70      	pop	{r4, r5, r6, pc}
 8000fd2:	2401      	movs	r4, #1
 8000fd4:	e7f7      	b.n	8000fc6 <HAL_InitTick+0x6e>
 8000fd6:	bf00      	nop
 8000fd8:	46020c00 	.word	0x46020c00
 8000fdc:	20002b24 	.word	0x20002b24
 8000fe0:	40001000 	.word	0x40001000
 8000fe4:	000f4240 	.word	0x000f4240
 8000fe8:	20000008 	.word	0x20000008

08000fec <NMI_Handler>:
 8000fec:	e7fe      	b.n	8000fec <NMI_Handler>

08000fee <HardFault_Handler>:
 8000fee:	e7fe      	b.n	8000fee <HardFault_Handler>

08000ff0 <MemManage_Handler>:
 8000ff0:	e7fe      	b.n	8000ff0 <MemManage_Handler>

08000ff2 <BusFault_Handler>:
 8000ff2:	e7fe      	b.n	8000ff2 <BusFault_Handler>

08000ff4 <UsageFault_Handler>:
 8000ff4:	e7fe      	b.n	8000ff4 <UsageFault_Handler>

08000ff6 <DebugMon_Handler>:
 8000ff6:	4770      	bx	lr

08000ff8 <GPDMA1_Channel0_IRQHandler>:
 8000ff8:	4801      	ldr	r0, [pc, #4]	@ (8001000 <GPDMA1_Channel0_IRQHandler+0x8>)
 8000ffa:	f001 b8e5 	b.w	80021c8 <HAL_DMA_IRQHandler>
 8000ffe:	bf00      	nop
 8001000:	200028e0 	.word	0x200028e0

08001004 <TIM6_IRQHandler>:
 8001004:	4801      	ldr	r0, [pc, #4]	@ (800100c <TIM6_IRQHandler+0x8>)
 8001006:	f003 bc7f 	b.w	8004908 <HAL_TIM_IRQHandler>
 800100a:	bf00      	nop
 800100c:	20002b24 	.word	0x20002b24

08001010 <OTG_FS_IRQHandler>:
 8001010:	4801      	ldr	r0, [pc, #4]	@ (8001018 <OTG_FS_IRQHandler+0x8>)
 8001012:	f001 bccf 	b.w	80029b4 <HAL_PCD_IRQHandler>
 8001016:	bf00      	nop
 8001018:	20002b70 	.word	0x20002b70

0800101c <SystemInit>:
 800101c:	2201      	movs	r2, #1
 800101e:	480e      	ldr	r0, [pc, #56]	@ (8001058 <SystemInit+0x3c>)
 8001020:	f8d0 3088 	ldr.w	r3, [r0, #136]	@ 0x88
 8001024:	f443 0370 	orr.w	r3, r3, #15728640	@ 0xf00000
 8001028:	f8c0 3088 	str.w	r3, [r0, #136]	@ 0x88
 800102c:	4b0b      	ldr	r3, [pc, #44]	@ (800105c <SystemInit+0x40>)
 800102e:	601a      	str	r2, [r3, #0]
 8001030:	2200      	movs	r2, #0
 8001032:	61da      	str	r2, [r3, #28]
 8001034:	621a      	str	r2, [r3, #32]
 8001036:	625a      	str	r2, [r3, #36]	@ 0x24
 8001038:	6819      	ldr	r1, [r3, #0]
 800103a:	f021 51a8 	bic.w	r1, r1, #352321536	@ 0x15000000
 800103e:	f421 2110 	bic.w	r1, r1, #589824	@ 0x90000
 8001042:	6019      	str	r1, [r3, #0]
 8001044:	629a      	str	r2, [r3, #40]	@ 0x28
 8001046:	6819      	ldr	r1, [r3, #0]
 8001048:	f421 2180 	bic.w	r1, r1, #262144	@ 0x40000
 800104c:	6019      	str	r1, [r3, #0]
 800104e:	651a      	str	r2, [r3, #80]	@ 0x50
 8001050:	f04f 6300 	mov.w	r3, #134217728	@ 0x8000000
 8001054:	6083      	str	r3, [r0, #8]
 8001056:	4770      	bx	lr
 8001058:	e000ed00 	.word	0xe000ed00
 800105c:	46020c00 	.word	0x46020c00

08001060 <MX_USB_OTG_FS_PCD_Init>:
 8001060:	b508      	push	{r3, lr}
 8001062:	480a      	ldr	r0, [pc, #40]	@ (800108c <MX_USB_OTG_FS_PCD_Init+0x2c>)
 8001064:	4b0a      	ldr	r3, [pc, #40]	@ (8001090 <MX_USB_OTG_FS_PCD_Init+0x30>)
 8001066:	6003      	str	r3, [r0, #0]
 8001068:	2306      	movs	r3, #6
 800106a:	7103      	strb	r3, [r0, #4]
 800106c:	2302      	movs	r3, #2
 800106e:	7243      	strb	r3, [r0, #9]
 8001070:	2300      	movs	r3, #0
 8001072:	8143      	strh	r3, [r0, #10]
 8001074:	60c3      	str	r3, [r0, #12]
 8001076:	f44f 7300 	mov.w	r3, #512	@ 0x200
 800107a:	80c3      	strh	r3, [r0, #6]
 800107c:	f001 faac 	bl	80025d8 <HAL_PCD_Init>
 8001080:	b118      	cbz	r0, 800108a <MX_USB_OTG_FS_PCD_Init+0x2a>
 8001082:	e8bd 4008 	ldmia.w	sp!, {r3, lr}
 8001086:	f7ff beb3 	b.w	8000df0 <Error_Handler>
 800108a:	bd08      	pop	{r3, pc}
 800108c:	20002b70 	.word	0x20002b70
 8001090:	42040000 	.word	0x42040000

08001094 <HAL_PCD_MspInit>:
 8001094:	b510      	push	{r4, lr}
 8001096:	4604      	mov	r4, r0
 8001098:	b0b8      	sub	sp, #224	@ 0xe0
 800109a:	2214      	movs	r2, #20
 800109c:	2100      	movs	r1, #0
 800109e:	a803      	add	r0, sp, #12
 80010a0:	f008 f80a 	bl	80090b8 <memset>
 80010a4:	22c0      	movs	r2, #192	@ 0xc0
 80010a6:	2100      	movs	r1, #0
 80010a8:	a808      	add	r0, sp, #32
 80010aa:	f008 f805 	bl	80090b8 <memset>
 80010ae:	6822      	ldr	r2, [r4, #0]
 80010b0:	4b2c      	ldr	r3, [pc, #176]	@ (8001164 <HAL_PCD_MspInit+0xd0>)
 80010b2:	429a      	cmp	r2, r3
 80010b4:	d151      	bne.n	800115a <HAL_PCD_MspInit+0xc6>
 80010b6:	f44f 1280 	mov.w	r2, #1048576	@ 0x100000
 80010ba:	2300      	movs	r3, #0
 80010bc:	a808      	add	r0, sp, #32
 80010be:	e9cd 2308 	strd	r2, r3, [sp, #32]
 80010c2:	f003 f82d 	bl	8004120 <HAL_RCCEx_PeriphCLKConfig>
 80010c6:	b108      	cbz	r0, 80010cc <HAL_PCD_MspInit+0x38>
 80010c8:	f7ff fe92 	bl	8000df0 <Error_Handler>
 80010cc:	4c26      	ldr	r4, [pc, #152]	@ (8001168 <HAL_PCD_MspInit+0xd4>)
 80010ce:	f44f 52c0 	mov.w	r2, #6144	@ 0x1800
 80010d2:	f8d4 308c 	ldr.w	r3, [r4, #140]	@ 0x8c
 80010d6:	a903      	add	r1, sp, #12
 80010d8:	f043 0301 	orr.w	r3, r3, #1
 80010dc:	f8c4 308c 	str.w	r3, [r4, #140]	@ 0x8c
 80010e0:	f8d4 308c 	ldr.w	r3, [r4, #140]	@ 0x8c
 80010e4:	4821      	ldr	r0, [pc, #132]	@ (800116c <HAL_PCD_MspInit+0xd8>)
 80010e6:	f003 0301 	and.w	r3, r3, #1
 80010ea:	9300      	str	r3, [sp, #0]
 80010ec:	9b00      	ldr	r3, [sp, #0]
 80010ee:	2302      	movs	r3, #2
 80010f0:	e9cd 2303 	strd	r2, r3, [sp, #12]
 80010f4:	2300      	movs	r3, #0
 80010f6:	e9cd 3305 	strd	r3, r3, [sp, #20]
 80010fa:	230a      	movs	r3, #10
 80010fc:	9307      	str	r3, [sp, #28]
 80010fe:	f001 f941 	bl	8002384 <HAL_GPIO_Init>
 8001102:	f8d4 308c 	ldr.w	r3, [r4, #140]	@ 0x8c
 8001106:	f443 4380 	orr.w	r3, r3, #16384	@ 0x4000
 800110a:	f8c4 308c 	str.w	r3, [r4, #140]	@ 0x8c
 800110e:	f8d4 308c 	ldr.w	r3, [r4, #140]	@ 0x8c
 8001112:	f403 4380 	and.w	r3, r3, #16384	@ 0x4000
 8001116:	9301      	str	r3, [sp, #4]
 8001118:	9b01      	ldr	r3, [sp, #4]
 800111a:	f8d4 3094 	ldr.w	r3, [r4, #148]	@ 0x94
 800111e:	0759      	lsls	r1, r3, #29
 8001120:	d41d      	bmi.n	800115e <HAL_PCD_MspInit+0xca>
 8001122:	f8d4 3094 	ldr.w	r3, [r4, #148]	@ 0x94
 8001126:	f043 0304 	orr.w	r3, r3, #4
 800112a:	f8c4 3094 	str.w	r3, [r4, #148]	@ 0x94
 800112e:	f8d4 3094 	ldr.w	r3, [r4, #148]	@ 0x94
 8001132:	f003 0304 	and.w	r3, r3, #4
 8001136:	9302      	str	r3, [sp, #8]
 8001138:	9b02      	ldr	r3, [sp, #8]
 800113a:	f002 f83b 	bl	80031b4 <HAL_PWREx_EnableVddUSB>
 800113e:	f8d4 3094 	ldr.w	r3, [r4, #148]	@ 0x94
 8001142:	f023 0304 	bic.w	r3, r3, #4
 8001146:	f8c4 3094 	str.w	r3, [r4, #148]	@ 0x94
 800114a:	2200      	movs	r2, #0
 800114c:	2049      	movs	r0, #73	@ 0x49
 800114e:	4611      	mov	r1, r2
 8001150:	f000 fe0c 	bl	8001d6c <HAL_NVIC_SetPriority>
 8001154:	2049      	movs	r0, #73	@ 0x49
 8001156:	f000 fe39 	bl	8001dcc <HAL_NVIC_EnableIRQ>
 800115a:	b038      	add	sp, #224	@ 0xe0
 800115c:	bd10      	pop	{r4, pc}
 800115e:	f002 f829 	bl	80031b4 <HAL_PWREx_EnableVddUSB>
 8001162:	e7f2      	b.n	800114a <HAL_PCD_MspInit+0xb6>
 8001164:	42040000 	.word	0x42040000
 8001168:	46020c00 	.word	0x46020c00
 800116c:	42020000 	.word	0x42020000

08001170 <Reset_Handler>:
 8001170:	f8df d034 	ldr.w	sp, [pc, #52]	@ 80011a8 <LoopForever+0x2>
 8001174:	f7ff ff52 	bl	800101c <SystemInit>
 8001178:	2100      	movs	r1, #0
 800117a:	e003      	b.n	8001184 <LoopCopyDataInit>

0800117c <CopyDataInit>:
 800117c:	4b0b      	ldr	r3, [pc, #44]	@ (80011ac <LoopForever+0x6>)
 800117e:	585b      	ldr	r3, [r3, r1]
 8001180:	5043      	str	r3, [r0, r1]
 8001182:	3104      	adds	r1, #4

08001184 <LoopCopyDataInit>:
 8001184:	480a      	ldr	r0, [pc, #40]	@ (80011b0 <LoopForever+0xa>)
 8001186:	4b0b      	ldr	r3, [pc, #44]	@ (80011b4 <LoopForever+0xe>)
 8001188:	1842      	adds	r2, r0, r1
 800118a:	429a      	cmp	r2, r3
 800118c:	d3f6      	bcc.n	800117c <CopyDataInit>
 800118e:	4a0a      	ldr	r2, [pc, #40]	@ (80011b8 <LoopForever+0x12>)
 8001190:	e002      	b.n	8001198 <LoopFillZerobss>

08001192 <FillZerobss>:
 8001192:	2300      	movs	r3, #0
 8001194:	f842 3b04 	str.w	r3, [r2], #4

08001198 <LoopFillZerobss>:
 8001198:	4b08      	ldr	r3, [pc, #32]	@ (80011bc <LoopForever+0x16>)
 800119a:	429a      	cmp	r2, r3
 800119c:	d3f9      	bcc.n	8001192 <FillZerobss>
 800119e:	f007 ff93 	bl	80090c8 <__libc_init_array>
 80011a2:	f7ff fdee 	bl	8000d82 <main>

080011a6 <LoopForever>:
 80011a6:	e7fe      	b.n	80011a6 <LoopForever>
 80011a8:	200c0000 	.word	0x200c0000
 80011ac:	08009314 	.word	0x08009314
 80011b0:	20000000 	.word	0x20000000
 80011b4:	2000005b 	.word	0x2000005b
 80011b8:	2000005c 	.word	0x2000005c
 80011bc:	20004044 	.word	0x20004044

080011c0 <ADC1_IRQHandler>:
 80011c0:	e7fe      	b.n	80011c0 <ADC1_IRQHandler>
	...

080011c4 <HAL_Init>:
 80011c4:	4a10      	ldr	r2, [pc, #64]	@ (8001208 <HAL_Init+0x44>)
 80011c6:	b510      	push	{r4, lr}
 80011c8:	6813      	ldr	r3, [r2, #0]
 80011ca:	2003      	movs	r0, #3
 80011cc:	f443 7380 	orr.w	r3, r3, #256	@ 0x100
 80011d0:	6013      	str	r3, [r2, #0]
 80011d2:	f000 fdb9 	bl	8001d48 <HAL_NVIC_SetPriorityGrouping>
 80011d6:	f002 f859 	bl	800328c <HAL_RCC_GetSysClockFreq>
 80011da:	4b0c      	ldr	r3, [pc, #48]	@ (800120c <HAL_Init+0x48>)
 80011dc:	4a0c      	ldr	r2, [pc, #48]	@ (8001210 <HAL_Init+0x4c>)
 80011de:	6a1b      	ldr	r3, [r3, #32]
 80011e0:	f003 030f 	and.w	r3, r3, #15
 80011e4:	5cd3      	ldrb	r3, [r2, r3]
 80011e6:	40d8      	lsrs	r0, r3
 80011e8:	4b0a      	ldr	r3, [pc, #40]	@ (8001214 <HAL_Init+0x50>)
 80011ea:	6018      	str	r0, [r3, #0]
 80011ec:	2004      	movs	r0, #4
 80011ee:	f000 fdfb 	bl	8001de8 <HAL_SYSTICK_CLKSourceConfig>
 80011f2:	200f      	movs	r0, #15
 80011f4:	f7ff feb0 	bl	8000f58 <HAL_InitTick>
 80011f8:	4604      	mov	r4, r0
 80011fa:	b918      	cbnz	r0, 8001204 <HAL_Init+0x40>
 80011fc:	f7ff fe94 	bl	8000f28 <HAL_MspInit>
 8001200:	4620      	mov	r0, r4
 8001202:	bd10      	pop	{r4, pc}
 8001204:	2401      	movs	r4, #1
 8001206:	e7fb      	b.n	8001200 <HAL_Init+0x3c>
 8001208:	40022000 	.word	0x40022000
 800120c:	46020c00 	.word	0x46020c00
 8001210:	08009274 	.word	0x08009274
 8001214:	20000000 	.word	0x20000000

08001218 <HAL_IncTick>:
 8001218:	4a03      	ldr	r2, [pc, #12]	@ (8001228 <HAL_IncTick+0x10>)
 800121a:	4b04      	ldr	r3, [pc, #16]	@ (800122c <HAL_IncTick+0x14>)
 800121c:	6811      	ldr	r1, [r2, #0]
 800121e:	781b      	ldrb	r3, [r3, #0]
 8001220:	440b      	add	r3, r1
 8001222:	6013      	str	r3, [r2, #0]
 8001224:	4770      	bx	lr
 8001226:	bf00      	nop
 8001228:	20003054 	.word	0x20003054
 800122c:	20000004 	.word	0x20000004

08001230 <HAL_GetTick>:
 8001230:	4b01      	ldr	r3, [pc, #4]	@ (8001238 <HAL_GetTick+0x8>)
 8001232:	6818      	ldr	r0, [r3, #0]
 8001234:	4770      	bx	lr
 8001236:	bf00      	nop
 8001238:	20003054 	.word	0x20003054

0800123c <HAL_Delay>:
 800123c:	b538      	push	{r3, r4, r5, lr}
 800123e:	4604      	mov	r4, r0
 8001240:	f7ff fff6 	bl	8001230 <HAL_GetTick>
 8001244:	4605      	mov	r5, r0
 8001246:	1c63      	adds	r3, r4, #1
 8001248:	bf1e      	ittt	ne
 800124a:	4b04      	ldrne	r3, [pc, #16]	@ (800125c <HAL_Delay+0x20>)
 800124c:	781b      	ldrbne	r3, [r3, #0]
 800124e:	18e4      	addne	r4, r4, r3
 8001250:	f7ff ffee 	bl	8001230 <HAL_GetTick>
 8001254:	1b43      	subs	r3, r0, r5
 8001256:	42a3      	cmp	r3, r4
 8001258:	d3fa      	bcc.n	8001250 <HAL_Delay+0x14>
 800125a:	bd38      	pop	{r3, r4, r5, pc}
 800125c:	20000004 	.word	0x20000004

08001260 <HAL_GetREVID>:
 8001260:	4b01      	ldr	r3, [pc, #4]	@ (8001268 <HAL_GetREVID+0x8>)
 8001262:	6818      	ldr	r0, [r3, #0]
 8001264:	0c00      	lsrs	r0, r0, #16
 8001266:	4770      	bx	lr
 8001268:	e0044000 	.word	0xe0044000

0800126c <LL_ADC_SetOffset>:
 800126c:	b510      	push	{r4, lr}
 800126e:	3060      	adds	r0, #96	@ 0x60
 8001270:	f850 4021 	ldr.w	r4, [r0, r1, lsl #2]
 8001274:	0052      	lsls	r2, r2, #1
 8001276:	f002 4278 	and.w	r2, r2, #4160749568	@ 0xf8000000
 800127a:	431a      	orrs	r2, r3
 800127c:	f004 64e0 	and.w	r4, r4, #117440512	@ 0x7000000
 8001280:	4322      	orrs	r2, r4
 8001282:	f840 2021 	str.w	r2, [r0, r1, lsl #2]
 8001286:	bd10      	pop	{r4, pc}

08001288 <LL_ADC_GetOffsetChannel>:
 8001288:	3060      	adds	r0, #96	@ 0x60
 800128a:	f850 3021 	ldr.w	r3, [r0, r1, lsl #2]
 800128e:	0eda      	lsrs	r2, r3, #27
 8001290:	f1b3 4fa0 	cmp.w	r3, #1342177280	@ 0x50000000
 8001294:	f04f 0301 	mov.w	r3, #1
 8001298:	ea4f 6082 	mov.w	r0, r2, lsl #26
 800129c:	fa03 f302 	lsl.w	r3, r3, r2
 80012a0:	ea40 0003 	orr.w	r0, r0, r3
 80012a4:	bf28      	it	cs
 80012a6:	f040 7000 	orrcs.w	r0, r0, #33554432	@ 0x2000000
 80012aa:	4770      	bx	lr

080012ac <LL_ADC_IsEnabled>:
 80012ac:	6880      	ldr	r0, [r0, #8]
 80012ae:	f000 0001 	and.w	r0, r0, #1
 80012b2:	4770      	bx	lr

080012b4 <LL_ADC_REG_IsConversionOngoing>:
 80012b4:	6880      	ldr	r0, [r0, #8]
 80012b6:	f3c0 0080 	ubfx	r0, r0, #2, #1
 80012ba:	4770      	bx	lr

080012bc <LL_ADC_REG_SetSequencerRanks>:
 80012bc:	4b14      	ldr	r3, [pc, #80]	@ (8001310 <LL_ADC_REG_SetSequencerRanks+0x54>)
 80012be:	b530      	push	{r4, r5, lr}
 80012c0:	4298      	cmp	r0, r3
 80012c2:	f001 041f 	and.w	r4, r1, #31
 80012c6:	d00e      	beq.n	80012e6 <LL_ADC_REG_SetSequencerRanks+0x2a>
 80012c8:	251f      	movs	r5, #31
 80012ca:	0989      	lsrs	r1, r1, #6
 80012cc:	f001 010c 	and.w	r1, r1, #12
 80012d0:	3030      	adds	r0, #48	@ 0x30
 80012d2:	5843      	ldr	r3, [r0, r1]
 80012d4:	40a5      	lsls	r5, r4
 80012d6:	f3c2 6284 	ubfx	r2, r2, #26, #5
 80012da:	ea23 0305 	bic.w	r3, r3, r5
 80012de:	40a2      	lsls	r2, r4
 80012e0:	4313      	orrs	r3, r2
 80012e2:	5043      	str	r3, [r0, r1]
 80012e4:	bd30      	pop	{r4, r5, pc}
 80012e6:	210f      	movs	r1, #15
 80012e8:	6a83      	ldr	r3, [r0, #40]	@ 0x28
 80012ea:	40a1      	lsls	r1, r4
 80012ec:	ea23 0301 	bic.w	r3, r3, r1
 80012f0:	f032 417f 	bics.w	r1, r2, #4278190080	@ 0xff000000
 80012f4:	d106      	bne.n	8001304 <LL_ADC_REG_SetSequencerRanks+0x48>
 80012f6:	f3c2 6284 	ubfx	r2, r2, #26, #5
 80012fa:	40a2      	lsls	r2, r4
 80012fc:	431a      	orrs	r2, r3
 80012fe:	4b04      	ldr	r3, [pc, #16]	@ (8001310 <LL_ADC_REG_SetSequencerRanks+0x54>)
 8001300:	629a      	str	r2, [r3, #40]	@ 0x28
 8001302:	e7ef      	b.n	80012e4 <LL_ADC_REG_SetSequencerRanks+0x28>
 8001304:	fa92 f2a2 	rbit	r2, r2
 8001308:	fab2 f282 	clz	r2, r2
 800130c:	e7f5      	b.n	80012fa <LL_ADC_REG_SetSequencerRanks+0x3e>
 800130e:	bf00      	nop
 8001310:	46021000 	.word	0x46021000

08001314 <LL_ADC_SetChannelSamplingTime>:
 8001314:	4b14      	ldr	r3, [pc, #80]	@ (8001368 <LL_ADC_SetChannelSamplingTime+0x54>)
 8001316:	b530      	push	{r4, r5, lr}
 8001318:	4298      	cmp	r0, r3
 800131a:	d01e      	beq.n	800135a <LL_ADC_SetChannelSamplingTime+0x46>
 800131c:	f031 437f 	bics.w	r3, r1, #4278190080	@ 0xff000000
 8001320:	d116      	bne.n	8001350 <LL_ADC_SetChannelSamplingTime+0x3c>
 8001322:	f3c1 6384 	ubfx	r3, r1, #26, #5
 8001326:	2507      	movs	r5, #7
 8001328:	f341 6440 	sbfx	r4, r1, #25, #1
 800132c:	f004 040a 	and.w	r4, r4, #10
 8001330:	0dc9      	lsrs	r1, r1, #23
 8001332:	1b1b      	subs	r3, r3, r4
 8001334:	f001 0104 	and.w	r1, r1, #4
 8001338:	3014      	adds	r0, #20
 800133a:	5844      	ldr	r4, [r0, r1]
 800133c:	eb03 0343 	add.w	r3, r3, r3, lsl #1
 8001340:	409d      	lsls	r5, r3
 8001342:	ea24 0405 	bic.w	r4, r4, r5
 8001346:	fa02 f303 	lsl.w	r3, r2, r3
 800134a:	4323      	orrs	r3, r4
 800134c:	5043      	str	r3, [r0, r1]
 800134e:	bd30      	pop	{r4, r5, pc}
 8001350:	fa91 f3a1 	rbit	r3, r1
 8001354:	fab3 f383 	clz	r3, r3
 8001358:	e7e5      	b.n	8001326 <LL_ADC_SetChannelSamplingTime+0x12>
 800135a:	6943      	ldr	r3, [r0, #20]
 800135c:	405a      	eors	r2, r3
 800135e:	ea02 2201 	and.w	r2, r2, r1, lsl #8
 8001362:	405a      	eors	r2, r3
 8001364:	6142      	str	r2, [r0, #20]
 8001366:	e7f2      	b.n	800134e <LL_ADC_SetChannelSamplingTime+0x3a>
 8001368:	46021000 	.word	0x46021000

0800136c <HAL_ADC_Init>:
 800136c:	b5f7      	push	{r0, r1, r2, r4, r5, r6, r7, lr}
 800136e:	4604      	mov	r4, r0
 8001370:	2800      	cmp	r0, #0
 8001372:	f000 81a5 	beq.w	80016c0 <HAL_ADC_Init+0x354>
 8001376:	6f85      	ldr	r5, [r0, #120]	@ 0x78
 8001378:	b925      	cbnz	r5, 8001384 <HAL_ADC_Init+0x18>
 800137a:	f7ff fae7 	bl	800094c <HAL_ADC_MspInit>
 800137e:	67e5      	str	r5, [r4, #124]	@ 0x7c
 8001380:	f884 5074 	strb.w	r5, [r4, #116]	@ 0x74
 8001384:	6823      	ldr	r3, [r4, #0]
 8001386:	689a      	ldr	r2, [r3, #8]
 8001388:	0090      	lsls	r0, r2, #2
 800138a:	bf41      	itttt	mi
 800138c:	689a      	ldrmi	r2, [r3, #8]
 800138e:	f022 4220 	bicmi.w	r2, r2, #2684354560	@ 0xa0000000
 8001392:	f022 023f 	bicmi.w	r2, r2, #63	@ 0x3f
 8001396:	609a      	strmi	r2, [r3, #8]
 8001398:	689a      	ldr	r2, [r3, #8]
 800139a:	00d1      	lsls	r1, r2, #3
 800139c:	d571      	bpl.n	8001482 <HAL_ADC_Init+0x116>
 800139e:	689a      	ldr	r2, [r3, #8]
 80013a0:	00d2      	lsls	r2, r2, #3
 80013a2:	f100 8085 	bmi.w	80014b0 <HAL_ADC_Init+0x144>
 80013a6:	2101      	movs	r1, #1
 80013a8:	6fa2      	ldr	r2, [r4, #120]	@ 0x78
 80013aa:	f042 0210 	orr.w	r2, r2, #16
 80013ae:	67a2      	str	r2, [r4, #120]	@ 0x78
 80013b0:	6fe2      	ldr	r2, [r4, #124]	@ 0x7c
 80013b2:	f042 0201 	orr.w	r2, r2, #1
 80013b6:	67e2      	str	r2, [r4, #124]	@ 0x7c
 80013b8:	4618      	mov	r0, r3
 80013ba:	f7ff ff7b 	bl	80012b4 <LL_ADC_REG_IsConversionOngoing>
 80013be:	6fa6      	ldr	r6, [r4, #120]	@ 0x78
 80013c0:	f006 0610 	and.w	r6, r6, #16
 80013c4:	4306      	orrs	r6, r0
 80013c6:	f040 817d 	bne.w	80016c4 <HAL_ADC_Init+0x358>
 80013ca:	6fa2      	ldr	r2, [r4, #120]	@ 0x78
 80013cc:	4618      	mov	r0, r3
 80013ce:	f422 7281 	bic.w	r2, r2, #258	@ 0x102
 80013d2:	f042 0202 	orr.w	r2, r2, #2
 80013d6:	67a2      	str	r2, [r4, #120]	@ 0x78
 80013d8:	f7ff ff68 	bl	80012ac <LL_ADC_IsEnabled>
 80013dc:	4aa8      	ldr	r2, [pc, #672]	@ (8001680 <HAL_ADC_Init+0x314>)
 80013de:	2800      	cmp	r0, #0
 80013e0:	f040 80a5 	bne.w	800152e <HAL_ADC_Init+0x1c2>
 80013e4:	4293      	cmp	r3, r2
 80013e6:	d074      	beq.n	80014d2 <HAL_ADC_Init+0x166>
 80013e8:	48a6      	ldr	r0, [pc, #664]	@ (8001684 <HAL_ADC_Init+0x318>)
 80013ea:	4283      	cmp	r3, r0
 80013ec:	d162      	bne.n	80014b4 <HAL_ADC_Init+0x148>
 80013ee:	4618      	mov	r0, r3
 80013f0:	f7ff ff5c 	bl	80012ac <LL_ADC_IsEnabled>
 80013f4:	2800      	cmp	r0, #0
 80013f6:	d06a      	beq.n	80014ce <HAL_ADC_Init+0x162>
 80013f8:	68a0      	ldr	r0, [r4, #8]
 80013fa:	6c62      	ldr	r2, [r4, #68]	@ 0x44
 80013fc:	4302      	orrs	r2, r0
 80013fe:	f894 0024 	ldrb.w	r0, [r4, #36]	@ 0x24
 8001402:	ea42 3240 	orr.w	r2, r2, r0, lsl #13
 8001406:	f894 002c 	ldrb.w	r0, [r4, #44]	@ 0x2c
 800140a:	ea42 4200 	orr.w	r2, r2, r0, lsl #16
 800140e:	f894 002c 	ldrb.w	r0, [r4, #44]	@ 0x2c
 8001412:	6b65      	ldr	r5, [r4, #52]	@ 0x34
 8001414:	2801      	cmp	r0, #1
 8001416:	489a      	ldr	r0, [pc, #616]	@ (8001680 <HAL_ADC_Init+0x314>)
 8001418:	f040 80e1 	bne.w	80015de <HAL_ADC_Init+0x272>
 800141c:	4283      	cmp	r3, r0
 800141e:	f000 8089 	beq.w	8001534 <HAL_ADC_Init+0x1c8>
 8001422:	6b20      	ldr	r0, [r4, #48]	@ 0x30
 8001424:	3801      	subs	r0, #1
 8001426:	ea42 4240 	orr.w	r2, r2, r0, lsl #17
 800142a:	b125      	cbz	r5, 8001436 <HAL_ADC_Init+0xca>
 800142c:	6ba0      	ldr	r0, [r4, #56]	@ 0x38
 800142e:	f405 7578 	and.w	r5, r5, #992	@ 0x3e0
 8001432:	4305      	orrs	r5, r0
 8001434:	432a      	orrs	r2, r5
 8001436:	68dd      	ldr	r5, [r3, #12]
 8001438:	4893      	ldr	r0, [pc, #588]	@ (8001688 <HAL_ADC_Init+0x31c>)
 800143a:	4028      	ands	r0, r5
 800143c:	4310      	orrs	r0, r2
 800143e:	60d8      	str	r0, [r3, #12]
 8001440:	4618      	mov	r0, r3
 8001442:	f7ff ff37 	bl	80012b4 <LL_ADC_REG_IsConversionOngoing>
 8001446:	689a      	ldr	r2, [r3, #8]
 8001448:	f002 0208 	and.w	r2, r2, #8
 800144c:	4302      	orrs	r2, r0
 800144e:	f000 80ca 	beq.w	80015e6 <HAL_ADC_Init+0x27a>
 8001452:	6922      	ldr	r2, [r4, #16]
 8001454:	2a01      	cmp	r2, #1
 8001456:	bf05      	ittet	eq
 8001458:	6b18      	ldreq	r0, [r3, #48]	@ 0x30
 800145a:	6aa2      	ldreq	r2, [r4, #40]	@ 0x28
 800145c:	6b1a      	ldrne	r2, [r3, #48]	@ 0x30
 800145e:	f102 32ff 	addeq.w	r2, r2, #4294967295
 8001462:	bf06      	itte	eq
 8001464:	f020 000f 	biceq.w	r0, r0, #15
 8001468:	4302      	orreq	r2, r0
 800146a:	f022 020f 	bicne.w	r2, r2, #15
 800146e:	631a      	str	r2, [r3, #48]	@ 0x30
 8001470:	6fa3      	ldr	r3, [r4, #120]	@ 0x78
 8001472:	f023 0303 	bic.w	r3, r3, #3
 8001476:	f043 0301 	orr.w	r3, r3, #1
 800147a:	67a3      	str	r3, [r4, #120]	@ 0x78
 800147c:	4608      	mov	r0, r1
 800147e:	b003      	add	sp, #12
 8001480:	bdf0      	pop	{r4, r5, r6, r7, pc}
 8001482:	689a      	ldr	r2, [r3, #8]
 8001484:	4981      	ldr	r1, [pc, #516]	@ (800168c <HAL_ADC_Init+0x320>)
 8001486:	f022 4210 	bic.w	r2, r2, #2415919104	@ 0x90000000
 800148a:	f022 023f 	bic.w	r2, r2, #63	@ 0x3f
 800148e:	f042 5280 	orr.w	r2, r2, #268435456	@ 0x10000000
 8001492:	609a      	str	r2, [r3, #8]
 8001494:	4a7e      	ldr	r2, [pc, #504]	@ (8001690 <HAL_ADC_Init+0x324>)
 8001496:	6812      	ldr	r2, [r2, #0]
 8001498:	fbb2 f2f1 	udiv	r2, r2, r1
 800149c:	3201      	adds	r2, #1
 800149e:	0052      	lsls	r2, r2, #1
 80014a0:	9201      	str	r2, [sp, #4]
 80014a2:	9a01      	ldr	r2, [sp, #4]
 80014a4:	2a00      	cmp	r2, #0
 80014a6:	f43f af7a 	beq.w	800139e <HAL_ADC_Init+0x32>
 80014aa:	9a01      	ldr	r2, [sp, #4]
 80014ac:	3a01      	subs	r2, #1
 80014ae:	e7f7      	b.n	80014a0 <HAL_ADC_Init+0x134>
 80014b0:	2100      	movs	r1, #0
 80014b2:	e781      	b.n	80013b8 <HAL_ADC_Init+0x4c>
 80014b4:	4610      	mov	r0, r2
 80014b6:	f7ff fef9 	bl	80012ac <LL_ADC_IsEnabled>
 80014ba:	2800      	cmp	r0, #0
 80014bc:	d19c      	bne.n	80013f8 <HAL_ADC_Init+0x8c>
 80014be:	4875      	ldr	r0, [pc, #468]	@ (8001694 <HAL_ADC_Init+0x328>)
 80014c0:	6802      	ldr	r2, [r0, #0]
 80014c2:	6865      	ldr	r5, [r4, #4]
 80014c4:	f422 1270 	bic.w	r2, r2, #3932160	@ 0x3c0000
 80014c8:	432a      	orrs	r2, r5
 80014ca:	6002      	str	r2, [r0, #0]
 80014cc:	e794      	b.n	80013f8 <HAL_ADC_Init+0x8c>
 80014ce:	4872      	ldr	r0, [pc, #456]	@ (8001698 <HAL_ADC_Init+0x32c>)
 80014d0:	e7f6      	b.n	80014c0 <HAL_ADC_Init+0x154>
 80014d2:	68a2      	ldr	r2, [r4, #8]
 80014d4:	68d8      	ldr	r0, [r3, #12]
 80014d6:	3a01      	subs	r2, #1
 80014d8:	f020 000c 	bic.w	r0, r0, #12
 80014dc:	f002 020c 	and.w	r2, r2, #12
 80014e0:	4302      	orrs	r2, r0
 80014e2:	60da      	str	r2, [r3, #12]
 80014e4:	f8d3 0308 	ldr.w	r0, [r3, #776]	@ 0x308
 80014e8:	6862      	ldr	r2, [r4, #4]
 80014ea:	f420 1070 	bic.w	r0, r0, #3932160	@ 0x3c0000
 80014ee:	f402 1270 	and.w	r2, r2, #3932160	@ 0x3c0000
 80014f2:	4302      	orrs	r2, r0
 80014f4:	f8c3 2308 	str.w	r2, [r3, #776]	@ 0x308
 80014f8:	6c62      	ldr	r2, [r4, #68]	@ 0x44
 80014fa:	7f20      	ldrb	r0, [r4, #28]
 80014fc:	3a00      	subs	r2, #0
 80014fe:	bf18      	it	ne
 8001500:	2201      	movne	r2, #1
 8001502:	0315      	lsls	r5, r2, #12
 8001504:	f894 2024 	ldrb.w	r2, [r4, #36]	@ 0x24
 8001508:	f894 7040 	ldrb.w	r7, [r4, #64]	@ 0x40
 800150c:	0352      	lsls	r2, r2, #13
 800150e:	ea42 3280 	orr.w	r2, r2, r0, lsl #14
 8001512:	6960      	ldr	r0, [r4, #20]
 8001514:	4302      	orrs	r2, r0
 8001516:	6920      	ldr	r0, [r4, #16]
 8001518:	ea42 0247 	orr.w	r2, r2, r7, lsl #1
 800151c:	2800      	cmp	r0, #0
 800151e:	bfac      	ite	ge
 8001520:	f44f 1000 	movge.w	r0, #2097152	@ 0x200000
 8001524:	f020 4000 	biclt.w	r0, r0, #2147483648	@ 0x80000000
 8001528:	432a      	orrs	r2, r5
 800152a:	4302      	orrs	r2, r0
 800152c:	e76f      	b.n	800140e <HAL_ADC_Init+0xa2>
 800152e:	4293      	cmp	r3, r2
 8001530:	d0e2      	beq.n	80014f8 <HAL_ADC_Init+0x18c>
 8001532:	e761      	b.n	80013f8 <HAL_ADC_Init+0x8c>
 8001534:	f894 3024 	ldrb.w	r3, [r4, #36]	@ 0x24
 8001538:	2b00      	cmp	r3, #0
 800153a:	d147      	bne.n	80015cc <HAL_ADC_Init+0x260>
 800153c:	f442 3280 	orr.w	r2, r2, #65536	@ 0x10000
 8001540:	b125      	cbz	r5, 800154c <HAL_ADC_Init+0x1e0>
 8001542:	6ba3      	ldr	r3, [r4, #56]	@ 0x38
 8001544:	f405 75e0 	and.w	r5, r5, #448	@ 0x1c0
 8001548:	431d      	orrs	r5, r3
 800154a:	432a      	orrs	r2, r5
 800154c:	4b4c      	ldr	r3, [pc, #304]	@ (8001680 <HAL_ADC_Init+0x314>)
 800154e:	4853      	ldr	r0, [pc, #332]	@ (800169c <HAL_ADC_Init+0x330>)
 8001550:	68dd      	ldr	r5, [r3, #12]
 8001552:	4028      	ands	r0, r5
 8001554:	4310      	orrs	r0, r2
 8001556:	60d8      	str	r0, [r3, #12]
 8001558:	6a20      	ldr	r0, [r4, #32]
 800155a:	b110      	cbz	r0, 8001562 <HAL_ADC_Init+0x1f6>
 800155c:	6c5d      	ldr	r5, [r3, #68]	@ 0x44
 800155e:	4328      	orrs	r0, r5
 8001560:	6458      	str	r0, [r3, #68]	@ 0x44
 8001562:	6ee0      	ldr	r0, [r4, #108]	@ 0x6c
 8001564:	b110      	cbz	r0, 800156c <HAL_ADC_Init+0x200>
 8001566:	6c5d      	ldr	r5, [r3, #68]	@ 0x44
 8001568:	4328      	orrs	r0, r5
 800156a:	6458      	str	r0, [r3, #68]	@ 0x44
 800156c:	f894 3054 	ldrb.w	r3, [r4, #84]	@ 0x54
 8001570:	2b01      	cmp	r3, #1
 8001572:	d108      	bne.n	8001586 <HAL_ADC_Init+0x21a>
 8001574:	6ea3      	ldr	r3, [r4, #104]	@ 0x68
 8001576:	6da6      	ldr	r6, [r4, #88]	@ 0x58
 8001578:	431e      	orrs	r6, r3
 800157a:	6de3      	ldr	r3, [r4, #92]	@ 0x5c
 800157c:	431e      	orrs	r6, r3
 800157e:	6e23      	ldr	r3, [r4, #96]	@ 0x60
 8001580:	431e      	orrs	r6, r3
 8001582:	f046 0601 	orr.w	r6, r6, #1
 8001586:	4b3e      	ldr	r3, [pc, #248]	@ (8001680 <HAL_ADC_Init+0x314>)
 8001588:	4845      	ldr	r0, [pc, #276]	@ (80016a0 <HAL_ADC_Init+0x334>)
 800158a:	691d      	ldr	r5, [r3, #16]
 800158c:	4028      	ands	r0, r5
 800158e:	4330      	orrs	r0, r6
 8001590:	6118      	str	r0, [r3, #16]
 8001592:	6958      	ldr	r0, [r3, #20]
 8001594:	6ca5      	ldr	r5, [r4, #72]	@ 0x48
 8001596:	f020 0007 	bic.w	r0, r0, #7
 800159a:	4328      	orrs	r0, r5
 800159c:	6158      	str	r0, [r3, #20]
 800159e:	6958      	ldr	r0, [r3, #20]
 80015a0:	6ce5      	ldr	r5, [r4, #76]	@ 0x4c
 80015a2:	f020 0070 	bic.w	r0, r0, #112	@ 0x70
 80015a6:	ea40 1005 	orr.w	r0, r0, r5, lsl #4
 80015aa:	6158      	str	r0, [r3, #20]
 80015ac:	6920      	ldr	r0, [r4, #16]
 80015ae:	2800      	cmp	r0, #0
 80015b0:	d155      	bne.n	800165e <HAL_ADC_Init+0x2f2>
 80015b2:	6a98      	ldr	r0, [r3, #40]	@ 0x28
 80015b4:	f060 000f 	orn	r0, r0, #15
 80015b8:	6298      	str	r0, [r3, #40]	@ 0x28
 80015ba:	4b31      	ldr	r3, [pc, #196]	@ (8001680 <HAL_ADC_Init+0x314>)
 80015bc:	68d8      	ldr	r0, [r3, #12]
 80015be:	4b39      	ldr	r3, [pc, #228]	@ (80016a4 <HAL_ADC_Init+0x338>)
 80015c0:	4003      	ands	r3, r0
 80015c2:	4293      	cmp	r3, r2
 80015c4:	d172      	bne.n	80016ac <HAL_ADC_Init+0x340>
 80015c6:	2300      	movs	r3, #0
 80015c8:	67e3      	str	r3, [r4, #124]	@ 0x7c
 80015ca:	e751      	b.n	8001470 <HAL_ADC_Init+0x104>
 80015cc:	6fa3      	ldr	r3, [r4, #120]	@ 0x78
 80015ce:	f043 0320 	orr.w	r3, r3, #32
 80015d2:	67a3      	str	r3, [r4, #120]	@ 0x78
 80015d4:	6fe3      	ldr	r3, [r4, #124]	@ 0x7c
 80015d6:	f043 0301 	orr.w	r3, r3, #1
 80015da:	67e3      	str	r3, [r4, #124]	@ 0x7c
 80015dc:	e7b0      	b.n	8001540 <HAL_ADC_Init+0x1d4>
 80015de:	4283      	cmp	r3, r0
 80015e0:	f47f af23 	bne.w	800142a <HAL_ADC_Init+0xbe>
 80015e4:	e7ac      	b.n	8001540 <HAL_ADC_Init+0x1d4>
 80015e6:	4a27      	ldr	r2, [pc, #156]	@ (8001684 <HAL_ADC_Init+0x318>)
 80015e8:	7f25      	ldrb	r5, [r4, #28]
 80015ea:	4293      	cmp	r3, r2
 80015ec:	68da      	ldr	r2, [r3, #12]
 80015ee:	6be0      	ldr	r0, [r4, #60]	@ 0x3c
 80015f0:	f422 4280 	bic.w	r2, r2, #16384	@ 0x4000
 80015f4:	ea4f 3585 	mov.w	r5, r5, lsl #14
 80015f8:	f022 0203 	bic.w	r2, r2, #3
 80015fc:	bf18      	it	ne
 80015fe:	0040      	lslne	r0, r0, #1
 8001600:	432a      	orrs	r2, r5
 8001602:	4302      	orrs	r2, r0
 8001604:	68e0      	ldr	r0, [r4, #12]
 8001606:	60da      	str	r2, [r3, #12]
 8001608:	b140      	cbz	r0, 800161c <HAL_ADC_Init+0x2b0>
 800160a:	6f1a      	ldr	r2, [r3, #112]	@ 0x70
 800160c:	f36f 020d 	bfc	r2, #0, #14
 8001610:	4302      	orrs	r2, r0
 8001612:	671a      	str	r2, [r3, #112]	@ 0x70
 8001614:	6f1a      	ldr	r2, [r3, #112]	@ 0x70
 8001616:	f042 4200 	orr.w	r2, r2, #2147483648	@ 0x80000000
 800161a:	671a      	str	r2, [r3, #112]	@ 0x70
 800161c:	f894 2054 	ldrb.w	r2, [r4, #84]	@ 0x54
 8001620:	2a01      	cmp	r2, #1
 8001622:	d118      	bne.n	8001656 <HAL_ADC_Init+0x2ea>
 8001624:	e9d4 2017 	ldrd	r2, r0, [r4, #92]	@ 0x5c
 8001628:	691d      	ldr	r5, [r3, #16]
 800162a:	4302      	orrs	r2, r0
 800162c:	481e      	ldr	r0, [pc, #120]	@ (80016a8 <HAL_ADC_Init+0x33c>)
 800162e:	4028      	ands	r0, r5
 8001630:	4302      	orrs	r2, r0
 8001632:	6e60      	ldr	r0, [r4, #100]	@ 0x64
 8001634:	4302      	orrs	r2, r0
 8001636:	6da0      	ldr	r0, [r4, #88]	@ 0x58
 8001638:	ea42 4200 	orr.w	r2, r2, r0, lsl #16
 800163c:	6ea0      	ldr	r0, [r4, #104]	@ 0x68
 800163e:	ea42 0290 	orr.w	r2, r2, r0, lsr #2
 8001642:	f042 0201 	orr.w	r2, r2, #1
 8001646:	611a      	str	r2, [r3, #16]
 8001648:	691a      	ldr	r2, [r3, #16]
 800164a:	6d20      	ldr	r0, [r4, #80]	@ 0x50
 800164c:	f022 4270 	bic.w	r2, r2, #4026531840	@ 0xf0000000
 8001650:	4302      	orrs	r2, r0
 8001652:	611a      	str	r2, [r3, #16]
 8001654:	e6fd      	b.n	8001452 <HAL_ADC_Init+0xe6>
 8001656:	691a      	ldr	r2, [r3, #16]
 8001658:	f022 0201 	bic.w	r2, r2, #1
 800165c:	e7f3      	b.n	8001646 <HAL_ADC_Init+0x2da>
 800165e:	f5b0 1f00 	cmp.w	r0, #2097152	@ 0x200000
 8001662:	d1aa      	bne.n	80015ba <HAL_ADC_Init+0x24e>
 8001664:	f06f 050f 	mvn.w	r5, #15
 8001668:	6a98      	ldr	r0, [r3, #40]	@ 0x28
 800166a:	6aa0      	ldr	r0, [r4, #40]	@ 0x28
 800166c:	3801      	subs	r0, #1
 800166e:	0080      	lsls	r0, r0, #2
 8001670:	f000 001c 	and.w	r0, r0, #28
 8001674:	fa05 f000 	lsl.w	r0, r5, r0
 8001678:	f8d4 5088 	ldr.w	r5, [r4, #136]	@ 0x88
 800167c:	4328      	orrs	r0, r5
 800167e:	e79b      	b.n	80015b8 <HAL_ADC_Init+0x24c>
 8001680:	46021000 	.word	0x46021000
 8001684:	42028000 	.word	0x42028000
 8001688:	fff0c013 	.word	0xfff0c013
 800168c:	00030d40 	.word	0x00030d40
 8001690:	20000000 	.word	0x20000000
 8001694:	46021308 	.word	0x46021308
 8001698:	42028308 	.word	0x42028308
 800169c:	ffde800d 	.word	0xffde800d
 80016a0:	f7fffc02 	.word	0xf7fffc02
 80016a4:	833ffff3 	.word	0x833ffff3
 80016a8:	fc00f81e 	.word	0xfc00f81e
 80016ac:	6fa3      	ldr	r3, [r4, #120]	@ 0x78
 80016ae:	f023 0312 	bic.w	r3, r3, #18
 80016b2:	f043 0310 	orr.w	r3, r3, #16
 80016b6:	67a3      	str	r3, [r4, #120]	@ 0x78
 80016b8:	6fe3      	ldr	r3, [r4, #124]	@ 0x7c
 80016ba:	f043 0301 	orr.w	r3, r3, #1
 80016be:	67e3      	str	r3, [r4, #124]	@ 0x7c
 80016c0:	2101      	movs	r1, #1
 80016c2:	e6db      	b.n	800147c <HAL_ADC_Init+0x110>
 80016c4:	6fa3      	ldr	r3, [r4, #120]	@ 0x78
 80016c6:	f043 0310 	orr.w	r3, r3, #16
 80016ca:	67a3      	str	r3, [r4, #120]	@ 0x78
 80016cc:	e7f8      	b.n	80016c0 <HAL_ADC_Init+0x354>
 80016ce:	bf00      	nop

080016d0 <HAL_ADC_ConfigChannel>:
 80016d0:	2300      	movs	r3, #0
 80016d2:	b5f7      	push	{r0, r1, r2, r4, r5, r6, r7, lr}
 80016d4:	9301      	str	r3, [sp, #4]
 80016d6:	f890 3074 	ldrb.w	r3, [r0, #116]	@ 0x74
 80016da:	4607      	mov	r7, r0
 80016dc:	2b01      	cmp	r3, #1
 80016de:	460e      	mov	r6, r1
 80016e0:	f000 8321 	beq.w	8001d26 <HAL_ADC_ConfigChannel+0x656>
 80016e4:	2301      	movs	r3, #1
 80016e6:	6805      	ldr	r5, [r0, #0]
 80016e8:	f880 3074 	strb.w	r3, [r0, #116]	@ 0x74
 80016ec:	4628      	mov	r0, r5
 80016ee:	f7ff fde1 	bl	80012b4 <LL_ADC_REG_IsConversionOngoing>
 80016f2:	2800      	cmp	r0, #0
 80016f4:	f040 8164 	bne.w	80019c0 <HAL_ADC_ConfigChannel+0x2f0>
 80016f8:	4abc      	ldr	r2, [pc, #752]	@ (80019ec <HAL_ADC_ConfigChannel+0x31c>)
 80016fa:	680c      	ldr	r4, [r1, #0]
 80016fc:	4295      	cmp	r5, r2
 80016fe:	f000 81c4 	beq.w	8001a8a <HAL_ADC_ConfigChannel+0x3ba>
 8001702:	f034 427f 	bics.w	r2, r4, #4278190080	@ 0xff000000
 8001706:	f040 8081 	bne.w	800180c <HAL_ADC_ConfigChannel+0x13c>
 800170a:	f3c4 6284 	ubfx	r2, r4, #26, #5
 800170e:	4093      	lsls	r3, r2
 8001710:	69ea      	ldr	r2, [r5, #28]
 8001712:	4628      	mov	r0, r5
 8001714:	4313      	orrs	r3, r2
 8001716:	61eb      	str	r3, [r5, #28]
 8001718:	4622      	mov	r2, r4
 800171a:	6871      	ldr	r1, [r6, #4]
 800171c:	f7ff fdce 	bl	80012bc <LL_ADC_REG_SetSequencerRanks>
 8001720:	4628      	mov	r0, r5
 8001722:	f7ff fdc7 	bl	80012b4 <LL_ADC_REG_IsConversionOngoing>
 8001726:	68ab      	ldr	r3, [r5, #8]
 8001728:	f003 0308 	and.w	r3, r3, #8
 800172c:	ea53 0400 	orrs.w	r4, r3, r0
 8001730:	d13c      	bne.n	80017ac <HAL_ADC_ConfigChannel+0xdc>
 8001732:	68b2      	ldr	r2, [r6, #8]
 8001734:	6831      	ldr	r1, [r6, #0]
 8001736:	4628      	mov	r0, r5
 8001738:	f7ff fdec 	bl	8001314 <LL_ADC_SetChannelSamplingTime>
 800173c:	6931      	ldr	r1, [r6, #16]
 800173e:	6972      	ldr	r2, [r6, #20]
 8001740:	2904      	cmp	r1, #4
 8001742:	68eb      	ldr	r3, [r5, #12]
 8001744:	d076      	beq.n	8001834 <HAL_ADC_ConfigChannel+0x164>
 8001746:	f3c3 0381 	ubfx	r3, r3, #2, #2
 800174a:	005b      	lsls	r3, r3, #1
 800174c:	fa02 f303 	lsl.w	r3, r2, r3
 8001750:	4628      	mov	r0, r5
 8001752:	6832      	ldr	r2, [r6, #0]
 8001754:	f7ff fd8a 	bl	800126c <LL_ADC_SetOffset>
 8001758:	6931      	ldr	r1, [r6, #16]
 800175a:	f105 0360 	add.w	r3, r5, #96	@ 0x60
 800175e:	f853 2021 	ldr.w	r2, [r3, r1, lsl #2]
 8001762:	69f0      	ldr	r0, [r6, #28]
 8001764:	f022 7280 	bic.w	r2, r2, #16777216	@ 0x1000000
 8001768:	4302      	orrs	r2, r0
 800176a:	f843 2021 	str.w	r2, [r3, r1, lsl #2]
 800176e:	7eb2      	ldrb	r2, [r6, #26]
 8001770:	6931      	ldr	r1, [r6, #16]
 8001772:	2a01      	cmp	r2, #1
 8001774:	d152      	bne.n	800181c <HAL_ADC_ConfigChannel+0x14c>
 8001776:	7e70      	ldrb	r0, [r6, #25]
 8001778:	f853 2021 	ldr.w	r2, [r3, r1, lsl #2]
 800177c:	fab0 f480 	clz	r4, r0
 8001780:	f022 7200 	bic.w	r2, r2, #33554432	@ 0x2000000
 8001784:	0964      	lsrs	r4, r4, #5
 8001786:	ea42 6244 	orr.w	r2, r2, r4, lsl #25
 800178a:	f843 2021 	str.w	r2, [r3, r1, lsl #2]
 800178e:	6931      	ldr	r1, [r6, #16]
 8001790:	f100 3cff 	add.w	ip, r0, #4294967295
 8001794:	f853 2021 	ldr.w	r2, [r3, r1, lsl #2]
 8001798:	f1dc 0000 	rsbs	r0, ip, #0
 800179c:	eb40 000c 	adc.w	r0, r0, ip
 80017a0:	f022 6280 	bic.w	r2, r2, #67108864	@ 0x4000000
 80017a4:	ea42 6280 	orr.w	r2, r2, r0, lsl #26
 80017a8:	f843 2021 	str.w	r2, [r3, r1, lsl #2]
 80017ac:	4628      	mov	r0, r5
 80017ae:	f7ff fd7d 	bl	80012ac <LL_ADC_IsEnabled>
 80017b2:	2800      	cmp	r0, #0
 80017b4:	f040 8143 	bne.w	8001a3e <HAL_ADC_ConfigChannel+0x36e>
 80017b8:	68f4      	ldr	r4, [r6, #12]
 80017ba:	6832      	ldr	r2, [r6, #0]
 80017bc:	4b8c      	ldr	r3, [pc, #560]	@ (80019f0 <HAL_ADC_ConfigChannel+0x320>)
 80017be:	f8d5 10c0 	ldr.w	r1, [r5, #192]	@ 0xc0
 80017c2:	f004 0c18 	and.w	ip, r4, #24
 80017c6:	f022 407f 	bic.w	r0, r2, #4278190080	@ 0xff000000
 80017ca:	fa23 f30c 	lsr.w	r3, r3, ip
 80017ce:	4013      	ands	r3, r2
 80017d0:	ea21 0100 	bic.w	r1, r1, r0
 80017d4:	430b      	orrs	r3, r1
 80017d6:	f514 3f80 	cmn.w	r4, #65536	@ 0x10000
 80017da:	f8c5 30c0 	str.w	r3, [r5, #192]	@ 0xc0
 80017de:	f040 80e2 	bne.w	80019a6 <HAL_ADC_ConfigChannel+0x2d6>
 80017e2:	2800      	cmp	r0, #0
 80017e4:	f040 80bc 	bne.w	8001960 <HAL_ADC_ConfigChannel+0x290>
 80017e8:	0e93      	lsrs	r3, r2, #26
 80017ea:	3301      	adds	r3, #1
 80017ec:	f003 021f 	and.w	r2, r3, #31
 80017f0:	2a09      	cmp	r2, #9
 80017f2:	f04f 0101 	mov.w	r1, #1
 80017f6:	ea4f 6383 	mov.w	r3, r3, lsl #26
 80017fa:	f240 80cc 	bls.w	8001996 <HAL_ADC_ConfigChannel+0x2c6>
 80017fe:	f003 43f8 	and.w	r3, r3, #2080374784	@ 0x7c000000
 8001802:	4091      	lsls	r1, r2
 8001804:	4319      	orrs	r1, r3
 8001806:	f041 7100 	orr.w	r1, r1, #33554432	@ 0x2000000
 800180a:	e0c8      	b.n	800199e <HAL_ADC_ConfigChannel+0x2ce>
 800180c:	fa94 f2a4 	rbit	r2, r4
 8001810:	fab2 f282 	clz	r2, r2
 8001814:	2301      	movs	r3, #1
 8001816:	f002 021f 	and.w	r2, r2, #31
 800181a:	e778      	b.n	800170e <HAL_ADC_ConfigChannel+0x3e>
 800181c:	f853 2021 	ldr.w	r2, [r3, r1, lsl #2]
 8001820:	f022 7200 	bic.w	r2, r2, #33554432	@ 0x2000000
 8001824:	f843 2021 	str.w	r2, [r3, r1, lsl #2]
 8001828:	6931      	ldr	r1, [r6, #16]
 800182a:	f853 2021 	ldr.w	r2, [r3, r1, lsl #2]
 800182e:	f022 6280 	bic.w	r2, r2, #67108864	@ 0x4000000
 8001832:	e7b9      	b.n	80017a8 <HAL_ADC_ConfigChannel+0xd8>
 8001834:	4621      	mov	r1, r4
 8001836:	4628      	mov	r0, r5
 8001838:	f7ff fd26 	bl	8001288 <LL_ADC_GetOffsetChannel>
 800183c:	f030 437f 	bics.w	r3, r0, #4278190080	@ 0xff000000
 8001840:	4628      	mov	r0, r5
 8001842:	d15d      	bne.n	8001900 <HAL_ADC_ConfigChannel+0x230>
 8001844:	f7ff fd20 	bl	8001288 <LL_ADC_GetOffsetChannel>
 8001848:	f3c0 6084 	ubfx	r0, r0, #26, #5
 800184c:	6832      	ldr	r2, [r6, #0]
 800184e:	f032 437f 	bics.w	r3, r2, #4278190080	@ 0xff000000
 8001852:	d15c      	bne.n	800190e <HAL_ADC_ConfigChannel+0x23e>
 8001854:	f3c2 6384 	ubfx	r3, r2, #26, #5
 8001858:	4298      	cmp	r0, r3
 800185a:	d104      	bne.n	8001866 <HAL_ADC_ConfigChannel+0x196>
 800185c:	2300      	movs	r3, #0
 800185e:	4628      	mov	r0, r5
 8001860:	4619      	mov	r1, r3
 8001862:	f7ff fd03 	bl	800126c <LL_ADC_SetOffset>
 8001866:	2101      	movs	r1, #1
 8001868:	4628      	mov	r0, r5
 800186a:	f7ff fd0d 	bl	8001288 <LL_ADC_GetOffsetChannel>
 800186e:	f030 437f 	bics.w	r3, r0, #4278190080	@ 0xff000000
 8001872:	4628      	mov	r0, r5
 8001874:	d150      	bne.n	8001918 <HAL_ADC_ConfigChannel+0x248>
 8001876:	f7ff fd07 	bl	8001288 <LL_ADC_GetOffsetChannel>
 800187a:	f3c0 6084 	ubfx	r0, r0, #26, #5
 800187e:	6832      	ldr	r2, [r6, #0]
 8001880:	f032 437f 	bics.w	r3, r2, #4278190080	@ 0xff000000
 8001884:	d14f      	bne.n	8001926 <HAL_ADC_ConfigChannel+0x256>
 8001886:	f3c2 6384 	ubfx	r3, r2, #26, #5
 800188a:	4298      	cmp	r0, r3
 800188c:	d104      	bne.n	8001898 <HAL_ADC_ConfigChannel+0x1c8>
 800188e:	2300      	movs	r3, #0
 8001890:	2101      	movs	r1, #1
 8001892:	4628      	mov	r0, r5
 8001894:	f7ff fcea 	bl	800126c <LL_ADC_SetOffset>
 8001898:	2102      	movs	r1, #2
 800189a:	4628      	mov	r0, r5
 800189c:	f7ff fcf4 	bl	8001288 <LL_ADC_GetOffsetChannel>
 80018a0:	f030 437f 	bics.w	r3, r0, #4278190080	@ 0xff000000
 80018a4:	4628      	mov	r0, r5
 80018a6:	d143      	bne.n	8001930 <HAL_ADC_ConfigChannel+0x260>
 80018a8:	f7ff fcee 	bl	8001288 <LL_ADC_GetOffsetChannel>
 80018ac:	f3c0 6084 	ubfx	r0, r0, #26, #5
 80018b0:	6832      	ldr	r2, [r6, #0]
 80018b2:	f032 437f 	bics.w	r3, r2, #4278190080	@ 0xff000000
 80018b6:	d142      	bne.n	800193e <HAL_ADC_ConfigChannel+0x26e>
 80018b8:	f3c2 6384 	ubfx	r3, r2, #26, #5
 80018bc:	4298      	cmp	r0, r3
 80018be:	d104      	bne.n	80018ca <HAL_ADC_ConfigChannel+0x1fa>
 80018c0:	2300      	movs	r3, #0
 80018c2:	2102      	movs	r1, #2
 80018c4:	4628      	mov	r0, r5
 80018c6:	f7ff fcd1 	bl	800126c <LL_ADC_SetOffset>
 80018ca:	2103      	movs	r1, #3
 80018cc:	4628      	mov	r0, r5
 80018ce:	f7ff fcdb 	bl	8001288 <LL_ADC_GetOffsetChannel>
 80018d2:	f030 437f 	bics.w	r3, r0, #4278190080	@ 0xff000000
 80018d6:	4628      	mov	r0, r5
 80018d8:	d136      	bne.n	8001948 <HAL_ADC_ConfigChannel+0x278>
 80018da:	f7ff fcd5 	bl	8001288 <LL_ADC_GetOffsetChannel>
 80018de:	f3c0 6084 	ubfx	r0, r0, #26, #5
 80018e2:	6832      	ldr	r2, [r6, #0]
 80018e4:	f032 437f 	bics.w	r3, r2, #4278190080	@ 0xff000000
 80018e8:	d135      	bne.n	8001956 <HAL_ADC_ConfigChannel+0x286>
 80018ea:	f3c2 6384 	ubfx	r3, r2, #26, #5
 80018ee:	4298      	cmp	r0, r3
 80018f0:	f47f af5c 	bne.w	80017ac <HAL_ADC_ConfigChannel+0xdc>
 80018f4:	2300      	movs	r3, #0
 80018f6:	2103      	movs	r1, #3
 80018f8:	4628      	mov	r0, r5
 80018fa:	f7ff fcb7 	bl	800126c <LL_ADC_SetOffset>
 80018fe:	e755      	b.n	80017ac <HAL_ADC_ConfigChannel+0xdc>
 8001900:	f7ff fcc2 	bl	8001288 <LL_ADC_GetOffsetChannel>
 8001904:	fa90 f0a0 	rbit	r0, r0
 8001908:	fab0 f080 	clz	r0, r0
 800190c:	e79e      	b.n	800184c <HAL_ADC_ConfigChannel+0x17c>
 800190e:	fa92 f3a2 	rbit	r3, r2
 8001912:	fab3 f383 	clz	r3, r3
 8001916:	e79f      	b.n	8001858 <HAL_ADC_ConfigChannel+0x188>
 8001918:	f7ff fcb6 	bl	8001288 <LL_ADC_GetOffsetChannel>
 800191c:	fa90 f0a0 	rbit	r0, r0
 8001920:	fab0 f080 	clz	r0, r0
 8001924:	e7ab      	b.n	800187e <HAL_ADC_ConfigChannel+0x1ae>
 8001926:	fa92 f3a2 	rbit	r3, r2
 800192a:	fab3 f383 	clz	r3, r3
 800192e:	e7ac      	b.n	800188a <HAL_ADC_ConfigChannel+0x1ba>
 8001930:	f7ff fcaa 	bl	8001288 <LL_ADC_GetOffsetChannel>
 8001934:	fa90 f0a0 	rbit	r0, r0
 8001938:	fab0 f080 	clz	r0, r0
 800193c:	e7b8      	b.n	80018b0 <HAL_ADC_ConfigChannel+0x1e0>
 800193e:	fa92 f3a2 	rbit	r3, r2
 8001942:	fab3 f383 	clz	r3, r3
 8001946:	e7b9      	b.n	80018bc <HAL_ADC_ConfigChannel+0x1ec>
 8001948:	f7ff fc9e 	bl	8001288 <LL_ADC_GetOffsetChannel>
 800194c:	fa90 f0a0 	rbit	r0, r0
 8001950:	fab0 f080 	clz	r0, r0
 8001954:	e7c5      	b.n	80018e2 <HAL_ADC_ConfigChannel+0x212>
 8001956:	fa92 f3a2 	rbit	r3, r2
 800195a:	fab3 f383 	clz	r3, r3
 800195e:	e7c6      	b.n	80018ee <HAL_ADC_ConfigChannel+0x21e>
 8001960:	fa92 f1a2 	rbit	r1, r2
 8001964:	b131      	cbz	r1, 8001974 <HAL_ADC_ConfigChannel+0x2a4>
 8001966:	fab1 f381 	clz	r3, r1
 800196a:	1c58      	adds	r0, r3, #1
 800196c:	f000 001f 	and.w	r0, r0, #31
 8001970:	2809      	cmp	r0, #9
 8001972:	d82f      	bhi.n	80019d4 <HAL_ADC_ConfigChannel+0x304>
 8001974:	fa92 f3a2 	rbit	r3, r2
 8001978:	fa92 f2a2 	rbit	r2, r2
 800197c:	fab3 f383 	clz	r3, r3
 8001980:	fab2 f282 	clz	r2, r2
 8001984:	3301      	adds	r3, #1
 8001986:	069b      	lsls	r3, r3, #26
 8001988:	3201      	adds	r2, #1
 800198a:	2101      	movs	r1, #1
 800198c:	f003 43f8 	and.w	r3, r3, #2080374784	@ 0x7c000000
 8001990:	f002 021f 	and.w	r2, r2, #31
 8001994:	e001      	b.n	800199a <HAL_ADC_ConfigChannel+0x2ca>
 8001996:	f003 43f8 	and.w	r3, r3, #2080374784	@ 0x7c000000
 800199a:	4091      	lsls	r1, r2
 800199c:	4319      	orrs	r1, r3
 800199e:	4628      	mov	r0, r5
 80019a0:	68b2      	ldr	r2, [r6, #8]
 80019a2:	f7ff fcb7 	bl	8001314 <LL_ADC_SetChannelSamplingTime>
 80019a6:	6831      	ldr	r1, [r6, #0]
 80019a8:	2900      	cmp	r1, #0
 80019aa:	da48      	bge.n	8001a3e <HAL_ADC_ConfigChannel+0x36e>
 80019ac:	4b11      	ldr	r3, [pc, #68]	@ (80019f4 <HAL_ADC_ConfigChannel+0x324>)
 80019ae:	429d      	cmp	r5, r3
 80019b0:	d022      	beq.n	80019f8 <HAL_ADC_ConfigChannel+0x328>
 80019b2:	480e      	ldr	r0, [pc, #56]	@ (80019ec <HAL_ADC_ConfigChannel+0x31c>)
 80019b4:	f8d0 2308 	ldr.w	r2, [r0, #776]	@ 0x308
 80019b8:	f7ff fc78 	bl	80012ac <LL_ADC_IsEnabled>
 80019bc:	2800      	cmp	r0, #0
 80019be:	d040      	beq.n	8001a42 <HAL_ADC_ConfigChannel+0x372>
 80019c0:	2001      	movs	r0, #1
 80019c2:	6fbb      	ldr	r3, [r7, #120]	@ 0x78
 80019c4:	f043 0320 	orr.w	r3, r3, #32
 80019c8:	67bb      	str	r3, [r7, #120]	@ 0x78
 80019ca:	2300      	movs	r3, #0
 80019cc:	f887 3074 	strb.w	r3, [r7, #116]	@ 0x74
 80019d0:	b003      	add	sp, #12
 80019d2:	bdf0      	pop	{r4, r5, r6, r7, pc}
 80019d4:	fab1 f281 	clz	r2, r1
 80019d8:	3301      	adds	r3, #1
 80019da:	069b      	lsls	r3, r3, #26
 80019dc:	3201      	adds	r2, #1
 80019de:	2101      	movs	r1, #1
 80019e0:	f003 43f8 	and.w	r3, r3, #2080374784	@ 0x7c000000
 80019e4:	f002 021f 	and.w	r2, r2, #31
 80019e8:	e70b      	b.n	8001802 <HAL_ADC_ConfigChannel+0x132>
 80019ea:	bf00      	nop
 80019ec:	46021000 	.word	0x46021000
 80019f0:	000fffff 	.word	0x000fffff
 80019f4:	42028000 	.word	0x42028000
 80019f8:	4628      	mov	r0, r5
 80019fa:	f8d5 2308 	ldr.w	r2, [r5, #776]	@ 0x308
 80019fe:	f7ff fc55 	bl	80012ac <LL_ADC_IsEnabled>
 8001a02:	2800      	cmp	r0, #0
 8001a04:	d1dc      	bne.n	80019c0 <HAL_ADC_ConfigChannel+0x2f0>
 8001a06:	4b98      	ldr	r3, [pc, #608]	@ (8001c68 <HAL_ADC_ConfigChannel+0x598>)
 8001a08:	4c98      	ldr	r4, [pc, #608]	@ (8001c6c <HAL_ADC_ConfigChannel+0x59c>)
 8001a0a:	f002 70e0 	and.w	r0, r2, #29360128	@ 0x1c00000
 8001a0e:	42a1      	cmp	r1, r4
 8001a10:	d11c      	bne.n	8001a4c <HAL_ADC_ConfigChannel+0x37c>
 8001a12:	0216      	lsls	r6, r2, #8
 8001a14:	d413      	bmi.n	8001a3e <HAL_ADC_ConfigChannel+0x36e>
 8001a16:	4a96      	ldr	r2, [pc, #600]	@ (8001c70 <HAL_ADC_ConfigChannel+0x5a0>)
 8001a18:	4295      	cmp	r5, r2
 8001a1a:	d110      	bne.n	8001a3e <HAL_ADC_ConfigChannel+0x36e>
 8001a1c:	681a      	ldr	r2, [r3, #0]
 8001a1e:	f022 72e0 	bic.w	r2, r2, #29360128	@ 0x1c00000
 8001a22:	4302      	orrs	r2, r0
 8001a24:	f442 0200 	orr.w	r2, r2, #8388608	@ 0x800000
 8001a28:	601a      	str	r2, [r3, #0]
 8001a2a:	4b92      	ldr	r3, [pc, #584]	@ (8001c74 <HAL_ADC_ConfigChannel+0x5a4>)
 8001a2c:	4a92      	ldr	r2, [pc, #584]	@ (8001c78 <HAL_ADC_ConfigChannel+0x5a8>)
 8001a2e:	681b      	ldr	r3, [r3, #0]
 8001a30:	fbb3 f3f2 	udiv	r3, r3, r2
 8001a34:	3301      	adds	r3, #1
 8001a36:	005b      	lsls	r3, r3, #1
 8001a38:	9301      	str	r3, [sp, #4]
 8001a3a:	9b01      	ldr	r3, [sp, #4]
 8001a3c:	b91b      	cbnz	r3, 8001a46 <HAL_ADC_ConfigChannel+0x376>
 8001a3e:	2000      	movs	r0, #0
 8001a40:	e7c3      	b.n	80019ca <HAL_ADC_ConfigChannel+0x2fa>
 8001a42:	4b8e      	ldr	r3, [pc, #568]	@ (8001c7c <HAL_ADC_ConfigChannel+0x5ac>)
 8001a44:	e7e0      	b.n	8001a08 <HAL_ADC_ConfigChannel+0x338>
 8001a46:	9b01      	ldr	r3, [sp, #4]
 8001a48:	3b01      	subs	r3, #1
 8001a4a:	e7f5      	b.n	8001a38 <HAL_ADC_ConfigChannel+0x368>
 8001a4c:	4c8c      	ldr	r4, [pc, #560]	@ (8001c80 <HAL_ADC_ConfigChannel+0x5b0>)
 8001a4e:	42a1      	cmp	r1, r4
 8001a50:	d10c      	bne.n	8001a6c <HAL_ADC_ConfigChannel+0x39c>
 8001a52:	01d4      	lsls	r4, r2, #7
 8001a54:	d4f3      	bmi.n	8001a3e <HAL_ADC_ConfigChannel+0x36e>
 8001a56:	4a86      	ldr	r2, [pc, #536]	@ (8001c70 <HAL_ADC_ConfigChannel+0x5a0>)
 8001a58:	4295      	cmp	r5, r2
 8001a5a:	d1f0      	bne.n	8001a3e <HAL_ADC_ConfigChannel+0x36e>
 8001a5c:	681a      	ldr	r2, [r3, #0]
 8001a5e:	f022 72e0 	bic.w	r2, r2, #29360128	@ 0x1c00000
 8001a62:	4302      	orrs	r2, r0
 8001a64:	f042 7280 	orr.w	r2, r2, #16777216	@ 0x1000000
 8001a68:	601a      	str	r2, [r3, #0]
 8001a6a:	e7e8      	b.n	8001a3e <HAL_ADC_ConfigChannel+0x36e>
 8001a6c:	4c85      	ldr	r4, [pc, #532]	@ (8001c84 <HAL_ADC_ConfigChannel+0x5b4>)
 8001a6e:	42a1      	cmp	r1, r4
 8001a70:	d1e5      	bne.n	8001a3e <HAL_ADC_ConfigChannel+0x36e>
 8001a72:	0251      	lsls	r1, r2, #9
 8001a74:	d4e3      	bmi.n	8001a3e <HAL_ADC_ConfigChannel+0x36e>
 8001a76:	4a7e      	ldr	r2, [pc, #504]	@ (8001c70 <HAL_ADC_ConfigChannel+0x5a0>)
 8001a78:	4295      	cmp	r5, r2
 8001a7a:	d1e0      	bne.n	8001a3e <HAL_ADC_ConfigChannel+0x36e>
 8001a7c:	681a      	ldr	r2, [r3, #0]
 8001a7e:	f022 72e0 	bic.w	r2, r2, #29360128	@ 0x1c00000
 8001a82:	4302      	orrs	r2, r0
 8001a84:	f442 0280 	orr.w	r2, r2, #4194304	@ 0x400000
 8001a88:	e7ee      	b.n	8001a68 <HAL_ADC_ConfigChannel+0x398>
 8001a8a:	f7ff fbe9 	bl	8001260 <HAL_GetREVID>
 8001a8e:	f5b0 5f80 	cmp.w	r0, #4096	@ 0x1000
 8001a92:	d110      	bne.n	8001ab6 <HAL_ADC_ConfigChannel+0x3e6>
 8001a94:	6834      	ldr	r4, [r6, #0]
 8001a96:	4b7c      	ldr	r3, [pc, #496]	@ (8001c88 <HAL_ADC_ConfigChannel+0x5b8>)
 8001a98:	429c      	cmp	r4, r3
 8001a9a:	d05e      	beq.n	8001b5a <HAL_ADC_ConfigChannel+0x48a>
 8001a9c:	4b7b      	ldr	r3, [pc, #492]	@ (8001c8c <HAL_ADC_ConfigChannel+0x5bc>)
 8001a9e:	429c      	cmp	r4, r3
 8001aa0:	d05d      	beq.n	8001b5e <HAL_ADC_ConfigChannel+0x48e>
 8001aa2:	4b7b      	ldr	r3, [pc, #492]	@ (8001c90 <HAL_ADC_ConfigChannel+0x5c0>)
 8001aa4:	429c      	cmp	r4, r3
 8001aa6:	d05c      	beq.n	8001b62 <HAL_ADC_ConfigChannel+0x492>
 8001aa8:	4b7a      	ldr	r3, [pc, #488]	@ (8001c94 <HAL_ADC_ConfigChannel+0x5c4>)
 8001aaa:	429c      	cmp	r4, r3
 8001aac:	d05b      	beq.n	8001b66 <HAL_ADC_ConfigChannel+0x496>
 8001aae:	4a7a      	ldr	r2, [pc, #488]	@ (8001c98 <HAL_ADC_ConfigChannel+0x5c8>)
 8001ab0:	4294      	cmp	r4, r2
 8001ab2:	bf08      	it	eq
 8001ab4:	461c      	moveq	r4, r3
 8001ab6:	6872      	ldr	r2, [r6, #4]
 8001ab8:	693b      	ldr	r3, [r7, #16]
 8001aba:	2a02      	cmp	r2, #2
 8001abc:	f023 0310 	bic.w	r3, r3, #16
 8001ac0:	f000 80f6 	beq.w	8001cb0 <HAL_ADC_ConfigChannel+0x5e0>
 8001ac4:	f1b3 4f00 	cmp.w	r3, #2147483648	@ 0x80000000
 8001ac8:	f024 457f 	bic.w	r5, r4, #4278190080	@ 0xff000000
 8001acc:	d154      	bne.n	8001b78 <HAL_ADC_ConfigChannel+0x4a8>
 8001ace:	6839      	ldr	r1, [r7, #0]
 8001ad0:	2d00      	cmp	r5, #0
 8001ad2:	d14a      	bne.n	8001b6a <HAL_ADC_ConfigChannel+0x49a>
 8001ad4:	f3c4 6284 	ubfx	r2, r4, #26, #5
 8001ad8:	2301      	movs	r3, #1
 8001ada:	4093      	lsls	r3, r2
 8001adc:	6a8a      	ldr	r2, [r1, #40]	@ 0x28
 8001ade:	4313      	orrs	r3, r2
 8001ae0:	628b      	str	r3, [r1, #40]	@ 0x28
 8001ae2:	683d      	ldr	r5, [r7, #0]
 8001ae4:	68b2      	ldr	r2, [r6, #8]
 8001ae6:	4621      	mov	r1, r4
 8001ae8:	4628      	mov	r0, r5
 8001aea:	f7ff fc13 	bl	8001314 <LL_ADC_SetChannelSamplingTime>
 8001aee:	6832      	ldr	r2, [r6, #0]
 8001af0:	2a00      	cmp	r2, #0
 8001af2:	daa4      	bge.n	8001a3e <HAL_ADC_ConfigChannel+0x36e>
 8001af4:	485e      	ldr	r0, [pc, #376]	@ (8001c70 <HAL_ADC_ConfigChannel+0x5a0>)
 8001af6:	495c      	ldr	r1, [pc, #368]	@ (8001c68 <HAL_ADC_ConfigChannel+0x598>)
 8001af8:	4b60      	ldr	r3, [pc, #384]	@ (8001c7c <HAL_ADC_ConfigChannel+0x5ac>)
 8001afa:	4285      	cmp	r5, r0
 8001afc:	bf08      	it	eq
 8001afe:	460b      	moveq	r3, r1
 8001b00:	4861      	ldr	r0, [pc, #388]	@ (8001c88 <HAL_ADC_ConfigChannel+0x5b8>)
 8001b02:	681c      	ldr	r4, [r3, #0]
 8001b04:	4282      	cmp	r2, r0
 8001b06:	f004 71e0 	and.w	r1, r4, #29360128	@ 0x1c00000
 8001b0a:	d175      	bne.n	8001bf8 <HAL_ADC_ConfigChannel+0x528>
 8001b0c:	0222      	lsls	r2, r4, #8
 8001b0e:	d410      	bmi.n	8001b32 <HAL_ADC_ConfigChannel+0x462>
 8001b10:	681a      	ldr	r2, [r3, #0]
 8001b12:	f022 72e0 	bic.w	r2, r2, #29360128	@ 0x1c00000
 8001b16:	430a      	orrs	r2, r1
 8001b18:	f442 0200 	orr.w	r2, r2, #8388608	@ 0x800000
 8001b1c:	601a      	str	r2, [r3, #0]
 8001b1e:	4b55      	ldr	r3, [pc, #340]	@ (8001c74 <HAL_ADC_ConfigChannel+0x5a4>)
 8001b20:	4a55      	ldr	r2, [pc, #340]	@ (8001c78 <HAL_ADC_ConfigChannel+0x5a8>)
 8001b22:	681b      	ldr	r3, [r3, #0]
 8001b24:	fbb3 f3f2 	udiv	r3, r3, r2
 8001b28:	005b      	lsls	r3, r3, #1
 8001b2a:	9301      	str	r3, [sp, #4]
 8001b2c:	9b01      	ldr	r3, [sp, #4]
 8001b2e:	2b00      	cmp	r3, #0
 8001b30:	d15f      	bne.n	8001bf2 <HAL_ADC_ConfigChannel+0x522>
 8001b32:	f7ff fb95 	bl	8001260 <HAL_GetREVID>
 8001b36:	f5b0 5f00 	cmp.w	r0, #8192	@ 0x2000
 8001b3a:	d180      	bne.n	8001a3e <HAL_ADC_ConfigChannel+0x36e>
 8001b3c:	6832      	ldr	r2, [r6, #0]
 8001b3e:	4b56      	ldr	r3, [pc, #344]	@ (8001c98 <HAL_ADC_ConfigChannel+0x5c8>)
 8001b40:	429a      	cmp	r2, r3
 8001b42:	f47f af7c 	bne.w	8001a3e <HAL_ADC_ConfigChannel+0x36e>
 8001b46:	0263      	lsls	r3, r4, #9
 8001b48:	bf5f      	itttt	pl
 8001b4a:	683a      	ldrpl	r2, [r7, #0]
 8001b4c:	f8d2 30d0 	ldrpl.w	r3, [r2, #208]	@ 0xd0
 8001b50:	f043 0301 	orrpl.w	r3, r3, #1
 8001b54:	f8c2 30d0 	strpl.w	r3, [r2, #208]	@ 0xd0
 8001b58:	e771      	b.n	8001a3e <HAL_ADC_ConfigChannel+0x36e>
 8001b5a:	4c50      	ldr	r4, [pc, #320]	@ (8001c9c <HAL_ADC_ConfigChannel+0x5cc>)
 8001b5c:	e7ab      	b.n	8001ab6 <HAL_ADC_ConfigChannel+0x3e6>
 8001b5e:	4c50      	ldr	r4, [pc, #320]	@ (8001ca0 <HAL_ADC_ConfigChannel+0x5d0>)
 8001b60:	e7a9      	b.n	8001ab6 <HAL_ADC_ConfigChannel+0x3e6>
 8001b62:	4c50      	ldr	r4, [pc, #320]	@ (8001ca4 <HAL_ADC_ConfigChannel+0x5d4>)
 8001b64:	e7a7      	b.n	8001ab6 <HAL_ADC_ConfigChannel+0x3e6>
 8001b66:	4c50      	ldr	r4, [pc, #320]	@ (8001ca8 <HAL_ADC_ConfigChannel+0x5d8>)
 8001b68:	e7a5      	b.n	8001ab6 <HAL_ADC_ConfigChannel+0x3e6>
 8001b6a:	fa94 f2a4 	rbit	r2, r4
 8001b6e:	fab2 f282 	clz	r2, r2
 8001b72:	f002 021f 	and.w	r2, r2, #31
 8001b76:	e7af      	b.n	8001ad8 <HAL_ADC_ConfigChannel+0x408>
 8001b78:	210f      	movs	r1, #15
 8001b7a:	f8d7 3088 	ldr.w	r3, [r7, #136]	@ 0x88
 8001b7e:	f002 001f 	and.w	r0, r2, #31
 8001b82:	4081      	lsls	r1, r0
 8001b84:	ea23 0101 	bic.w	r1, r3, r1
 8001b88:	b9d5      	cbnz	r5, 8001bc0 <HAL_ADC_ConfigChannel+0x4f0>
 8001b8a:	f3c4 6384 	ubfx	r3, r4, #26, #5
 8001b8e:	4083      	lsls	r3, r0
 8001b90:	430b      	orrs	r3, r1
 8001b92:	f8c7 3088 	str.w	r3, [r7, #136]	@ 0x88
 8001b96:	0892      	lsrs	r2, r2, #2
 8001b98:	6abb      	ldr	r3, [r7, #40]	@ 0x28
 8001b9a:	3201      	adds	r2, #1
 8001b9c:	429a      	cmp	r2, r3
 8001b9e:	d8a0      	bhi.n	8001ae2 <HAL_ADC_ConfigChannel+0x412>
 8001ba0:	f7ff fb5e 	bl	8001260 <HAL_GetREVID>
 8001ba4:	f5b0 5f80 	cmp.w	r0, #4096	@ 0x1000
 8001ba8:	d804      	bhi.n	8001bb4 <HAL_ADC_ConfigChannel+0x4e4>
 8001baa:	b975      	cbnz	r5, 8001bca <HAL_ADC_ConfigChannel+0x4fa>
 8001bac:	f3c4 6384 	ubfx	r3, r4, #26, #5
 8001bb0:	2b13      	cmp	r3, #19
 8001bb2:	d81a      	bhi.n	8001bea <HAL_ADC_ConfigChannel+0x51a>
 8001bb4:	4622      	mov	r2, r4
 8001bb6:	6871      	ldr	r1, [r6, #4]
 8001bb8:	6838      	ldr	r0, [r7, #0]
 8001bba:	f7ff fb7f 	bl	80012bc <LL_ADC_REG_SetSequencerRanks>
 8001bbe:	e790      	b.n	8001ae2 <HAL_ADC_ConfigChannel+0x412>
 8001bc0:	fa94 f3a4 	rbit	r3, r4
 8001bc4:	fab3 f383 	clz	r3, r3
 8001bc8:	e7e1      	b.n	8001b8e <HAL_ADC_ConfigChannel+0x4be>
 8001bca:	fa94 f3a4 	rbit	r3, r4
 8001bce:	b11b      	cbz	r3, 8001bd8 <HAL_ADC_ConfigChannel+0x508>
 8001bd0:	fab3 f383 	clz	r3, r3
 8001bd4:	2b13      	cmp	r3, #19
 8001bd6:	dded      	ble.n	8001bb4 <HAL_ADC_ConfigChannel+0x4e4>
 8001bd8:	fa94 f4a4 	rbit	r4, r4
 8001bdc:	fab4 f484 	clz	r4, r4
 8001be0:	2301      	movs	r3, #1
 8001be2:	3c09      	subs	r4, #9
 8001be4:	fa03 f404 	lsl.w	r4, r3, r4
 8001be8:	e7e4      	b.n	8001bb4 <HAL_ADC_ConfigChannel+0x4e4>
 8001bea:	2401      	movs	r4, #1
 8001bec:	3b09      	subs	r3, #9
 8001bee:	409c      	lsls	r4, r3
 8001bf0:	e7e0      	b.n	8001bb4 <HAL_ADC_ConfigChannel+0x4e4>
 8001bf2:	9b01      	ldr	r3, [sp, #4]
 8001bf4:	3b01      	subs	r3, #1
 8001bf6:	e798      	b.n	8001b2a <HAL_ADC_ConfigChannel+0x45a>
 8001bf8:	4824      	ldr	r0, [pc, #144]	@ (8001c8c <HAL_ADC_ConfigChannel+0x5bc>)
 8001bfa:	4282      	cmp	r2, r0
 8001bfc:	d109      	bne.n	8001c12 <HAL_ADC_ConfigChannel+0x542>
 8001bfe:	01e5      	lsls	r5, r4, #7
 8001c00:	d497      	bmi.n	8001b32 <HAL_ADC_ConfigChannel+0x462>
 8001c02:	681a      	ldr	r2, [r3, #0]
 8001c04:	f022 72e0 	bic.w	r2, r2, #29360128	@ 0x1c00000
 8001c08:	430a      	orrs	r2, r1
 8001c0a:	f042 7280 	orr.w	r2, r2, #16777216	@ 0x1000000
 8001c0e:	601a      	str	r2, [r3, #0]
 8001c10:	e78f      	b.n	8001b32 <HAL_ADC_ConfigChannel+0x462>
 8001c12:	481c      	ldr	r0, [pc, #112]	@ (8001c84 <HAL_ADC_ConfigChannel+0x5b4>)
 8001c14:	4282      	cmp	r2, r0
 8001c16:	d108      	bne.n	8001c2a <HAL_ADC_ConfigChannel+0x55a>
 8001c18:	0260      	lsls	r0, r4, #9
 8001c1a:	d48a      	bmi.n	8001b32 <HAL_ADC_ConfigChannel+0x462>
 8001c1c:	681a      	ldr	r2, [r3, #0]
 8001c1e:	f022 72e0 	bic.w	r2, r2, #29360128	@ 0x1c00000
 8001c22:	430a      	orrs	r2, r1
 8001c24:	f442 0280 	orr.w	r2, r2, #4194304	@ 0x400000
 8001c28:	e7f1      	b.n	8001c0e <HAL_ADC_ConfigChannel+0x53e>
 8001c2a:	4819      	ldr	r0, [pc, #100]	@ (8001c90 <HAL_ADC_ConfigChannel+0x5c0>)
 8001c2c:	4282      	cmp	r2, r0
 8001c2e:	d180      	bne.n	8001b32 <HAL_ADC_ConfigChannel+0x462>
 8001c30:	0262      	lsls	r2, r4, #9
 8001c32:	f53f af7e 	bmi.w	8001b32 <HAL_ADC_ConfigChannel+0x462>
 8001c36:	4a1d      	ldr	r2, [pc, #116]	@ (8001cac <HAL_ADC_ConfigChannel+0x5dc>)
 8001c38:	4295      	cmp	r5, r2
 8001c3a:	f47f af7a 	bne.w	8001b32 <HAL_ADC_ConfigChannel+0x462>
 8001c3e:	681a      	ldr	r2, [r3, #0]
 8001c40:	f022 72e0 	bic.w	r2, r2, #29360128	@ 0x1c00000
 8001c44:	430a      	orrs	r2, r1
 8001c46:	f442 0280 	orr.w	r2, r2, #4194304	@ 0x400000
 8001c4a:	601a      	str	r2, [r3, #0]
 8001c4c:	f7ff fb08 	bl	8001260 <HAL_GetREVID>
 8001c50:	f5b0 5f80 	cmp.w	r0, #4096	@ 0x1000
 8001c54:	bf9f      	itttt	ls
 8001c56:	683a      	ldrls	r2, [r7, #0]
 8001c58:	f8d2 30d0 	ldrls.w	r3, [r2, #208]	@ 0xd0
 8001c5c:	f043 0301 	orrls.w	r3, r3, #1
 8001c60:	f8c2 30d0 	strls.w	r3, [r2, #208]	@ 0xd0
 8001c64:	e765      	b.n	8001b32 <HAL_ADC_ConfigChannel+0x462>
 8001c66:	bf00      	nop
 8001c68:	42028308 	.word	0x42028308
 8001c6c:	ce080000 	.word	0xce080000
 8001c70:	42028000 	.word	0x42028000
 8001c74:	20000000 	.word	0x20000000
 8001c78:	00030d40 	.word	0x00030d40
 8001c7c:	46021308 	.word	0x46021308
 8001c80:	ca040000 	.word	0xca040000
 8001c84:	80000001 	.word	0x80000001
 8001c88:	b6002000 	.word	0xb6002000
 8001c8c:	ba004000 	.word	0xba004000
 8001c90:	b2001000 	.word	0xb2001000
 8001c94:	d6200000 	.word	0xd6200000
 8001c98:	d7200000 	.word	0xd7200000
 8001c9c:	da400000 	.word	0xda400000
 8001ca0:	de800000 	.word	0xde800000
 8001ca4:	81000001 	.word	0x81000001
 8001ca8:	d2100000 	.word	0xd2100000
 8001cac:	46021000 	.word	0x46021000
 8001cb0:	f1b3 4f00 	cmp.w	r3, #2147483648	@ 0x80000000
 8001cb4:	d108      	bne.n	8001cc8 <HAL_ADC_ConfigChannel+0x5f8>
 8001cb6:	2201      	movs	r2, #1
 8001cb8:	6839      	ldr	r1, [r7, #0]
 8001cba:	f3c4 6484 	ubfx	r4, r4, #26, #5
 8001cbe:	6a8b      	ldr	r3, [r1, #40]	@ 0x28
 8001cc0:	40a2      	lsls	r2, r4
 8001cc2:	ea23 0302 	bic.w	r3, r3, r2
 8001cc6:	628b      	str	r3, [r1, #40]	@ 0x28
 8001cc8:	6832      	ldr	r2, [r6, #0]
 8001cca:	2a00      	cmp	r2, #0
 8001ccc:	f6bf aeb7 	bge.w	8001a3e <HAL_ADC_ConfigChannel+0x36e>
 8001cd0:	683c      	ldr	r4, [r7, #0]
 8001cd2:	4916      	ldr	r1, [pc, #88]	@ (8001d2c <HAL_ADC_ConfigChannel+0x65c>)
 8001cd4:	4816      	ldr	r0, [pc, #88]	@ (8001d30 <HAL_ADC_ConfigChannel+0x660>)
 8001cd6:	4b17      	ldr	r3, [pc, #92]	@ (8001d34 <HAL_ADC_ConfigChannel+0x664>)
 8001cd8:	4284      	cmp	r4, r0
 8001cda:	bf08      	it	eq
 8001cdc:	460b      	moveq	r3, r1
 8001cde:	4916      	ldr	r1, [pc, #88]	@ (8001d38 <HAL_ADC_ConfigChannel+0x668>)
 8001ce0:	681c      	ldr	r4, [r3, #0]
 8001ce2:	428a      	cmp	r2, r1
 8001ce4:	d106      	bne.n	8001cf4 <HAL_ADC_ConfigChannel+0x624>
 8001ce6:	6819      	ldr	r1, [r3, #0]
 8001ce8:	f004 72a0 	and.w	r2, r4, #20971520	@ 0x1400000
 8001cec:	f021 71e0 	bic.w	r1, r1, #29360128	@ 0x1c00000
 8001cf0:	430a      	orrs	r2, r1
 8001cf2:	e78c      	b.n	8001c0e <HAL_ADC_ConfigChannel+0x53e>
 8001cf4:	4911      	ldr	r1, [pc, #68]	@ (8001d3c <HAL_ADC_ConfigChannel+0x66c>)
 8001cf6:	428a      	cmp	r2, r1
 8001cf8:	d103      	bne.n	8001d02 <HAL_ADC_ConfigChannel+0x632>
 8001cfa:	6819      	ldr	r1, [r3, #0]
 8001cfc:	f404 0240 	and.w	r2, r4, #12582912	@ 0xc00000
 8001d00:	e7f4      	b.n	8001cec <HAL_ADC_ConfigChannel+0x61c>
 8001d02:	490f      	ldr	r1, [pc, #60]	@ (8001d40 <HAL_ADC_ConfigChannel+0x670>)
 8001d04:	428a      	cmp	r2, r1
 8001d06:	d103      	bne.n	8001d10 <HAL_ADC_ConfigChannel+0x640>
 8001d08:	6819      	ldr	r1, [r3, #0]
 8001d0a:	f004 72c0 	and.w	r2, r4, #25165824	@ 0x1800000
 8001d0e:	e7ed      	b.n	8001cec <HAL_ADC_ConfigChannel+0x61c>
 8001d10:	490c      	ldr	r1, [pc, #48]	@ (8001d44 <HAL_ADC_ConfigChannel+0x674>)
 8001d12:	428a      	cmp	r2, r1
 8001d14:	f47f af0d 	bne.w	8001b32 <HAL_ADC_ConfigChannel+0x462>
 8001d18:	6819      	ldr	r1, [r3, #0]
 8001d1a:	f004 72c0 	and.w	r2, r4, #25165824	@ 0x1800000
 8001d1e:	f021 71e0 	bic.w	r1, r1, #29360128	@ 0x1c00000
 8001d22:	430a      	orrs	r2, r1
 8001d24:	e791      	b.n	8001c4a <HAL_ADC_ConfigChannel+0x57a>
 8001d26:	2002      	movs	r0, #2
 8001d28:	e652      	b.n	80019d0 <HAL_ADC_ConfigChannel+0x300>
 8001d2a:	bf00      	nop
 8001d2c:	42028308 	.word	0x42028308
 8001d30:	42028000 	.word	0x42028000
 8001d34:	46021308 	.word	0x46021308
 8001d38:	ce080000 	.word	0xce080000
 8001d3c:	ca040000 	.word	0xca040000
 8001d40:	80000001 	.word	0x80000001
 8001d44:	b2001000 	.word	0xb2001000

08001d48 <HAL_NVIC_SetPriorityGrouping>:
 8001d48:	4907      	ldr	r1, [pc, #28]	@ (8001d68 <HAL_NVIC_SetPriorityGrouping+0x20>)
 8001d4a:	0203      	lsls	r3, r0, #8
 8001d4c:	68ca      	ldr	r2, [r1, #12]
 8001d4e:	f403 63e0 	and.w	r3, r3, #1792	@ 0x700
 8001d52:	f422 62e0 	bic.w	r2, r2, #1792	@ 0x700
 8001d56:	0412      	lsls	r2, r2, #16
 8001d58:	0c12      	lsrs	r2, r2, #16
 8001d5a:	4313      	orrs	r3, r2
 8001d5c:	f043 63bf 	orr.w	r3, r3, #100139008	@ 0x5f80000
 8001d60:	f443 3300 	orr.w	r3, r3, #131072	@ 0x20000
 8001d64:	60cb      	str	r3, [r1, #12]
 8001d66:	4770      	bx	lr
 8001d68:	e000ed00 	.word	0xe000ed00

08001d6c <HAL_NVIC_SetPriority>:
 8001d6c:	4b15      	ldr	r3, [pc, #84]	@ (8001dc4 <HAL_NVIC_SetPriority+0x58>)
 8001d6e:	b530      	push	{r4, r5, lr}
 8001d70:	68dc      	ldr	r4, [r3, #12]
 8001d72:	f3c4 2402 	ubfx	r4, r4, #8, #3
 8001d76:	f1c4 0307 	rsb	r3, r4, #7
 8001d7a:	1d25      	adds	r5, r4, #4
 8001d7c:	2b04      	cmp	r3, #4
 8001d7e:	bf28      	it	cs
 8001d80:	2304      	movcs	r3, #4
 8001d82:	2d06      	cmp	r5, #6
 8001d84:	f04f 35ff 	mov.w	r5, #4294967295
 8001d88:	bf94      	ite	ls
 8001d8a:	2400      	movls	r4, #0
 8001d8c:	3c03      	subhi	r4, #3
 8001d8e:	fa05 f303 	lsl.w	r3, r5, r3
 8001d92:	ea21 0303 	bic.w	r3, r1, r3
 8001d96:	40a5      	lsls	r5, r4
 8001d98:	ea22 0205 	bic.w	r2, r2, r5
 8001d9c:	40a3      	lsls	r3, r4
 8001d9e:	2800      	cmp	r0, #0
 8001da0:	ea43 0302 	orr.w	r3, r3, r2
 8001da4:	bfac      	ite	ge
 8001da6:	f100 4060 	addge.w	r0, r0, #3758096384	@ 0xe0000000
 8001daa:	4a07      	ldrlt	r2, [pc, #28]	@ (8001dc8 <HAL_NVIC_SetPriority+0x5c>)
 8001dac:	ea4f 1303 	mov.w	r3, r3, lsl #4
 8001db0:	b2db      	uxtb	r3, r3
 8001db2:	bfab      	itete	ge
 8001db4:	f500 4061 	addge.w	r0, r0, #57600	@ 0xe100
 8001db8:	f000 000f 	andlt.w	r0, r0, #15
 8001dbc:	f880 3300 	strbge.w	r3, [r0, #768]	@ 0x300
 8001dc0:	5413      	strblt	r3, [r2, r0]
 8001dc2:	bd30      	pop	{r4, r5, pc}
 8001dc4:	e000ed00 	.word	0xe000ed00
 8001dc8:	e000ed14 	.word	0xe000ed14

08001dcc <HAL_NVIC_EnableIRQ>:
 8001dcc:	2800      	cmp	r0, #0
 8001dce:	db07      	blt.n	8001de0 <HAL_NVIC_EnableIRQ+0x14>
 8001dd0:	2301      	movs	r3, #1
 8001dd2:	0941      	lsrs	r1, r0, #5
 8001dd4:	4a03      	ldr	r2, [pc, #12]	@ (8001de4 <HAL_NVIC_EnableIRQ+0x18>)
 8001dd6:	f000 001f 	and.w	r0, r0, #31
 8001dda:	4083      	lsls	r3, r0
 8001ddc:	f842 3021 	str.w	r3, [r2, r1, lsl #2]
 8001de0:	4770      	bx	lr
 8001de2:	bf00      	nop
 8001de4:	e000e100 	.word	0xe000e100

08001de8 <HAL_SYSTICK_CLKSourceConfig>:
 8001de8:	2804      	cmp	r0, #4
 8001dea:	d818      	bhi.n	8001e1e <HAL_SYSTICK_CLKSourceConfig+0x36>
 8001dec:	e8df f000 	tbb	[pc, r0]
 8001df0:	1726180a 	.word	0x1726180a
 8001df4:	03          	.byte	0x03
 8001df5:	00          	.byte	0x00
 8001df6:	f04f 22e0 	mov.w	r2, #3758153728	@ 0xe000e000
 8001dfa:	6913      	ldr	r3, [r2, #16]
 8001dfc:	f043 0304 	orr.w	r3, r3, #4
 8001e00:	6113      	str	r3, [r2, #16]
 8001e02:	4770      	bx	lr
 8001e04:	f04f 22e0 	mov.w	r2, #3758153728	@ 0xe000e000
 8001e08:	6913      	ldr	r3, [r2, #16]
 8001e0a:	f023 0304 	bic.w	r3, r3, #4
 8001e0e:	6113      	str	r3, [r2, #16]
 8001e10:	4a11      	ldr	r2, [pc, #68]	@ (8001e58 <HAL_SYSTICK_CLKSourceConfig+0x70>)
 8001e12:	f8d2 30e0 	ldr.w	r3, [r2, #224]	@ 0xe0
 8001e16:	f423 0340 	bic.w	r3, r3, #12582912	@ 0xc00000
 8001e1a:	f8c2 30e0 	str.w	r3, [r2, #224]	@ 0xe0
 8001e1e:	4770      	bx	lr
 8001e20:	f04f 22e0 	mov.w	r2, #3758153728	@ 0xe000e000
 8001e24:	6913      	ldr	r3, [r2, #16]
 8001e26:	f023 0304 	bic.w	r3, r3, #4
 8001e2a:	6113      	str	r3, [r2, #16]
 8001e2c:	4a0a      	ldr	r2, [pc, #40]	@ (8001e58 <HAL_SYSTICK_CLKSourceConfig+0x70>)
 8001e2e:	f8d2 30e0 	ldr.w	r3, [r2, #224]	@ 0xe0
 8001e32:	f423 0340 	bic.w	r3, r3, #12582912	@ 0xc00000
 8001e36:	f443 0380 	orr.w	r3, r3, #4194304	@ 0x400000
 8001e3a:	e7ee      	b.n	8001e1a <HAL_SYSTICK_CLKSourceConfig+0x32>
 8001e3c:	f04f 22e0 	mov.w	r2, #3758153728	@ 0xe000e000
 8001e40:	6913      	ldr	r3, [r2, #16]
 8001e42:	f023 0304 	bic.w	r3, r3, #4
 8001e46:	6113      	str	r3, [r2, #16]
 8001e48:	4a03      	ldr	r2, [pc, #12]	@ (8001e58 <HAL_SYSTICK_CLKSourceConfig+0x70>)
 8001e4a:	f8d2 30e0 	ldr.w	r3, [r2, #224]	@ 0xe0
 8001e4e:	f423 0340 	bic.w	r3, r3, #12582912	@ 0xc00000
 8001e52:	f443 0300 	orr.w	r3, r3, #8388608	@ 0x800000
 8001e56:	e7e0      	b.n	8001e1a <HAL_SYSTICK_CLKSourceConfig+0x32>
 8001e58:	46020c00 	.word	0x46020c00

08001e5c <HAL_DMA_Init>:
 8001e5c:	b538      	push	{r3, r4, r5, lr}
 8001e5e:	4604      	mov	r4, r0
 8001e60:	f7ff f9e6 	bl	8001230 <HAL_GetTick>
 8001e64:	4605      	mov	r5, r0
 8001e66:	2c00      	cmp	r4, #0
 8001e68:	f000 81a6 	beq.w	80021b8 <HAL_DMA_Init+0x35c>
 8001e6c:	2300      	movs	r3, #0
 8001e6e:	f884 304c 	strb.w	r3, [r4, #76]	@ 0x4c
 8001e72:	2302      	movs	r3, #2
 8001e74:	6822      	ldr	r2, [r4, #0]
 8001e76:	f884 3054 	strb.w	r3, [r4, #84]	@ 0x54
 8001e7a:	6953      	ldr	r3, [r2, #20]
 8001e7c:	f043 0306 	orr.w	r3, r3, #6
 8001e80:	6153      	str	r3, [r2, #20]
 8001e82:	6823      	ldr	r3, [r4, #0]
 8001e84:	695a      	ldr	r2, [r3, #20]
 8001e86:	07d2      	lsls	r2, r2, #31
 8001e88:	f100 818b 	bmi.w	80021a2 <HAL_DMA_Init+0x346>
 8001e8c:	695a      	ldr	r2, [r3, #20]
 8001e8e:	6a21      	ldr	r1, [r4, #32]
 8001e90:	f422 0243 	bic.w	r2, r2, #12779520	@ 0xc30000
 8001e94:	430a      	orrs	r2, r1
 8001e96:	615a      	str	r2, [r3, #20]
 8001e98:	69e1      	ldr	r1, [r4, #28]
 8001e9a:	6962      	ldr	r2, [r4, #20]
 8001e9c:	4db0      	ldr	r5, [pc, #704]	@ (8002160 <HAL_DMA_Init+0x304>)
 8001e9e:	430a      	orrs	r2, r1
 8001ea0:	6921      	ldr	r1, [r4, #16]
 8001ea2:	42ab      	cmp	r3, r5
 8001ea4:	ea42 0201 	orr.w	r2, r2, r1
 8001ea8:	69a1      	ldr	r1, [r4, #24]
 8001eaa:	48ae      	ldr	r0, [pc, #696]	@ (8002164 <HAL_DMA_Init+0x308>)
 8001eac:	ea42 0201 	orr.w	r2, r2, r1
 8001eb0:	f000 8087 	beq.w	8001fc2 <HAL_DMA_Init+0x166>
 8001eb4:	49ac      	ldr	r1, [pc, #688]	@ (8002168 <HAL_DMA_Init+0x30c>)
 8001eb6:	428b      	cmp	r3, r1
 8001eb8:	f000 8083 	beq.w	8001fc2 <HAL_DMA_Init+0x166>
 8001ebc:	f101 4170 	add.w	r1, r1, #4026531840	@ 0xf0000000
 8001ec0:	3180      	adds	r1, #128	@ 0x80
 8001ec2:	428b      	cmp	r3, r1
 8001ec4:	d07d      	beq.n	8001fc2 <HAL_DMA_Init+0x166>
 8001ec6:	f101 5180 	add.w	r1, r1, #268435456	@ 0x10000000
 8001eca:	428b      	cmp	r3, r1
 8001ecc:	d079      	beq.n	8001fc2 <HAL_DMA_Init+0x166>
 8001ece:	f101 4170 	add.w	r1, r1, #4026531840	@ 0xf0000000
 8001ed2:	3180      	adds	r1, #128	@ 0x80
 8001ed4:	428b      	cmp	r3, r1
 8001ed6:	d074      	beq.n	8001fc2 <HAL_DMA_Init+0x166>
 8001ed8:	f101 5180 	add.w	r1, r1, #268435456	@ 0x10000000
 8001edc:	428b      	cmp	r3, r1
 8001ede:	d070      	beq.n	8001fc2 <HAL_DMA_Init+0x166>
 8001ee0:	f101 4170 	add.w	r1, r1, #4026531840	@ 0xf0000000
 8001ee4:	3180      	adds	r1, #128	@ 0x80
 8001ee6:	428b      	cmp	r3, r1
 8001ee8:	d06b      	beq.n	8001fc2 <HAL_DMA_Init+0x166>
 8001eea:	f101 5180 	add.w	r1, r1, #268435456	@ 0x10000000
 8001eee:	428b      	cmp	r3, r1
 8001ef0:	d067      	beq.n	8001fc2 <HAL_DMA_Init+0x166>
 8001ef2:	f101 4170 	add.w	r1, r1, #4026531840	@ 0xf0000000
 8001ef6:	3180      	adds	r1, #128	@ 0x80
 8001ef8:	428b      	cmp	r3, r1
 8001efa:	d062      	beq.n	8001fc2 <HAL_DMA_Init+0x166>
 8001efc:	f101 5180 	add.w	r1, r1, #268435456	@ 0x10000000
 8001f00:	428b      	cmp	r3, r1
 8001f02:	d05e      	beq.n	8001fc2 <HAL_DMA_Init+0x166>
 8001f04:	f101 4170 	add.w	r1, r1, #4026531840	@ 0xf0000000
 8001f08:	3180      	adds	r1, #128	@ 0x80
 8001f0a:	428b      	cmp	r3, r1
 8001f0c:	d059      	beq.n	8001fc2 <HAL_DMA_Init+0x166>
 8001f0e:	f101 5180 	add.w	r1, r1, #268435456	@ 0x10000000
 8001f12:	428b      	cmp	r3, r1
 8001f14:	d055      	beq.n	8001fc2 <HAL_DMA_Init+0x166>
 8001f16:	f101 4170 	add.w	r1, r1, #4026531840	@ 0xf0000000
 8001f1a:	3180      	adds	r1, #128	@ 0x80
 8001f1c:	428b      	cmp	r3, r1
 8001f1e:	d050      	beq.n	8001fc2 <HAL_DMA_Init+0x166>
 8001f20:	f101 5180 	add.w	r1, r1, #268435456	@ 0x10000000
 8001f24:	428b      	cmp	r3, r1
 8001f26:	d04c      	beq.n	8001fc2 <HAL_DMA_Init+0x166>
 8001f28:	f101 4170 	add.w	r1, r1, #4026531840	@ 0xf0000000
 8001f2c:	3180      	adds	r1, #128	@ 0x80
 8001f2e:	428b      	cmp	r3, r1
 8001f30:	d047      	beq.n	8001fc2 <HAL_DMA_Init+0x166>
 8001f32:	f101 5180 	add.w	r1, r1, #268435456	@ 0x10000000
 8001f36:	428b      	cmp	r3, r1
 8001f38:	d043      	beq.n	8001fc2 <HAL_DMA_Init+0x166>
 8001f3a:	f101 4170 	add.w	r1, r1, #4026531840	@ 0xf0000000
 8001f3e:	3180      	adds	r1, #128	@ 0x80
 8001f40:	428b      	cmp	r3, r1
 8001f42:	d03e      	beq.n	8001fc2 <HAL_DMA_Init+0x166>
 8001f44:	f101 5180 	add.w	r1, r1, #268435456	@ 0x10000000
 8001f48:	428b      	cmp	r3, r1
 8001f4a:	d03a      	beq.n	8001fc2 <HAL_DMA_Init+0x166>
 8001f4c:	f101 4170 	add.w	r1, r1, #4026531840	@ 0xf0000000
 8001f50:	3180      	adds	r1, #128	@ 0x80
 8001f52:	428b      	cmp	r3, r1
 8001f54:	d035      	beq.n	8001fc2 <HAL_DMA_Init+0x166>
 8001f56:	f101 5180 	add.w	r1, r1, #268435456	@ 0x10000000
 8001f5a:	428b      	cmp	r3, r1
 8001f5c:	d031      	beq.n	8001fc2 <HAL_DMA_Init+0x166>
 8001f5e:	f101 4170 	add.w	r1, r1, #4026531840	@ 0xf0000000
 8001f62:	3180      	adds	r1, #128	@ 0x80
 8001f64:	428b      	cmp	r3, r1
 8001f66:	d02c      	beq.n	8001fc2 <HAL_DMA_Init+0x166>
 8001f68:	f101 5180 	add.w	r1, r1, #268435456	@ 0x10000000
 8001f6c:	428b      	cmp	r3, r1
 8001f6e:	d028      	beq.n	8001fc2 <HAL_DMA_Init+0x166>
 8001f70:	f101 4170 	add.w	r1, r1, #4026531840	@ 0xf0000000
 8001f74:	3180      	adds	r1, #128	@ 0x80
 8001f76:	428b      	cmp	r3, r1
 8001f78:	d023      	beq.n	8001fc2 <HAL_DMA_Init+0x166>
 8001f7a:	f101 5180 	add.w	r1, r1, #268435456	@ 0x10000000
 8001f7e:	428b      	cmp	r3, r1
 8001f80:	d01f      	beq.n	8001fc2 <HAL_DMA_Init+0x166>
 8001f82:	4283      	cmp	r3, r0
 8001f84:	d01d      	beq.n	8001fc2 <HAL_DMA_Init+0x166>
 8001f86:	3180      	adds	r1, #128	@ 0x80
 8001f88:	428b      	cmp	r3, r1
 8001f8a:	d01a      	beq.n	8001fc2 <HAL_DMA_Init+0x166>
 8001f8c:	f101 4170 	add.w	r1, r1, #4026531840	@ 0xf0000000
 8001f90:	3180      	adds	r1, #128	@ 0x80
 8001f92:	428b      	cmp	r3, r1
 8001f94:	d015      	beq.n	8001fc2 <HAL_DMA_Init+0x166>
 8001f96:	f101 5180 	add.w	r1, r1, #268435456	@ 0x10000000
 8001f9a:	428b      	cmp	r3, r1
 8001f9c:	d011      	beq.n	8001fc2 <HAL_DMA_Init+0x166>
 8001f9e:	f101 4170 	add.w	r1, r1, #4026531840	@ 0xf0000000
 8001fa2:	3180      	adds	r1, #128	@ 0x80
 8001fa4:	428b      	cmp	r3, r1
 8001fa6:	d00c      	beq.n	8001fc2 <HAL_DMA_Init+0x166>
 8001fa8:	f101 5180 	add.w	r1, r1, #268435456	@ 0x10000000
 8001fac:	428b      	cmp	r3, r1
 8001fae:	d008      	beq.n	8001fc2 <HAL_DMA_Init+0x166>
 8001fb0:	f101 4170 	add.w	r1, r1, #4026531840	@ 0xf0000000
 8001fb4:	3180      	adds	r1, #128	@ 0x80
 8001fb6:	428b      	cmp	r3, r1
 8001fb8:	d003      	beq.n	8001fc2 <HAL_DMA_Init+0x166>
 8001fba:	f101 5180 	add.w	r1, r1, #268435456	@ 0x10000000
 8001fbe:	428b      	cmp	r3, r1
 8001fc0:	d10d      	bne.n	8001fde <HAL_DMA_Init+0x182>
 8001fc2:	6aa1      	ldr	r1, [r4, #40]	@ 0x28
 8001fc4:	3901      	subs	r1, #1
 8001fc6:	0509      	lsls	r1, r1, #20
 8001fc8:	f001 717c 	and.w	r1, r1, #66060288	@ 0x3f00000
 8001fcc:	4311      	orrs	r1, r2
 8001fce:	6ae2      	ldr	r2, [r4, #44]	@ 0x2c
 8001fd0:	4311      	orrs	r1, r2
 8001fd2:	6a62      	ldr	r2, [r4, #36]	@ 0x24
 8001fd4:	3a01      	subs	r2, #1
 8001fd6:	0112      	lsls	r2, r2, #4
 8001fd8:	f402 727c 	and.w	r2, r2, #1008	@ 0x3f0
 8001fdc:	430a      	orrs	r2, r1
 8001fde:	6c19      	ldr	r1, [r3, #64]	@ 0x40
 8001fe0:	f001 2180 	and.w	r1, r1, #2147516416	@ 0x80008000
 8001fe4:	430a      	orrs	r2, r1
 8001fe6:	641a      	str	r2, [r3, #64]	@ 0x40
 8001fe8:	68a1      	ldr	r1, [r4, #8]
 8001fea:	6b22      	ldr	r2, [r4, #48]	@ 0x30
 8001fec:	4311      	orrs	r1, r2
 8001fee:	6862      	ldr	r2, [r4, #4]
 8001ff0:	f002 027f 	and.w	r2, r2, #127	@ 0x7f
 8001ff4:	4311      	orrs	r1, r2
 8001ff6:	68e2      	ldr	r2, [r4, #12]
 8001ff8:	f5b2 6f80 	cmp.w	r2, #1024	@ 0x400
 8001ffc:	f040 80de 	bne.w	80021bc <HAL_DMA_Init+0x360>
 8002000:	42ab      	cmp	r3, r5
 8002002:	f000 8087 	beq.w	8002114 <HAL_DMA_Init+0x2b8>
 8002006:	4a58      	ldr	r2, [pc, #352]	@ (8002168 <HAL_DMA_Init+0x30c>)
 8002008:	4293      	cmp	r3, r2
 800200a:	f000 8083 	beq.w	8002114 <HAL_DMA_Init+0x2b8>
 800200e:	f102 4270 	add.w	r2, r2, #4026531840	@ 0xf0000000
 8002012:	3280      	adds	r2, #128	@ 0x80
 8002014:	4293      	cmp	r3, r2
 8002016:	d07d      	beq.n	8002114 <HAL_DMA_Init+0x2b8>
 8002018:	f102 5280 	add.w	r2, r2, #268435456	@ 0x10000000
 800201c:	4293      	cmp	r3, r2
 800201e:	d079      	beq.n	8002114 <HAL_DMA_Init+0x2b8>
 8002020:	f102 4270 	add.w	r2, r2, #4026531840	@ 0xf0000000
 8002024:	3280      	adds	r2, #128	@ 0x80
 8002026:	4293      	cmp	r3, r2
 8002028:	d074      	beq.n	8002114 <HAL_DMA_Init+0x2b8>
 800202a:	f102 5280 	add.w	r2, r2, #268435456	@ 0x10000000
 800202e:	4293      	cmp	r3, r2
 8002030:	d070      	beq.n	8002114 <HAL_DMA_Init+0x2b8>
 8002032:	f102 4270 	add.w	r2, r2, #4026531840	@ 0xf0000000
 8002036:	3280      	adds	r2, #128	@ 0x80
 8002038:	4293      	cmp	r3, r2
 800203a:	d06b      	beq.n	8002114 <HAL_DMA_Init+0x2b8>
 800203c:	f102 5280 	add.w	r2, r2, #268435456	@ 0x10000000
 8002040:	4293      	cmp	r3, r2
 8002042:	d067      	beq.n	8002114 <HAL_DMA_Init+0x2b8>
 8002044:	f102 4270 	add.w	r2, r2, #4026531840	@ 0xf0000000
 8002048:	3280      	adds	r2, #128	@ 0x80
 800204a:	4293      	cmp	r3, r2
 800204c:	d062      	beq.n	8002114 <HAL_DMA_Init+0x2b8>
 800204e:	f102 5280 	add.w	r2, r2, #268435456	@ 0x10000000
 8002052:	4293      	cmp	r3, r2
 8002054:	d05e      	beq.n	8002114 <HAL_DMA_Init+0x2b8>
 8002056:	f102 4270 	add.w	r2, r2, #4026531840	@ 0xf0000000
 800205a:	3280      	adds	r2, #128	@ 0x80
 800205c:	4293      	cmp	r3, r2
 800205e:	d059      	beq.n	8002114 <HAL_DMA_Init+0x2b8>
 8002060:	f102 5280 	add.w	r2, r2, #268435456	@ 0x10000000
 8002064:	4293      	cmp	r3, r2
 8002066:	d055      	beq.n	8002114 <HAL_DMA_Init+0x2b8>
 8002068:	f102 4270 	add.w	r2, r2, #4026531840	@ 0xf0000000
 800206c:	3280      	adds	r2, #128	@ 0x80
 800206e:	4293      	cmp	r3, r2
 8002070:	d050      	beq.n	8002114 <HAL_DMA_Init+0x2b8>
 8002072:	f102 5280 	add.w	r2, r2, #268435456	@ 0x10000000
 8002076:	4293      	cmp	r3, r2
 8002078:	d04c      	beq.n	8002114 <HAL_DMA_Init+0x2b8>
 800207a:	f102 4270 	add.w	r2, r2, #4026531840	@ 0xf0000000
 800207e:	3280      	adds	r2, #128	@ 0x80
 8002080:	4293      	cmp	r3, r2
 8002082:	d047      	beq.n	8002114 <HAL_DMA_Init+0x2b8>
 8002084:	f102 5280 	add.w	r2, r2, #268435456	@ 0x10000000
 8002088:	4293      	cmp	r3, r2
 800208a:	d043      	beq.n	8002114 <HAL_DMA_Init+0x2b8>
 800208c:	f102 4270 	add.w	r2, r2, #4026531840	@ 0xf0000000
 8002090:	3280      	adds	r2, #128	@ 0x80
 8002092:	4293      	cmp	r3, r2
 8002094:	d03e      	beq.n	8002114 <HAL_DMA_Init+0x2b8>
 8002096:	f102 5280 	add.w	r2, r2, #268435456	@ 0x10000000
 800209a:	4293      	cmp	r3, r2
 800209c:	d03a      	beq.n	8002114 <HAL_DMA_Init+0x2b8>
 800209e:	f102 4270 	add.w	r2, r2, #4026531840	@ 0xf0000000
 80020a2:	3280      	adds	r2, #128	@ 0x80
 80020a4:	4293      	cmp	r3, r2
 80020a6:	d035      	beq.n	8002114 <HAL_DMA_Init+0x2b8>
 80020a8:	f102 5280 	add.w	r2, r2, #268435456	@ 0x10000000
 80020ac:	4293      	cmp	r3, r2
 80020ae:	d031      	beq.n	8002114 <HAL_DMA_Init+0x2b8>
 80020b0:	f102 4270 	add.w	r2, r2, #4026531840	@ 0xf0000000
 80020b4:	3280      	adds	r2, #128	@ 0x80
 80020b6:	4293      	cmp	r3, r2
 80020b8:	d02c      	beq.n	8002114 <HAL_DMA_Init+0x2b8>
 80020ba:	f102 5280 	add.w	r2, r2, #268435456	@ 0x10000000
 80020be:	4293      	cmp	r3, r2
 80020c0:	d028      	beq.n	8002114 <HAL_DMA_Init+0x2b8>
 80020c2:	f102 4270 	add.w	r2, r2, #4026531840	@ 0xf0000000
 80020c6:	3280      	adds	r2, #128	@ 0x80
 80020c8:	4293      	cmp	r3, r2
 80020ca:	d023      	beq.n	8002114 <HAL_DMA_Init+0x2b8>
 80020cc:	f102 5280 	add.w	r2, r2, #268435456	@ 0x10000000
 80020d0:	4293      	cmp	r3, r2
 80020d2:	d01f      	beq.n	8002114 <HAL_DMA_Init+0x2b8>
 80020d4:	4283      	cmp	r3, r0
 80020d6:	d01d      	beq.n	8002114 <HAL_DMA_Init+0x2b8>
 80020d8:	3280      	adds	r2, #128	@ 0x80
 80020da:	4293      	cmp	r3, r2
 80020dc:	d01a      	beq.n	8002114 <HAL_DMA_Init+0x2b8>
 80020de:	f102 4270 	add.w	r2, r2, #4026531840	@ 0xf0000000
 80020e2:	3280      	adds	r2, #128	@ 0x80
 80020e4:	4293      	cmp	r3, r2
 80020e6:	d015      	beq.n	8002114 <HAL_DMA_Init+0x2b8>
 80020e8:	f102 5280 	add.w	r2, r2, #268435456	@ 0x10000000
 80020ec:	4293      	cmp	r3, r2
 80020ee:	d011      	beq.n	8002114 <HAL_DMA_Init+0x2b8>
 80020f0:	f102 4270 	add.w	r2, r2, #4026531840	@ 0xf0000000
 80020f4:	3280      	adds	r2, #128	@ 0x80
 80020f6:	4293      	cmp	r3, r2
 80020f8:	d00c      	beq.n	8002114 <HAL_DMA_Init+0x2b8>
 80020fa:	f102 5280 	add.w	r2, r2, #268435456	@ 0x10000000
 80020fe:	4293      	cmp	r3, r2
 8002100:	d008      	beq.n	8002114 <HAL_DMA_Init+0x2b8>
 8002102:	f102 4270 	add.w	r2, r2, #4026531840	@ 0xf0000000
 8002106:	3280      	adds	r2, #128	@ 0x80
 8002108:	4293      	cmp	r3, r2
 800210a:	d003      	beq.n	8002114 <HAL_DMA_Init+0x2b8>
 800210c:	f102 5280 	add.w	r2, r2, #268435456	@ 0x10000000
 8002110:	4293      	cmp	r3, r2
 8002112:	d101      	bne.n	8002118 <HAL_DMA_Init+0x2bc>
 8002114:	f441 6180 	orr.w	r1, r1, #1024	@ 0x400
 8002118:	6c5a      	ldr	r2, [r3, #68]	@ 0x44
 800211a:	4283      	cmp	r3, r0
 800211c:	f022 4243 	bic.w	r2, r2, #3271557120	@ 0xc3000000
 8002120:	f422 127f 	bic.w	r2, r2, #4177920	@ 0x3fc000
 8002124:	f422 6267 	bic.w	r2, r2, #3696	@ 0xe70
 8002128:	f022 020f 	bic.w	r2, r2, #15
 800212c:	ea42 0201 	orr.w	r2, r2, r1
 8002130:	645a      	str	r2, [r3, #68]	@ 0x44
 8002132:	f04f 0200 	mov.w	r2, #0
 8002136:	649a      	str	r2, [r3, #72]	@ 0x48
 8002138:	d027      	beq.n	800218a <HAL_DMA_Init+0x32e>
 800213a:	4a0c      	ldr	r2, [pc, #48]	@ (800216c <HAL_DMA_Init+0x310>)
 800213c:	4293      	cmp	r3, r2
 800213e:	d024      	beq.n	800218a <HAL_DMA_Init+0x32e>
 8002140:	f102 4270 	add.w	r2, r2, #4026531840	@ 0xf0000000
 8002144:	3280      	adds	r2, #128	@ 0x80
 8002146:	4293      	cmp	r3, r2
 8002148:	d01f      	beq.n	800218a <HAL_DMA_Init+0x32e>
 800214a:	f102 5280 	add.w	r2, r2, #268435456	@ 0x10000000
 800214e:	4293      	cmp	r3, r2
 8002150:	d01b      	beq.n	800218a <HAL_DMA_Init+0x32e>
 8002152:	f102 4270 	add.w	r2, r2, #4026531840	@ 0xf0000000
 8002156:	3280      	adds	r2, #128	@ 0x80
 8002158:	4293      	cmp	r3, r2
 800215a:	d016      	beq.n	800218a <HAL_DMA_Init+0x32e>
 800215c:	e008      	b.n	8002170 <HAL_DMA_Init+0x314>
 800215e:	bf00      	nop
 8002160:	40020050 	.word	0x40020050
 8002164:	40020650 	.word	0x40020650
 8002168:	50020050 	.word	0x50020050
 800216c:	50020650 	.word	0x50020650
 8002170:	f102 5280 	add.w	r2, r2, #268435456	@ 0x10000000
 8002174:	4293      	cmp	r3, r2
 8002176:	d008      	beq.n	800218a <HAL_DMA_Init+0x32e>
 8002178:	f102 4270 	add.w	r2, r2, #4026531840	@ 0xf0000000
 800217c:	3280      	adds	r2, #128	@ 0x80
 800217e:	4293      	cmp	r3, r2
 8002180:	d003      	beq.n	800218a <HAL_DMA_Init+0x32e>
 8002182:	f102 5280 	add.w	r2, r2, #268435456	@ 0x10000000
 8002186:	4293      	cmp	r3, r2
 8002188:	d102      	bne.n	8002190 <HAL_DMA_Init+0x334>
 800218a:	2200      	movs	r2, #0
 800218c:	655a      	str	r2, [r3, #84]	@ 0x54
 800218e:	659a      	str	r2, [r3, #88]	@ 0x58
 8002190:	2000      	movs	r0, #0
 8002192:	67d8      	str	r0, [r3, #124]	@ 0x7c
 8002194:	6b63      	ldr	r3, [r4, #52]	@ 0x34
 8002196:	65a0      	str	r0, [r4, #88]	@ 0x58
 8002198:	6523      	str	r3, [r4, #80]	@ 0x50
 800219a:	2301      	movs	r3, #1
 800219c:	f884 3054 	strb.w	r3, [r4, #84]	@ 0x54
 80021a0:	e00b      	b.n	80021ba <HAL_DMA_Init+0x35e>
 80021a2:	f7ff f845 	bl	8001230 <HAL_GetTick>
 80021a6:	1b40      	subs	r0, r0, r5
 80021a8:	2805      	cmp	r0, #5
 80021aa:	f67f ae6a 	bls.w	8001e82 <HAL_DMA_Init+0x26>
 80021ae:	2310      	movs	r3, #16
 80021b0:	65a3      	str	r3, [r4, #88]	@ 0x58
 80021b2:	2303      	movs	r3, #3
 80021b4:	f884 3054 	strb.w	r3, [r4, #84]	@ 0x54
 80021b8:	2001      	movs	r0, #1
 80021ba:	bd38      	pop	{r3, r4, r5, pc}
 80021bc:	f5b2 7f00 	cmp.w	r2, #512	@ 0x200
 80021c0:	bf08      	it	eq
 80021c2:	f441 7100 	orreq.w	r1, r1, #512	@ 0x200
 80021c6:	e7a7      	b.n	8002118 <HAL_DMA_Init+0x2bc>

080021c8 <HAL_DMA_IRQHandler>:
 80021c8:	2101      	movs	r1, #1
 80021ca:	6803      	ldr	r3, [r0, #0]
 80021cc:	b510      	push	{r4, lr}
 80021ce:	f423 627f 	bic.w	r2, r3, #4080	@ 0xff0
 80021d2:	f022 020f 	bic.w	r2, r2, #15
 80021d6:	4604      	mov	r4, r0
 80021d8:	68d0      	ldr	r0, [r2, #12]
 80021da:	f3c3 020b 	ubfx	r2, r3, #0, #12
 80021de:	3a50      	subs	r2, #80	@ 0x50
 80021e0:	f3c2 12c4 	ubfx	r2, r2, #7, #5
 80021e4:	fa01 f202 	lsl.w	r2, r1, r2
 80021e8:	4202      	tst	r2, r0
 80021ea:	f000 80ab 	beq.w	8002344 <HAL_DMA_IRQHandler+0x17c>
 80021ee:	691a      	ldr	r2, [r3, #16]
 80021f0:	0550      	lsls	r0, r2, #21
 80021f2:	d508      	bpl.n	8002206 <HAL_DMA_IRQHandler+0x3e>
 80021f4:	695a      	ldr	r2, [r3, #20]
 80021f6:	0552      	lsls	r2, r2, #21
 80021f8:	d505      	bpl.n	8002206 <HAL_DMA_IRQHandler+0x3e>
 80021fa:	f44f 6280 	mov.w	r2, #1024	@ 0x400
 80021fe:	60da      	str	r2, [r3, #12]
 8002200:	6da2      	ldr	r2, [r4, #88]	@ 0x58
 8002202:	430a      	orrs	r2, r1
 8002204:	65a2      	str	r2, [r4, #88]	@ 0x58
 8002206:	691a      	ldr	r2, [r3, #16]
 8002208:	0510      	lsls	r0, r2, #20
 800220a:	d509      	bpl.n	8002220 <HAL_DMA_IRQHandler+0x58>
 800220c:	695a      	ldr	r2, [r3, #20]
 800220e:	0511      	lsls	r1, r2, #20
 8002210:	d506      	bpl.n	8002220 <HAL_DMA_IRQHandler+0x58>
 8002212:	f44f 6200 	mov.w	r2, #2048	@ 0x800
 8002216:	60da      	str	r2, [r3, #12]
 8002218:	6da2      	ldr	r2, [r4, #88]	@ 0x58
 800221a:	f042 0202 	orr.w	r2, r2, #2
 800221e:	65a2      	str	r2, [r4, #88]	@ 0x58
 8002220:	691a      	ldr	r2, [r3, #16]
 8002222:	04d2      	lsls	r2, r2, #19
 8002224:	d509      	bpl.n	800223a <HAL_DMA_IRQHandler+0x72>
 8002226:	695a      	ldr	r2, [r3, #20]
 8002228:	04d0      	lsls	r0, r2, #19
 800222a:	d506      	bpl.n	800223a <HAL_DMA_IRQHandler+0x72>
 800222c:	f44f 5280 	mov.w	r2, #4096	@ 0x1000
 8002230:	60da      	str	r2, [r3, #12]
 8002232:	6da2      	ldr	r2, [r4, #88]	@ 0x58
 8002234:	f042 0204 	orr.w	r2, r2, #4
 8002238:	65a2      	str	r2, [r4, #88]	@ 0x58
 800223a:	691a      	ldr	r2, [r3, #16]
 800223c:	0451      	lsls	r1, r2, #17
 800223e:	d509      	bpl.n	8002254 <HAL_DMA_IRQHandler+0x8c>
 8002240:	695a      	ldr	r2, [r3, #20]
 8002242:	0452      	lsls	r2, r2, #17
 8002244:	d506      	bpl.n	8002254 <HAL_DMA_IRQHandler+0x8c>
 8002246:	f44f 4280 	mov.w	r2, #16384	@ 0x4000
 800224a:	60da      	str	r2, [r3, #12]
 800224c:	6da2      	ldr	r2, [r4, #88]	@ 0x58
 800224e:	f042 0208 	orr.w	r2, r2, #8
 8002252:	65a2      	str	r2, [r4, #88]	@ 0x58
 8002254:	691a      	ldr	r2, [r3, #16]
 8002256:	0590      	lsls	r0, r2, #22
 8002258:	d509      	bpl.n	800226e <HAL_DMA_IRQHandler+0xa6>
 800225a:	695a      	ldr	r2, [r3, #20]
 800225c:	0591      	lsls	r1, r2, #22
 800225e:	d506      	bpl.n	800226e <HAL_DMA_IRQHandler+0xa6>
 8002260:	f44f 7200 	mov.w	r2, #512	@ 0x200
 8002264:	60da      	str	r2, [r3, #12]
 8002266:	6e63      	ldr	r3, [r4, #100]	@ 0x64
 8002268:	b10b      	cbz	r3, 800226e <HAL_DMA_IRQHandler+0xa6>
 800226a:	4620      	mov	r0, r4
 800226c:	4798      	blx	r3
 800226e:	6823      	ldr	r3, [r4, #0]
 8002270:	691a      	ldr	r2, [r3, #16]
 8002272:	0492      	lsls	r2, r2, #18
 8002274:	d52e      	bpl.n	80022d4 <HAL_DMA_IRQHandler+0x10c>
 8002276:	695a      	ldr	r2, [r3, #20]
 8002278:	0490      	lsls	r0, r2, #18
 800227a:	d52b      	bpl.n	80022d4 <HAL_DMA_IRQHandler+0x10c>
 800227c:	f44f 5200 	mov.w	r2, #8192	@ 0x2000
 8002280:	60da      	str	r2, [r3, #12]
 8002282:	f894 2054 	ldrb.w	r2, [r4, #84]	@ 0x54
 8002286:	2a04      	cmp	r2, #4
 8002288:	d11d      	bne.n	80022c6 <HAL_DMA_IRQHandler+0xfe>
 800228a:	695a      	ldr	r2, [r3, #20]
 800228c:	6d21      	ldr	r1, [r4, #80]	@ 0x50
 800228e:	f422 5200 	bic.w	r2, r2, #8192	@ 0x2000
 8002292:	615a      	str	r2, [r3, #20]
 8002294:	695a      	ldr	r2, [r3, #20]
 8002296:	0609      	lsls	r1, r1, #24
 8002298:	f042 0202 	orr.w	r2, r2, #2
 800229c:	615a      	str	r2, [r3, #20]
 800229e:	f04f 0201 	mov.w	r2, #1
 80022a2:	bf48      	it	mi
 80022a4:	6f61      	ldrmi	r1, [r4, #116]	@ 0x74
 80022a6:	f884 2054 	strb.w	r2, [r4, #84]	@ 0x54
 80022aa:	bf42      	ittt	mi
 80022ac:	730a      	strbmi	r2, [r1, #12]
 80022ae:	2200      	movmi	r2, #0
 80022b0:	649a      	strmi	r2, [r3, #72]	@ 0x48
 80022b2:	2300      	movs	r3, #0
 80022b4:	f884 304c 	strb.w	r3, [r4, #76]	@ 0x4c
 80022b8:	6ee3      	ldr	r3, [r4, #108]	@ 0x6c
 80022ba:	2b00      	cmp	r3, #0
 80022bc:	d042      	beq.n	8002344 <HAL_DMA_IRQHandler+0x17c>
 80022be:	4620      	mov	r0, r4
 80022c0:	e8bd 4010 	ldmia.w	sp!, {r4, lr}
 80022c4:	4718      	bx	r3
 80022c6:	2305      	movs	r3, #5
 80022c8:	f884 3054 	strb.w	r3, [r4, #84]	@ 0x54
 80022cc:	6f23      	ldr	r3, [r4, #112]	@ 0x70
 80022ce:	b10b      	cbz	r3, 80022d4 <HAL_DMA_IRQHandler+0x10c>
 80022d0:	4620      	mov	r0, r4
 80022d2:	4798      	blx	r3
 80022d4:	6823      	ldr	r3, [r4, #0]
 80022d6:	691a      	ldr	r2, [r3, #16]
 80022d8:	05d2      	lsls	r2, r2, #23
 80022da:	d518      	bpl.n	800230e <HAL_DMA_IRQHandler+0x146>
 80022dc:	695a      	ldr	r2, [r3, #20]
 80022de:	05d0      	lsls	r0, r2, #23
 80022e0:	d515      	bpl.n	800230e <HAL_DMA_IRQHandler+0x146>
 80022e2:	6d22      	ldr	r2, [r4, #80]	@ 0x50
 80022e4:	0611      	lsls	r1, r2, #24
 80022e6:	d526      	bpl.n	8002336 <HAL_DMA_IRQHandler+0x16e>
 80022e8:	6fda      	ldr	r2, [r3, #124]	@ 0x7c
 80022ea:	b932      	cbnz	r2, 80022fa <HAL_DMA_IRQHandler+0x132>
 80022ec:	6c9a      	ldr	r2, [r3, #72]	@ 0x48
 80022ee:	b922      	cbnz	r2, 80022fa <HAL_DMA_IRQHandler+0x132>
 80022f0:	2201      	movs	r2, #1
 80022f2:	6f61      	ldr	r1, [r4, #116]	@ 0x74
 80022f4:	f884 2054 	strb.w	r2, [r4, #84]	@ 0x54
 80022f8:	730a      	strb	r2, [r1, #12]
 80022fa:	f44f 7240 	mov.w	r2, #768	@ 0x300
 80022fe:	60da      	str	r2, [r3, #12]
 8002300:	2300      	movs	r3, #0
 8002302:	f884 304c 	strb.w	r3, [r4, #76]	@ 0x4c
 8002306:	6e23      	ldr	r3, [r4, #96]	@ 0x60
 8002308:	b10b      	cbz	r3, 800230e <HAL_DMA_IRQHandler+0x146>
 800230a:	4620      	mov	r0, r4
 800230c:	4798      	blx	r3
 800230e:	6da3      	ldr	r3, [r4, #88]	@ 0x58
 8002310:	b1c3      	cbz	r3, 8002344 <HAL_DMA_IRQHandler+0x17c>
 8002312:	6822      	ldr	r2, [r4, #0]
 8002314:	6953      	ldr	r3, [r2, #20]
 8002316:	f043 0302 	orr.w	r3, r3, #2
 800231a:	6153      	str	r3, [r2, #20]
 800231c:	2301      	movs	r3, #1
 800231e:	6d22      	ldr	r2, [r4, #80]	@ 0x50
 8002320:	f884 3054 	strb.w	r3, [r4, #84]	@ 0x54
 8002324:	0612      	lsls	r2, r2, #24
 8002326:	bf44      	itt	mi
 8002328:	6f62      	ldrmi	r2, [r4, #116]	@ 0x74
 800232a:	7313      	strbmi	r3, [r2, #12]
 800232c:	2300      	movs	r3, #0
 800232e:	f884 304c 	strb.w	r3, [r4, #76]	@ 0x4c
 8002332:	6ea3      	ldr	r3, [r4, #104]	@ 0x68
 8002334:	e7c1      	b.n	80022ba <HAL_DMA_IRQHandler+0xf2>
 8002336:	6c9a      	ldr	r2, [r3, #72]	@ 0x48
 8002338:	2a00      	cmp	r2, #0
 800233a:	d1de      	bne.n	80022fa <HAL_DMA_IRQHandler+0x132>
 800233c:	2201      	movs	r2, #1
 800233e:	f884 2054 	strb.w	r2, [r4, #84]	@ 0x54
 8002342:	e7da      	b.n	80022fa <HAL_DMA_IRQHandler+0x132>
 8002344:	bd10      	pop	{r4, pc}

08002346 <HAL_DMA_ConfigChannelAttributes>:
 8002346:	b1d0      	cbz	r0, 800237e <HAL_DMA_ConfigChannelAttributes+0x38>
 8002348:	06cb      	lsls	r3, r1, #27
 800234a:	d401      	bmi.n	8002350 <HAL_DMA_ConfigChannelAttributes+0xa>
 800234c:	2000      	movs	r0, #0
 800234e:	4770      	bx	lr
 8002350:	6803      	ldr	r3, [r0, #0]
 8002352:	2001      	movs	r0, #1
 8002354:	f423 627f 	bic.w	r2, r3, #4080	@ 0xff0
 8002358:	f3c3 030b 	ubfx	r3, r3, #0, #12
 800235c:	f022 020f 	bic.w	r2, r2, #15
 8002360:	f001 0111 	and.w	r1, r1, #17
 8002364:	3b50      	subs	r3, #80	@ 0x50
 8002366:	2911      	cmp	r1, #17
 8002368:	f3c3 13c4 	ubfx	r3, r3, #7, #5
 800236c:	6851      	ldr	r1, [r2, #4]
 800236e:	fa00 f303 	lsl.w	r3, r0, r3
 8002372:	bf0c      	ite	eq
 8002374:	430b      	orreq	r3, r1
 8002376:	ea21 0303 	bicne.w	r3, r1, r3
 800237a:	6053      	str	r3, [r2, #4]
 800237c:	e7e6      	b.n	800234c <HAL_DMA_ConfigChannelAttributes+0x6>
 800237e:	2001      	movs	r0, #1
 8002380:	4770      	bx	lr
	...

08002384 <HAL_GPIO_Init>:
 8002384:	e92d 4ff0 	stmdb	sp!, {r4, r5, r6, r7, r8, r9, sl, fp, lr}
 8002388:	4b7f      	ldr	r3, [pc, #508]	@ (8002588 <HAL_GPIO_Init+0x204>)
 800238a:	b085      	sub	sp, #20
 800238c:	ea03 2390 	and.w	r3, r3, r0, lsr #10
 8002390:	9303      	str	r3, [sp, #12]
 8002392:	4b7e      	ldr	r3, [pc, #504]	@ (800258c <HAL_GPIO_Init+0x208>)
 8002394:	2200      	movs	r2, #0
 8002396:	9302      	str	r3, [sp, #8]
 8002398:	4603      	mov	r3, r0
 800239a:	4f7d      	ldr	r7, [pc, #500]	@ (8002590 <HAL_GPIO_Init+0x20c>)
 800239c:	9101      	str	r1, [sp, #4]
 800239e:	9901      	ldr	r1, [sp, #4]
 80023a0:	680d      	ldr	r5, [r1, #0]
 80023a2:	fa35 f402 	lsrs.w	r4, r5, r2
 80023a6:	d102      	bne.n	80023ae <HAL_GPIO_Init+0x2a>
 80023a8:	b005      	add	sp, #20
 80023aa:	e8bd 8ff0 	ldmia.w	sp!, {r4, r5, r6, r7, r8, r9, sl, fp, pc}
 80023ae:	2101      	movs	r1, #1
 80023b0:	fa01 fe02 	lsl.w	lr, r1, r2
 80023b4:	ea1e 0505 	ands.w	r5, lr, r5
 80023b8:	f000 808b 	beq.w	80024d2 <HAL_GPIO_Init+0x14e>
 80023bc:	9901      	ldr	r1, [sp, #4]
 80023be:	684c      	ldr	r4, [r1, #4]
 80023c0:	4974      	ldr	r1, [pc, #464]	@ (8002594 <HAL_GPIO_Init+0x210>)
 80023c2:	f024 0610 	bic.w	r6, r4, #16
 80023c6:	4288      	cmp	r0, r1
 80023c8:	f040 8088 	bne.w	80024dc <HAL_GPIO_Init+0x158>
 80023cc:	6803      	ldr	r3, [r0, #0]
 80023ce:	9902      	ldr	r1, [sp, #8]
 80023d0:	ea23 0c0e 	bic.w	ip, r3, lr
 80023d4:	f004 0301 	and.w	r3, r4, #1
 80023d8:	4093      	lsls	r3, r2
 80023da:	ea43 030c 	orr.w	r3, r3, ip
 80023de:	6003      	str	r3, [r0, #0]
 80023e0:	f8d1 c004 	ldr.w	ip, [r1, #4]
 80023e4:	210f      	movs	r1, #15
 80023e6:	f00c 0e07 	and.w	lr, ip, #7
 80023ea:	ea4f 0e8e 	mov.w	lr, lr, lsl #2
 80023ee:	fa01 f90e 	lsl.w	r9, r1, lr
 80023f2:	210b      	movs	r1, #11
 80023f4:	fa01 fe0e 	lsl.w	lr, r1, lr
 80023f8:	2103      	movs	r1, #3
 80023fa:	9b02      	ldr	r3, [sp, #8]
 80023fc:	ea4f 08dc 	mov.w	r8, ip, lsr #3
 8002400:	681b      	ldr	r3, [r3, #0]
 8002402:	eb03 0888 	add.w	r8, r3, r8, lsl #2
 8002406:	f8d8 a020 	ldr.w	sl, [r8, #32]
 800240a:	ea2a 0909 	bic.w	r9, sl, r9
 800240e:	ea4e 0e09 	orr.w	lr, lr, r9
 8002412:	f8c8 e020 	str.w	lr, [r8, #32]
 8002416:	ea4f 0e4c 	mov.w	lr, ip, lsl #1
 800241a:	fa01 f90e 	lsl.w	r9, r1, lr
 800241e:	2102      	movs	r1, #2
 8002420:	f8d3 8000 	ldr.w	r8, [r3]
 8002424:	fa01 fe0e 	lsl.w	lr, r1, lr
 8002428:	ea28 0809 	bic.w	r8, r8, r9
 800242c:	ea4e 0e08 	orr.w	lr, lr, r8
 8002430:	f8c3 e000 	str.w	lr, [r3]
 8002434:	3e01      	subs	r6, #1
 8002436:	2e01      	cmp	r6, #1
 8002438:	d97c      	bls.n	8002534 <HAL_GPIO_Init+0x1b0>
 800243a:	2c03      	cmp	r4, #3
 800243c:	d049      	beq.n	80024d2 <HAL_GPIO_Init+0x14e>
 800243e:	2103      	movs	r1, #3
 8002440:	ea4f 0c4c 	mov.w	ip, ip, lsl #1
 8002444:	68de      	ldr	r6, [r3, #12]
 8002446:	fa01 fe0c 	lsl.w	lr, r1, ip
 800244a:	9901      	ldr	r1, [sp, #4]
 800244c:	ea26 0e0e 	bic.w	lr, r6, lr
 8002450:	688e      	ldr	r6, [r1, #8]
 8002452:	fa06 f60c 	lsl.w	r6, r6, ip
 8002456:	ea46 060e 	orr.w	r6, r6, lr
 800245a:	60de      	str	r6, [r3, #12]
 800245c:	00e6      	lsls	r6, r4, #3
 800245e:	d538      	bpl.n	80024d2 <HAL_GPIO_Init+0x14e>
 8002460:	210f      	movs	r1, #15
 8002462:	f022 0c03 	bic.w	ip, r2, #3
 8002466:	f10c 4c8c 	add.w	ip, ip, #1174405120	@ 0x46000000
 800246a:	f002 0603 	and.w	r6, r2, #3
 800246e:	f50c 3c08 	add.w	ip, ip, #139264	@ 0x22000
 8002472:	00f6      	lsls	r6, r6, #3
 8002474:	f8dc 8060 	ldr.w	r8, [ip, #96]	@ 0x60
 8002478:	fa01 fe06 	lsl.w	lr, r1, r6
 800247c:	9903      	ldr	r1, [sp, #12]
 800247e:	ea28 0e0e 	bic.w	lr, r8, lr
 8002482:	fa01 f606 	lsl.w	r6, r1, r6
 8002486:	ea46 060e 	orr.w	r6, r6, lr
 800248a:	f8cc 6060 	str.w	r6, [ip, #96]	@ 0x60
 800248e:	ea6f 0c05 	mvn.w	ip, r5
 8002492:	683e      	ldr	r6, [r7, #0]
 8002494:	02e1      	lsls	r1, r4, #11
 8002496:	bf54      	ite	pl
 8002498:	ea0c 0606 	andpl.w	r6, ip, r6
 800249c:	432e      	orrmi	r6, r5
 800249e:	603e      	str	r6, [r7, #0]
 80024a0:	687e      	ldr	r6, [r7, #4]
 80024a2:	02a1      	lsls	r1, r4, #10
 80024a4:	bf54      	ite	pl
 80024a6:	ea0c 0606 	andpl.w	r6, ip, r6
 80024aa:	432e      	orrmi	r6, r5
 80024ac:	607e      	str	r6, [r7, #4]
 80024ae:	f8d7 6084 	ldr.w	r6, [r7, #132]	@ 0x84
 80024b2:	03a1      	lsls	r1, r4, #14
 80024b4:	bf54      	ite	pl
 80024b6:	ea0c 0606 	andpl.w	r6, ip, r6
 80024ba:	432e      	orrmi	r6, r5
 80024bc:	f8c7 6084 	str.w	r6, [r7, #132]	@ 0x84
 80024c0:	f8d7 6080 	ldr.w	r6, [r7, #128]	@ 0x80
 80024c4:	03e1      	lsls	r1, r4, #15
 80024c6:	bf54      	ite	pl
 80024c8:	ea0c 0606 	andpl.w	r6, ip, r6
 80024cc:	432e      	orrmi	r6, r5
 80024ce:	f8c7 6080 	str.w	r6, [r7, #128]	@ 0x80
 80024d2:	9c02      	ldr	r4, [sp, #8]
 80024d4:	3201      	adds	r2, #1
 80024d6:	3408      	adds	r4, #8
 80024d8:	9402      	str	r4, [sp, #8]
 80024da:	e760      	b.n	800239e <HAL_GPIO_Init+0x1a>
 80024dc:	2103      	movs	r1, #3
 80024de:	ea4f 0942 	mov.w	r9, r2, lsl #1
 80024e2:	fa01 fc09 	lsl.w	ip, r1, r9
 80024e6:	2e02      	cmp	r6, #2
 80024e8:	ea6f 0c0c 	mvn.w	ip, ip
 80024ec:	d13e      	bne.n	800256c <HAL_GPIO_Init+0x1e8>
 80024ee:	fa22 fe01 	lsr.w	lr, r2, r1
 80024f2:	210f      	movs	r1, #15
 80024f4:	f002 0807 	and.w	r8, r2, #7
 80024f8:	ea4f 0888 	mov.w	r8, r8, lsl #2
 80024fc:	fa01 fb08 	lsl.w	fp, r1, r8
 8002500:	9901      	ldr	r1, [sp, #4]
 8002502:	eb00 0e8e 	add.w	lr, r0, lr, lsl #2
 8002506:	f8de a020 	ldr.w	sl, [lr, #32]
 800250a:	6909      	ldr	r1, [r1, #16]
 800250c:	ea2a 0a0b 	bic.w	sl, sl, fp
 8002510:	f001 0b0f 	and.w	fp, r1, #15
 8002514:	fa0b fb08 	lsl.w	fp, fp, r8
 8002518:	ea4b 0b0a 	orr.w	fp, fp, sl
 800251c:	f8ce b020 	str.w	fp, [lr, #32]
 8002520:	f8d3 e000 	ldr.w	lr, [r3]
 8002524:	fa06 f609 	lsl.w	r6, r6, r9
 8002528:	ea0e 0e0c 	and.w	lr, lr, ip
 800252c:	4694      	mov	ip, r2
 800252e:	ea46 060e 	orr.w	r6, r6, lr
 8002532:	601e      	str	r6, [r3, #0]
 8002534:	2103      	movs	r1, #3
 8002536:	ea4f 084c 	mov.w	r8, ip, lsl #1
 800253a:	689e      	ldr	r6, [r3, #8]
 800253c:	fa01 fe08 	lsl.w	lr, r1, r8
 8002540:	9901      	ldr	r1, [sp, #4]
 8002542:	ea26 0e0e 	bic.w	lr, r6, lr
 8002546:	68ce      	ldr	r6, [r1, #12]
 8002548:	2101      	movs	r1, #1
 800254a:	fa06 f608 	lsl.w	r6, r6, r8
 800254e:	ea46 060e 	orr.w	r6, r6, lr
 8002552:	609e      	str	r6, [r3, #8]
 8002554:	685e      	ldr	r6, [r3, #4]
 8002556:	fa01 fe0c 	lsl.w	lr, r1, ip
 800255a:	ea26 0e0e 	bic.w	lr, r6, lr
 800255e:	0926      	lsrs	r6, r4, #4
 8002560:	fa06 f60c 	lsl.w	r6, r6, ip
 8002564:	ea46 060e 	orr.w	r6, r6, lr
 8002568:	605e      	str	r6, [r3, #4]
 800256a:	e768      	b.n	800243e <HAL_GPIO_Init+0xba>
 800256c:	f8d3 e000 	ldr.w	lr, [r3]
 8002570:	ea0e 0e0c 	and.w	lr, lr, ip
 8002574:	f004 0c03 	and.w	ip, r4, #3
 8002578:	fa0c fc09 	lsl.w	ip, ip, r9
 800257c:	ea4c 0c0e 	orr.w	ip, ip, lr
 8002580:	f8c3 c000 	str.w	ip, [r3]
 8002584:	4694      	mov	ip, r2
 8002586:	e755      	b.n	8002434 <HAL_GPIO_Init+0xb0>
 8002588:	002f7f7f 	.word	0x002f7f7f
 800258c:	08009284 	.word	0x08009284
 8002590:	46022000 	.word	0x46022000
 8002594:	46020000 	.word	0x46020000

08002598 <HAL_GPIO_WritePin>:
 8002598:	b10a      	cbz	r2, 800259e <HAL_GPIO_WritePin+0x6>
 800259a:	6181      	str	r1, [r0, #24]
 800259c:	4770      	bx	lr
 800259e:	6281      	str	r1, [r0, #40]	@ 0x28
 80025a0:	4770      	bx	lr
	...

080025a4 <HAL_ICACHE_ConfigAssociativityMode>:
 80025a4:	4601      	mov	r1, r0
 80025a6:	4a06      	ldr	r2, [pc, #24]	@ (80025c0 <HAL_ICACHE_ConfigAssociativityMode+0x1c>)
 80025a8:	6810      	ldr	r0, [r2, #0]
 80025aa:	f010 0001 	ands.w	r0, r0, #1
 80025ae:	bf09      	itett	eq
 80025b0:	6813      	ldreq	r3, [r2, #0]
 80025b2:	2001      	movne	r0, #1
 80025b4:	f023 0304 	biceq.w	r3, r3, #4
 80025b8:	430b      	orreq	r3, r1
 80025ba:	bf08      	it	eq
 80025bc:	6013      	streq	r3, [r2, #0]
 80025be:	4770      	bx	lr
 80025c0:	40030400 	.word	0x40030400

080025c4 <HAL_ICACHE_Enable>:
 80025c4:	4a03      	ldr	r2, [pc, #12]	@ (80025d4 <HAL_ICACHE_Enable+0x10>)
 80025c6:	2000      	movs	r0, #0
 80025c8:	6813      	ldr	r3, [r2, #0]
 80025ca:	f043 0301 	orr.w	r3, r3, #1
 80025ce:	6013      	str	r3, [r2, #0]
 80025d0:	4770      	bx	lr
 80025d2:	bf00      	nop
 80025d4:	40030400 	.word	0x40030400

080025d8 <HAL_PCD_Init>:
 80025d8:	b5f7      	push	{r0, r1, r2, r4, r5, r6, r7, lr}
 80025da:	4604      	mov	r4, r0
 80025dc:	b310      	cbz	r0, 8002624 <HAL_PCD_Init+0x4c>
 80025de:	f890 3495 	ldrb.w	r3, [r0, #1173]	@ 0x495
 80025e2:	6805      	ldr	r5, [r0, #0]
 80025e4:	f003 02ff 	and.w	r2, r3, #255	@ 0xff
 80025e8:	b91b      	cbnz	r3, 80025f2 <HAL_PCD_Init+0x1a>
 80025ea:	f880 2494 	strb.w	r2, [r0, #1172]	@ 0x494
 80025ee:	f7fe fd51 	bl	8001094 <HAL_PCD_MspInit>
 80025f2:	2303      	movs	r3, #3
 80025f4:	f884 3495 	strb.w	r3, [r4, #1173]	@ 0x495
 80025f8:	4b32      	ldr	r3, [pc, #200]	@ (80026c4 <HAL_PCD_Init+0xec>)
 80025fa:	6820      	ldr	r0, [r4, #0]
 80025fc:	429d      	cmp	r5, r3
 80025fe:	bf04      	itt	eq
 8002600:	2300      	moveq	r3, #0
 8002602:	71a3      	strbeq	r3, [r4, #6]
 8002604:	f002 fbc4 	bl	8004d90 <USB_DisableGlobalInt>
 8002608:	7c23      	ldrb	r3, [r4, #16]
 800260a:	1d25      	adds	r5, r4, #4
 800260c:	f88d 3000 	strb.w	r3, [sp]
 8002610:	e895 000e 	ldmia.w	r5, {r1, r2, r3}
 8002614:	6820      	ldr	r0, [r4, #0]
 8002616:	f002 fb0c 	bl	8004c32 <USB_CoreInit>
 800261a:	4601      	mov	r1, r0
 800261c:	b130      	cbz	r0, 800262c <HAL_PCD_Init+0x54>
 800261e:	2302      	movs	r3, #2
 8002620:	f884 3495 	strb.w	r3, [r4, #1173]	@ 0x495
 8002624:	2501      	movs	r5, #1
 8002626:	4628      	mov	r0, r5
 8002628:	b003      	add	sp, #12
 800262a:	bdf0      	pop	{r4, r5, r6, r7, pc}
 800262c:	6820      	ldr	r0, [r4, #0]
 800262e:	f002 fbb5 	bl	8004d9c <USB_SetCurrentMode>
 8002632:	2800      	cmp	r0, #0
 8002634:	d1f3      	bne.n	800261e <HAL_PCD_Init+0x46>
 8002636:	2701      	movs	r7, #1
 8002638:	4602      	mov	r2, r0
 800263a:	7926      	ldrb	r6, [r4, #4]
 800263c:	f104 0314 	add.w	r3, r4, #20
 8002640:	b2c1      	uxtb	r1, r0
 8002642:	428e      	cmp	r6, r1
 8002644:	f103 0324 	add.w	r3, r3, #36	@ 0x24
 8002648:	d821      	bhi.n	800268e <HAL_PCD_Init+0xb6>
 800264a:	2100      	movs	r1, #0
 800264c:	460a      	mov	r2, r1
 800264e:	f504 7315 	add.w	r3, r4, #596	@ 0x254
 8002652:	b2c8      	uxtb	r0, r1
 8002654:	4286      	cmp	r6, r0
 8002656:	f103 0324 	add.w	r3, r3, #36	@ 0x24
 800265a:	d826      	bhi.n	80026aa <HAL_PCD_Init+0xd2>
 800265c:	7c23      	ldrb	r3, [r4, #16]
 800265e:	f88d 3000 	strb.w	r3, [sp]
 8002662:	e895 000e 	ldmia.w	r5, {r1, r2, r3}
 8002666:	6820      	ldr	r0, [r4, #0]
 8002668:	f002 fc12 	bl	8004e90 <USB_DevInit>
 800266c:	4605      	mov	r5, r0
 800266e:	2800      	cmp	r0, #0
 8002670:	d1d5      	bne.n	800261e <HAL_PCD_Init+0x46>
 8002672:	2301      	movs	r3, #1
 8002674:	7460      	strb	r0, [r4, #17]
 8002676:	f884 3495 	strb.w	r3, [r4, #1173]	@ 0x495
 800267a:	7b23      	ldrb	r3, [r4, #12]
 800267c:	2b01      	cmp	r3, #1
 800267e:	d102      	bne.n	8002686 <HAL_PCD_Init+0xae>
 8002680:	4620      	mov	r0, r4
 8002682:	f000 fd3b 	bl	80030fc <HAL_PCDEx_ActivateLPM>
 8002686:	6820      	ldr	r0, [r4, #0]
 8002688:	f002 ff36 	bl	80054f8 <USB_DevDisconnect>
 800268c:	e7cb      	b.n	8002626 <HAL_PCD_Init+0x4e>
 800268e:	f823 0c0a 	strh.w	r0, [r3, #-10]
 8002692:	e943 2207 	strd	r2, r2, [r3, #-28]
 8002696:	f803 7c23 	strb.w	r7, [r3, #-35]
 800269a:	f803 1c24 	strb.w	r1, [r3, #-36]
 800269e:	f803 2c20 	strb.w	r2, [r3, #-32]
 80026a2:	f843 2c14 	str.w	r2, [r3, #-20]
 80026a6:	3001      	adds	r0, #1
 80026a8:	e7ca      	b.n	8002640 <HAL_PCD_Init+0x68>
 80026aa:	e943 2207 	strd	r2, r2, [r3, #-28]
 80026ae:	f803 2c23 	strb.w	r2, [r3, #-35]
 80026b2:	f803 0c24 	strb.w	r0, [r3, #-36]
 80026b6:	f803 2c20 	strb.w	r2, [r3, #-32]
 80026ba:	f843 2c14 	str.w	r2, [r3, #-20]
 80026be:	3101      	adds	r1, #1
 80026c0:	e7c7      	b.n	8002652 <HAL_PCD_Init+0x7a>
 80026c2:	bf00      	nop
 80026c4:	42040000 	.word	0x42040000

080026c8 <HAL_PCD_Start>:
 80026c8:	b510      	push	{r4, lr}
 80026ca:	4604      	mov	r4, r0
 80026cc:	f894 3494 	ldrb.w	r3, [r4, #1172]	@ 0x494
 80026d0:	6800      	ldr	r0, [r0, #0]
 80026d2:	2b01      	cmp	r3, #1
 80026d4:	d012      	beq.n	80026fc <HAL_PCD_Start+0x34>
 80026d6:	2301      	movs	r3, #1
 80026d8:	f884 3494 	strb.w	r3, [r4, #1172]	@ 0x494
 80026dc:	7b63      	ldrb	r3, [r4, #13]
 80026de:	2b01      	cmp	r3, #1
 80026e0:	bf02      	ittt	eq
 80026e2:	6b83      	ldreq	r3, [r0, #56]	@ 0x38
 80026e4:	f443 3380 	orreq.w	r3, r3, #65536	@ 0x10000
 80026e8:	6383      	streq	r3, [r0, #56]	@ 0x38
 80026ea:	f002 fb4b 	bl	8004d84 <USB_EnableGlobalInt>
 80026ee:	6820      	ldr	r0, [r4, #0]
 80026f0:	f002 fef4 	bl	80054dc <USB_DevConnect>
 80026f4:	2000      	movs	r0, #0
 80026f6:	f884 0494 	strb.w	r0, [r4, #1172]	@ 0x494
 80026fa:	bd10      	pop	{r4, pc}
 80026fc:	2002      	movs	r0, #2
 80026fe:	e7fc      	b.n	80026fa <HAL_PCD_Start+0x32>

08002700 <HAL_PCD_Stop>:
 8002700:	b538      	push	{r3, r4, r5, lr}
 8002702:	f890 3494 	ldrb.w	r3, [r0, #1172]	@ 0x494
 8002706:	4604      	mov	r4, r0
 8002708:	2b01      	cmp	r3, #1
 800270a:	d018      	beq.n	800273e <HAL_PCD_Stop+0x3e>
 800270c:	2301      	movs	r3, #1
 800270e:	6805      	ldr	r5, [r0, #0]
 8002710:	f880 3494 	strb.w	r3, [r0, #1172]	@ 0x494
 8002714:	4628      	mov	r0, r5
 8002716:	f002 fb3b 	bl	8004d90 <USB_DisableGlobalInt>
 800271a:	6820      	ldr	r0, [r4, #0]
 800271c:	f002 feec 	bl	80054f8 <USB_DevDisconnect>
 8002720:	2110      	movs	r1, #16
 8002722:	6820      	ldr	r0, [r4, #0]
 8002724:	f002 fb68 	bl	8004df8 <USB_FlushTxFifo>
 8002728:	2000      	movs	r0, #0
 800272a:	7b63      	ldrb	r3, [r4, #13]
 800272c:	2b01      	cmp	r3, #1
 800272e:	bf02      	ittt	eq
 8002730:	6bab      	ldreq	r3, [r5, #56]	@ 0x38
 8002732:	f423 3380 	biceq.w	r3, r3, #65536	@ 0x10000
 8002736:	63ab      	streq	r3, [r5, #56]	@ 0x38
 8002738:	f884 0494 	strb.w	r0, [r4, #1172]	@ 0x494
 800273c:	bd38      	pop	{r3, r4, r5, pc}
 800273e:	2002      	movs	r0, #2
 8002740:	e7fc      	b.n	800273c <HAL_PCD_Stop+0x3c>

08002742 <HAL_PCD_ISOOUTIncompleteCallback>:
 8002742:	4770      	bx	lr

08002744 <HAL_PCD_ISOINIncompleteCallback>:
 8002744:	4770      	bx	lr

08002746 <HAL_PCD_SetAddress>:
 8002746:	b510      	push	{r4, lr}
 8002748:	f890 2494 	ldrb.w	r2, [r0, #1172]	@ 0x494
 800274c:	4604      	mov	r4, r0
 800274e:	2a01      	cmp	r2, #1
 8002750:	d00a      	beq.n	8002768 <HAL_PCD_SetAddress+0x22>
 8002752:	2201      	movs	r2, #1
 8002754:	7441      	strb	r1, [r0, #17]
 8002756:	f880 2494 	strb.w	r2, [r0, #1172]	@ 0x494
 800275a:	6800      	ldr	r0, [r0, #0]
 800275c:	f002 feae 	bl	80054bc <USB_SetDevAddress>
 8002760:	2000      	movs	r0, #0
 8002762:	f884 0494 	strb.w	r0, [r4, #1172]	@ 0x494
 8002766:	bd10      	pop	{r4, pc}
 8002768:	2002      	movs	r0, #2
 800276a:	e7fc      	b.n	8002766 <HAL_PCD_SetAddress+0x20>

0800276c <HAL_PCD_EP_Open>:
 800276c:	b570      	push	{r4, r5, r6, lr}
 800276e:	f001 060f 	and.w	r6, r1, #15
 8002772:	eb06 04c6 	add.w	r4, r6, r6, lsl #3
 8002776:	f011 0f80 	tst.w	r1, #128	@ 0x80
 800277a:	4605      	mov	r5, r0
 800277c:	ea4f 0484 	mov.w	r4, r4, lsl #2
 8002780:	f04f 0024 	mov.w	r0, #36	@ 0x24
 8002784:	d020      	beq.n	80027c8 <HAL_PCD_EP_Open+0x5c>
 8002786:	f104 0114 	add.w	r1, r4, #20
 800278a:	2401      	movs	r4, #1
 800278c:	fb00 5006 	mla	r0, r0, r6, r5
 8002790:	4429      	add	r1, r5
 8002792:	7544      	strb	r4, [r0, #21]
 8002794:	f3c2 020a 	ubfx	r2, r2, #0, #11
 8002798:	608a      	str	r2, [r1, #8]
 800279a:	784a      	ldrb	r2, [r1, #1]
 800279c:	700e      	strb	r6, [r1, #0]
 800279e:	710b      	strb	r3, [r1, #4]
 80027a0:	b102      	cbz	r2, 80027a4 <HAL_PCD_EP_Open+0x38>
 80027a2:	834e      	strh	r6, [r1, #26]
 80027a4:	2b02      	cmp	r3, #2
 80027a6:	bf04      	itt	eq
 80027a8:	2300      	moveq	r3, #0
 80027aa:	714b      	strbeq	r3, [r1, #5]
 80027ac:	f895 3494 	ldrb.w	r3, [r5, #1172]	@ 0x494
 80027b0:	2b01      	cmp	r3, #1
 80027b2:	d012      	beq.n	80027da <HAL_PCD_EP_Open+0x6e>
 80027b4:	2301      	movs	r3, #1
 80027b6:	6828      	ldr	r0, [r5, #0]
 80027b8:	f885 3494 	strb.w	r3, [r5, #1172]	@ 0x494
 80027bc:	f002 fc1d 	bl	8004ffa <USB_ActivateEndpoint>
 80027c0:	2000      	movs	r0, #0
 80027c2:	f885 0494 	strb.w	r0, [r5, #1172]	@ 0x494
 80027c6:	bd70      	pop	{r4, r5, r6, pc}
 80027c8:	f504 7115 	add.w	r1, r4, #596	@ 0x254
 80027cc:	2400      	movs	r4, #0
 80027ce:	fb00 5006 	mla	r0, r0, r6, r5
 80027d2:	4429      	add	r1, r5
 80027d4:	f880 4255 	strb.w	r4, [r0, #597]	@ 0x255
 80027d8:	e7dc      	b.n	8002794 <HAL_PCD_EP_Open+0x28>
 80027da:	2002      	movs	r0, #2
 80027dc:	e7f3      	b.n	80027c6 <HAL_PCD_EP_Open+0x5a>

080027de <HAL_PCD_EP_Close>:
 80027de:	b510      	push	{r4, lr}
 80027e0:	4604      	mov	r4, r0
 80027e2:	f001 000f 	and.w	r0, r1, #15
 80027e6:	eb00 03c0 	add.w	r3, r0, r0, lsl #3
 80027ea:	f011 0f80 	tst.w	r1, #128	@ 0x80
 80027ee:	f04f 0224 	mov.w	r2, #36	@ 0x24
 80027f2:	ea4f 0383 	mov.w	r3, r3, lsl #2
 80027f6:	d015      	beq.n	8002824 <HAL_PCD_EP_Close+0x46>
 80027f8:	f103 0114 	add.w	r1, r3, #20
 80027fc:	2301      	movs	r3, #1
 80027fe:	fb02 4200 	mla	r2, r2, r0, r4
 8002802:	4421      	add	r1, r4
 8002804:	7553      	strb	r3, [r2, #21]
 8002806:	7008      	strb	r0, [r1, #0]
 8002808:	f894 3494 	ldrb.w	r3, [r4, #1172]	@ 0x494
 800280c:	2b01      	cmp	r3, #1
 800280e:	d012      	beq.n	8002836 <HAL_PCD_EP_Close+0x58>
 8002810:	2301      	movs	r3, #1
 8002812:	6820      	ldr	r0, [r4, #0]
 8002814:	f884 3494 	strb.w	r3, [r4, #1172]	@ 0x494
 8002818:	f002 fc2e 	bl	8005078 <USB_DeactivateEndpoint>
 800281c:	2000      	movs	r0, #0
 800281e:	f884 0494 	strb.w	r0, [r4, #1172]	@ 0x494
 8002822:	bd10      	pop	{r4, pc}
 8002824:	f503 7115 	add.w	r1, r3, #596	@ 0x254
 8002828:	2300      	movs	r3, #0
 800282a:	fb02 4200 	mla	r2, r2, r0, r4
 800282e:	4421      	add	r1, r4
 8002830:	f882 3255 	strb.w	r3, [r2, #597]	@ 0x255
 8002834:	e7e7      	b.n	8002806 <HAL_PCD_EP_Close+0x28>
 8002836:	2002      	movs	r0, #2
 8002838:	e7f3      	b.n	8002822 <HAL_PCD_EP_Close+0x44>

0800283a <HAL_PCD_EP_Receive>:
 800283a:	b570      	push	{r4, r5, r6, lr}
 800283c:	2424      	movs	r4, #36	@ 0x24
 800283e:	f001 050f 	and.w	r5, r1, #15
 8002842:	fb04 0105 	mla	r1, r4, r5, r0
 8002846:	fb04 0405 	mla	r4, r4, r5, r0
 800284a:	e9c4 2398 	strd	r2, r3, [r4, #608]	@ 0x260
 800284e:	2300      	movs	r3, #0
 8002850:	4616      	mov	r6, r2
 8002852:	f8c4 3268 	str.w	r3, [r4, #616]	@ 0x268
 8002856:	f884 3255 	strb.w	r3, [r4, #597]	@ 0x255
 800285a:	f884 5254 	strb.w	r5, [r4, #596]	@ 0x254
 800285e:	7982      	ldrb	r2, [r0, #6]
 8002860:	f501 7115 	add.w	r1, r1, #596	@ 0x254
 8002864:	2a01      	cmp	r2, #1
 8002866:	bf08      	it	eq
 8002868:	f8c4 6270 	streq.w	r6, [r4, #624]	@ 0x270
 800286c:	6800      	ldr	r0, [r0, #0]
 800286e:	f002 fcaf 	bl	80051d0 <USB_EPStartXfer>
 8002872:	2000      	movs	r0, #0
 8002874:	bd70      	pop	{r4, r5, r6, pc}

08002876 <HAL_PCD_EP_GetRxCount>:
 8002876:	2324      	movs	r3, #36	@ 0x24
 8002878:	f001 010f 	and.w	r1, r1, #15
 800287c:	fb03 0001 	mla	r0, r3, r1, r0
 8002880:	f8d0 0268 	ldr.w	r0, [r0, #616]	@ 0x268
 8002884:	4770      	bx	lr

08002886 <HAL_PCD_EP_Transmit>:
 8002886:	b570      	push	{r4, r5, r6, lr}
 8002888:	2424      	movs	r4, #36	@ 0x24
 800288a:	f001 050f 	and.w	r5, r1, #15
 800288e:	fb04 0105 	mla	r1, r4, r5, r0
 8002892:	fb04 0405 	mla	r4, r4, r5, r0
 8002896:	e9c4 2308 	strd	r2, r3, [r4, #32]
 800289a:	2300      	movs	r3, #0
 800289c:	62a3      	str	r3, [r4, #40]	@ 0x28
 800289e:	2301      	movs	r3, #1
 80028a0:	4616      	mov	r6, r2
 80028a2:	7563      	strb	r3, [r4, #21]
 80028a4:	7525      	strb	r5, [r4, #20]
 80028a6:	7982      	ldrb	r2, [r0, #6]
 80028a8:	3114      	adds	r1, #20
 80028aa:	429a      	cmp	r2, r3
 80028ac:	bf08      	it	eq
 80028ae:	6326      	streq	r6, [r4, #48]	@ 0x30
 80028b0:	6800      	ldr	r0, [r0, #0]
 80028b2:	f002 fc8d 	bl	80051d0 <USB_EPStartXfer>
 80028b6:	2000      	movs	r0, #0
 80028b8:	bd70      	pop	{r4, r5, r6, pc}

080028ba <HAL_PCD_EP_SetStall>:
 80028ba:	b538      	push	{r3, r4, r5, lr}
 80028bc:	7903      	ldrb	r3, [r0, #4]
 80028be:	f001 050f 	and.w	r5, r1, #15
 80028c2:	42ab      	cmp	r3, r5
 80028c4:	4604      	mov	r4, r0
 80028c6:	d32b      	bcc.n	8002920 <HAL_PCD_EP_SetStall+0x66>
 80028c8:	f011 0f80 	tst.w	r1, #128	@ 0x80
 80028cc:	f04f 0024 	mov.w	r0, #36	@ 0x24
 80028d0:	d01d      	beq.n	800290e <HAL_PCD_EP_SetStall+0x54>
 80028d2:	2301      	movs	r3, #1
 80028d4:	fb00 4105 	mla	r1, r0, r5, r4
 80028d8:	fb00 4005 	mla	r0, r0, r5, r4
 80028dc:	3114      	adds	r1, #20
 80028de:	7543      	strb	r3, [r0, #21]
 80028e0:	2301      	movs	r3, #1
 80028e2:	700d      	strb	r5, [r1, #0]
 80028e4:	708b      	strb	r3, [r1, #2]
 80028e6:	f894 2494 	ldrb.w	r2, [r4, #1172]	@ 0x494
 80028ea:	429a      	cmp	r2, r3
 80028ec:	d01a      	beq.n	8002924 <HAL_PCD_EP_SetStall+0x6a>
 80028ee:	6820      	ldr	r0, [r4, #0]
 80028f0:	f884 3494 	strb.w	r3, [r4, #1172]	@ 0x494
 80028f4:	f002 fd8e 	bl	8005414 <USB_EPSetStall>
 80028f8:	b92d      	cbnz	r5, 8002906 <HAL_PCD_EP_SetStall+0x4c>
 80028fa:	79a1      	ldrb	r1, [r4, #6]
 80028fc:	6820      	ldr	r0, [r4, #0]
 80028fe:	f204 429c 	addw	r2, r4, #1180	@ 0x49c
 8002902:	f002 fe47 	bl	8005594 <USB_EP0_OutStart>
 8002906:	2000      	movs	r0, #0
 8002908:	f884 0494 	strb.w	r0, [r4, #1172]	@ 0x494
 800290c:	bd38      	pop	{r3, r4, r5, pc}
 800290e:	fb00 4301 	mla	r3, r0, r1, r4
 8002912:	461a      	mov	r2, r3
 8002914:	f503 7115 	add.w	r1, r3, #596	@ 0x254
 8002918:	2300      	movs	r3, #0
 800291a:	f882 3255 	strb.w	r3, [r2, #597]	@ 0x255
 800291e:	e7df      	b.n	80028e0 <HAL_PCD_EP_SetStall+0x26>
 8002920:	2001      	movs	r0, #1
 8002922:	e7f3      	b.n	800290c <HAL_PCD_EP_SetStall+0x52>
 8002924:	2002      	movs	r0, #2
 8002926:	e7f1      	b.n	800290c <HAL_PCD_EP_SetStall+0x52>

08002928 <HAL_PCD_EP_ClrStall>:
 8002928:	b538      	push	{r3, r4, r5, lr}
 800292a:	7903      	ldrb	r3, [r0, #4]
 800292c:	f001 020f 	and.w	r2, r1, #15
 8002930:	4293      	cmp	r3, r2
 8002932:	4604      	mov	r4, r0
 8002934:	d329      	bcc.n	800298a <HAL_PCD_EP_ClrStall+0x62>
 8002936:	eb02 03c2 	add.w	r3, r2, r2, lsl #3
 800293a:	f011 0f80 	tst.w	r1, #128	@ 0x80
 800293e:	f04f 0024 	mov.w	r0, #36	@ 0x24
 8002942:	ea4f 0383 	mov.w	r3, r3, lsl #2
 8002946:	d017      	beq.n	8002978 <HAL_PCD_EP_ClrStall+0x50>
 8002948:	f103 0114 	add.w	r1, r3, #20
 800294c:	2301      	movs	r3, #1
 800294e:	fb00 4002 	mla	r0, r0, r2, r4
 8002952:	4421      	add	r1, r4
 8002954:	7543      	strb	r3, [r0, #21]
 8002956:	2500      	movs	r5, #0
 8002958:	700a      	strb	r2, [r1, #0]
 800295a:	708d      	strb	r5, [r1, #2]
 800295c:	f894 3494 	ldrb.w	r3, [r4, #1172]	@ 0x494
 8002960:	2b01      	cmp	r3, #1
 8002962:	d014      	beq.n	800298e <HAL_PCD_EP_ClrStall+0x66>
 8002964:	2301      	movs	r3, #1
 8002966:	6820      	ldr	r0, [r4, #0]
 8002968:	f884 3494 	strb.w	r3, [r4, #1172]	@ 0x494
 800296c:	f002 fd7d 	bl	800546a <USB_EPClearStall>
 8002970:	4628      	mov	r0, r5
 8002972:	f884 5494 	strb.w	r5, [r4, #1172]	@ 0x494
 8002976:	bd38      	pop	{r3, r4, r5, pc}
 8002978:	f503 7115 	add.w	r1, r3, #596	@ 0x254
 800297c:	2300      	movs	r3, #0
 800297e:	fb00 4002 	mla	r0, r0, r2, r4
 8002982:	4421      	add	r1, r4
 8002984:	f880 3255 	strb.w	r3, [r0, #597]	@ 0x255
 8002988:	e7e5      	b.n	8002956 <HAL_PCD_EP_ClrStall+0x2e>
 800298a:	2001      	movs	r0, #1
 800298c:	e7f3      	b.n	8002976 <HAL_PCD_EP_ClrStall+0x4e>
 800298e:	2002      	movs	r0, #2
 8002990:	e7f1      	b.n	8002976 <HAL_PCD_EP_ClrStall+0x4e>

08002992 <HAL_PCD_EP_Abort>:
 8002992:	f001 030f 	and.w	r3, r1, #15
 8002996:	eb03 03c3 	add.w	r3, r3, r3, lsl #3
 800299a:	060a      	lsls	r2, r1, #24
 800299c:	ea4f 0383 	mov.w	r3, r3, lsl #2
 80029a0:	bf4c      	ite	mi
 80029a2:	f103 0114 	addmi.w	r1, r3, #20
 80029a6:	f503 7115 	addpl.w	r1, r3, #596	@ 0x254
 80029aa:	4401      	add	r1, r0
 80029ac:	6800      	ldr	r0, [r0, #0]
 80029ae:	f002 bbb9 	b.w	8005124 <USB_EPStopXfer>
	...

080029b4 <HAL_PCD_IRQHandler>:
 80029b4:	e92d 4ff0 	stmdb	sp!, {r4, r5, r6, r7, r8, r9, sl, fp, lr}
 80029b8:	6806      	ldr	r6, [r0, #0]
 80029ba:	b089      	sub	sp, #36	@ 0x24
 80029bc:	4604      	mov	r4, r0
 80029be:	4630      	mov	r0, r6
 80029c0:	f002 fdd6 	bl	8005570 <USB_GetMode>
 80029c4:	9003      	str	r0, [sp, #12]
 80029c6:	2800      	cmp	r0, #0
 80029c8:	f040 8171 	bne.w	8002cae <HAL_PCD_IRQHandler+0x2fa>
 80029cc:	6820      	ldr	r0, [r4, #0]
 80029ce:	f002 fda1 	bl	8005514 <USB_ReadInterrupts>
 80029d2:	2800      	cmp	r0, #0
 80029d4:	f000 816b 	beq.w	8002cae <HAL_PCD_IRQHandler+0x2fa>
 80029d8:	f8d6 3808 	ldr.w	r3, [r6, #2056]	@ 0x808
 80029dc:	6820      	ldr	r0, [r4, #0]
 80029de:	f3c3 230d 	ubfx	r3, r3, #8, #14
 80029e2:	f8c4 34d4 	str.w	r3, [r4, #1236]	@ 0x4d4
 80029e6:	f002 fd95 	bl	8005514 <USB_ReadInterrupts>
 80029ea:	0787      	lsls	r7, r0, #30
 80029ec:	bf48      	it	mi
 80029ee:	6822      	ldrmi	r2, [r4, #0]
 80029f0:	6820      	ldr	r0, [r4, #0]
 80029f2:	bf48      	it	mi
 80029f4:	6953      	ldrmi	r3, [r2, #20]
 80029f6:	f506 6500 	add.w	r5, r6, #2048	@ 0x800
 80029fa:	bf44      	itt	mi
 80029fc:	f003 0302 	andmi.w	r3, r3, #2
 8002a00:	6153      	strmi	r3, [r2, #20]
 8002a02:	f002 fd87 	bl	8005514 <USB_ReadInterrupts>
 8002a06:	06c0      	lsls	r0, r0, #27
 8002a08:	d52d      	bpl.n	8002a66 <HAL_PCD_IRQHandler+0xb2>
 8002a0a:	6822      	ldr	r2, [r4, #0]
 8002a0c:	6993      	ldr	r3, [r2, #24]
 8002a0e:	f023 0310 	bic.w	r3, r3, #16
 8002a12:	6193      	str	r3, [r2, #24]
 8002a14:	f8d6 8020 	ldr.w	r8, [r6, #32]
 8002a18:	f408 13f0 	and.w	r3, r8, #1966080	@ 0x1e0000
 8002a1c:	f5b3 2f80 	cmp.w	r3, #262144	@ 0x40000
 8002a20:	f008 070f 	and.w	r7, r8, #15
 8002a24:	f040 8146 	bne.w	8002cb4 <HAL_PCD_IRQHandler+0x300>
 8002a28:	f647 73f0 	movw	r3, #32752	@ 0x7ff0
 8002a2c:	ea18 0f03 	tst.w	r8, r3
 8002a30:	d014      	beq.n	8002a5c <HAL_PCD_IRQHandler+0xa8>
 8002a32:	2324      	movs	r3, #36	@ 0x24
 8002a34:	fb03 4707 	mla	r7, r3, r7, r4
 8002a38:	f3c8 190a 	ubfx	r9, r8, #4, #11
 8002a3c:	464a      	mov	r2, r9
 8002a3e:	4630      	mov	r0, r6
 8002a40:	f8d7 1260 	ldr.w	r1, [r7, #608]	@ 0x260
 8002a44:	f002 fcc6 	bl	80053d4 <USB_ReadPacket>
 8002a48:	f8d7 3260 	ldr.w	r3, [r7, #608]	@ 0x260
 8002a4c:	444b      	add	r3, r9
 8002a4e:	f8c7 3260 	str.w	r3, [r7, #608]	@ 0x260
 8002a52:	f8d7 3268 	ldr.w	r3, [r7, #616]	@ 0x268
 8002a56:	444b      	add	r3, r9
 8002a58:	f8c7 3268 	str.w	r3, [r7, #616]	@ 0x268
 8002a5c:	6822      	ldr	r2, [r4, #0]
 8002a5e:	6993      	ldr	r3, [r2, #24]
 8002a60:	f043 0310 	orr.w	r3, r3, #16
 8002a64:	6193      	str	r3, [r2, #24]
 8002a66:	6820      	ldr	r0, [r4, #0]
 8002a68:	f002 fd54 	bl	8005514 <USB_ReadInterrupts>
 8002a6c:	0301      	lsls	r1, r0, #12
 8002a6e:	f100 8134 	bmi.w	8002cda <HAL_PCD_IRQHandler+0x326>
 8002a72:	6820      	ldr	r0, [r4, #0]
 8002a74:	f002 fd4e 	bl	8005514 <USB_ReadInterrupts>
 8002a78:	0342      	lsls	r2, r0, #13
 8002a7a:	d50d      	bpl.n	8002a98 <HAL_PCD_IRQHandler+0xe4>
 8002a7c:	6820      	ldr	r0, [r4, #0]
 8002a7e:	f002 fd55 	bl	800552c <USB_ReadDevAllInEpInterrupt>
 8002a82:	4627      	mov	r7, r4
 8002a84:	f04f 0a00 	mov.w	sl, #0
 8002a88:	9004      	str	r0, [sp, #16]
 8002a8a:	f506 6b10 	add.w	fp, r6, #2304	@ 0x900
 8002a8e:	9b04      	ldr	r3, [sp, #16]
 8002a90:	6820      	ldr	r0, [r4, #0]
 8002a92:	2b00      	cmp	r3, #0
 8002a94:	f040 81eb 	bne.w	8002e6e <HAL_PCD_IRQHandler+0x4ba>
 8002a98:	6820      	ldr	r0, [r4, #0]
 8002a9a:	f002 fd3b 	bl	8005514 <USB_ReadInterrupts>
 8002a9e:	2800      	cmp	r0, #0
 8002aa0:	da13      	bge.n	8002aca <HAL_PCD_IRQHandler+0x116>
 8002aa2:	686b      	ldr	r3, [r5, #4]
 8002aa4:	f023 0301 	bic.w	r3, r3, #1
 8002aa8:	606b      	str	r3, [r5, #4]
 8002aaa:	f894 34cc 	ldrb.w	r3, [r4, #1228]	@ 0x4cc
 8002aae:	2b01      	cmp	r3, #1
 8002ab0:	f040 8283 	bne.w	8002fba <HAL_PCD_IRQHandler+0x606>
 8002ab4:	2100      	movs	r1, #0
 8002ab6:	4620      	mov	r0, r4
 8002ab8:	f884 14cc 	strb.w	r1, [r4, #1228]	@ 0x4cc
 8002abc:	f000 fb31 	bl	8003122 <HAL_PCDEx_LPM_Callback>
 8002ac0:	6822      	ldr	r2, [r4, #0]
 8002ac2:	6953      	ldr	r3, [r2, #20]
 8002ac4:	f003 4300 	and.w	r3, r3, #2147483648	@ 0x80000000
 8002ac8:	6153      	str	r3, [r2, #20]
 8002aca:	6820      	ldr	r0, [r4, #0]
 8002acc:	f002 fd22 	bl	8005514 <USB_ReadInterrupts>
 8002ad0:	0503      	lsls	r3, r0, #20
 8002ad2:	d50a      	bpl.n	8002aea <HAL_PCD_IRQHandler+0x136>
 8002ad4:	68ab      	ldr	r3, [r5, #8]
 8002ad6:	07df      	lsls	r7, r3, #31
 8002ad8:	d502      	bpl.n	8002ae0 <HAL_PCD_IRQHandler+0x12c>
 8002ada:	4620      	mov	r0, r4
 8002adc:	f005 fe04 	bl	80086e8 <HAL_PCD_SuspendCallback>
 8002ae0:	6822      	ldr	r2, [r4, #0]
 8002ae2:	6953      	ldr	r3, [r2, #20]
 8002ae4:	f403 6300 	and.w	r3, r3, #2048	@ 0x800
 8002ae8:	6153      	str	r3, [r2, #20]
 8002aea:	6820      	ldr	r0, [r4, #0]
 8002aec:	f002 fd12 	bl	8005514 <USB_ReadInterrupts>
 8002af0:	0100      	lsls	r0, r0, #4
 8002af2:	d514      	bpl.n	8002b1e <HAL_PCD_IRQHandler+0x16a>
 8002af4:	6823      	ldr	r3, [r4, #0]
 8002af6:	695a      	ldr	r2, [r3, #20]
 8002af8:	f002 6200 	and.w	r2, r2, #134217728	@ 0x8000000
 8002afc:	615a      	str	r2, [r3, #20]
 8002afe:	f894 24cc 	ldrb.w	r2, [r4, #1228]	@ 0x4cc
 8002b02:	2a00      	cmp	r2, #0
 8002b04:	f040 825d 	bne.w	8002fc2 <HAL_PCD_IRQHandler+0x60e>
 8002b08:	2101      	movs	r1, #1
 8002b0a:	f884 14cc 	strb.w	r1, [r4, #1228]	@ 0x4cc
 8002b0e:	6d5b      	ldr	r3, [r3, #84]	@ 0x54
 8002b10:	4620      	mov	r0, r4
 8002b12:	f3c3 0383 	ubfx	r3, r3, #2, #4
 8002b16:	f8c4 34d0 	str.w	r3, [r4, #1232]	@ 0x4d0
 8002b1a:	f000 fb02 	bl	8003122 <HAL_PCDEx_LPM_Callback>
 8002b1e:	6820      	ldr	r0, [r4, #0]
 8002b20:	f002 fcf8 	bl	8005514 <USB_ReadInterrupts>
 8002b24:	04c1      	lsls	r1, r0, #19
 8002b26:	d533      	bpl.n	8002b90 <HAL_PCD_IRQHandler+0x1dc>
 8002b28:	686b      	ldr	r3, [r5, #4]
 8002b2a:	2110      	movs	r1, #16
 8002b2c:	f023 0301 	bic.w	r3, r3, #1
 8002b30:	606b      	str	r3, [r5, #4]
 8002b32:	6820      	ldr	r0, [r4, #0]
 8002b34:	f002 f960 	bl	8004df8 <USB_FlushTxFifo>
 8002b38:	f64f 317f 	movw	r1, #64383	@ 0xfb7f
 8002b3c:	7920      	ldrb	r0, [r4, #4]
 8002b3e:	f506 6310 	add.w	r3, r6, #2304	@ 0x900
 8002b42:	9a03      	ldr	r2, [sp, #12]
 8002b44:	4290      	cmp	r0, r2
 8002b46:	f200 8240 	bhi.w	8002fca <HAL_PCD_IRQHandler+0x616>
 8002b4a:	69eb      	ldr	r3, [r5, #28]
 8002b4c:	f043 1301 	orr.w	r3, r3, #65537	@ 0x10001
 8002b50:	61eb      	str	r3, [r5, #28]
 8002b52:	7be3      	ldrb	r3, [r4, #15]
 8002b54:	2b00      	cmp	r3, #0
 8002b56:	f000 8255 	beq.w	8003004 <HAL_PCD_IRQHandler+0x650>
 8002b5a:	f8d5 3084 	ldr.w	r3, [r5, #132]	@ 0x84
 8002b5e:	f043 030b 	orr.w	r3, r3, #11
 8002b62:	f8c5 3084 	str.w	r3, [r5, #132]	@ 0x84
 8002b66:	6c6b      	ldr	r3, [r5, #68]	@ 0x44
 8002b68:	f043 030b 	orr.w	r3, r3, #11
 8002b6c:	646b      	str	r3, [r5, #68]	@ 0x44
 8002b6e:	f8d6 3800 	ldr.w	r3, [r6, #2048]	@ 0x800
 8002b72:	f204 429c 	addw	r2, r4, #1180	@ 0x49c
 8002b76:	f423 63fe 	bic.w	r3, r3, #2032	@ 0x7f0
 8002b7a:	f8c6 3800 	str.w	r3, [r6, #2048]	@ 0x800
 8002b7e:	79a1      	ldrb	r1, [r4, #6]
 8002b80:	6820      	ldr	r0, [r4, #0]
 8002b82:	f002 fd07 	bl	8005594 <USB_EP0_OutStart>
 8002b86:	6822      	ldr	r2, [r4, #0]
 8002b88:	6953      	ldr	r3, [r2, #20]
 8002b8a:	f403 5380 	and.w	r3, r3, #4096	@ 0x1000
 8002b8e:	6153      	str	r3, [r2, #20]
 8002b90:	6820      	ldr	r0, [r4, #0]
 8002b92:	f002 fcbf 	bl	8005514 <USB_ReadInterrupts>
 8002b96:	0482      	lsls	r2, r0, #18
 8002b98:	d516      	bpl.n	8002bc8 <HAL_PCD_IRQHandler+0x214>
 8002b9a:	6820      	ldr	r0, [r4, #0]
 8002b9c:	f002 fcec 	bl	8005578 <USB_ActivateSetup>
 8002ba0:	6820      	ldr	r0, [r4, #0]
 8002ba2:	f002 fa1f 	bl	8004fe4 <USB_GetDevSpeed>
 8002ba6:	71e0      	strb	r0, [r4, #7]
 8002ba8:	6827      	ldr	r7, [r4, #0]
 8002baa:	f000 fd3f 	bl	800362c <HAL_RCC_GetHCLKFreq>
 8002bae:	79e2      	ldrb	r2, [r4, #7]
 8002bb0:	4601      	mov	r1, r0
 8002bb2:	4638      	mov	r0, r7
 8002bb4:	f002 f876 	bl	8004ca4 <USB_SetTurnaroundTime>
 8002bb8:	4620      	mov	r0, r4
 8002bba:	f005 fd61 	bl	8008680 <HAL_PCD_ResetCallback>
 8002bbe:	6822      	ldr	r2, [r4, #0]
 8002bc0:	6953      	ldr	r3, [r2, #20]
 8002bc2:	f403 5300 	and.w	r3, r3, #8192	@ 0x2000
 8002bc6:	6153      	str	r3, [r2, #20]
 8002bc8:	6820      	ldr	r0, [r4, #0]
 8002bca:	f002 fca3 	bl	8005514 <USB_ReadInterrupts>
 8002bce:	0703      	lsls	r3, r0, #28
 8002bd0:	d507      	bpl.n	8002be2 <HAL_PCD_IRQHandler+0x22e>
 8002bd2:	4620      	mov	r0, r4
 8002bd4:	f005 fd9c 	bl	8008710 <HAL_PCD_SOFCallback>
 8002bd8:	6822      	ldr	r2, [r4, #0]
 8002bda:	6953      	ldr	r3, [r2, #20]
 8002bdc:	f003 0308 	and.w	r3, r3, #8
 8002be0:	6153      	str	r3, [r2, #20]
 8002be2:	6820      	ldr	r0, [r4, #0]
 8002be4:	f002 fc96 	bl	8005514 <USB_ReadInterrupts>
 8002be8:	0607      	lsls	r7, r0, #24
 8002bea:	f100 8216 	bmi.w	800301a <HAL_PCD_IRQHandler+0x666>
 8002bee:	6820      	ldr	r0, [r4, #0]
 8002bf0:	f002 fc90 	bl	8005514 <USB_ReadInterrupts>
 8002bf4:	02c0      	lsls	r0, r0, #11
 8002bf6:	d50c      	bpl.n	8002c12 <HAL_PCD_IRQHandler+0x25e>
 8002bf8:	46a0      	mov	r8, r4
 8002bfa:	2701      	movs	r7, #1
 8002bfc:	f506 6912 	add.w	r9, r6, #2336	@ 0x920
 8002c00:	7923      	ldrb	r3, [r4, #4]
 8002c02:	42bb      	cmp	r3, r7
 8002c04:	f200 8222 	bhi.w	800304c <HAL_PCD_IRQHandler+0x698>
 8002c08:	6822      	ldr	r2, [r4, #0]
 8002c0a:	6953      	ldr	r3, [r2, #20]
 8002c0c:	f403 1380 	and.w	r3, r3, #1048576	@ 0x100000
 8002c10:	6153      	str	r3, [r2, #20]
 8002c12:	6820      	ldr	r0, [r4, #0]
 8002c14:	f002 fc7e 	bl	8005514 <USB_ReadInterrupts>
 8002c18:	0281      	lsls	r1, r0, #10
 8002c1a:	d52b      	bpl.n	8002c74 <HAL_PCD_IRQHandler+0x2c0>
 8002c1c:	4623      	mov	r3, r4
 8002c1e:	f04f 0c01 	mov.w	ip, #1
 8002c22:	f894 e004 	ldrb.w	lr, [r4, #4]
 8002c26:	f506 6132 	add.w	r1, r6, #2848	@ 0xb20
 8002c2a:	45e6      	cmp	lr, ip
 8002c2c:	d91d      	bls.n	8002c6a <HAL_PCD_IRQHandler+0x2b6>
 8002c2e:	f893 727c 	ldrb.w	r7, [r3, #636]	@ 0x27c
 8002c32:	6808      	ldr	r0, [r1, #0]
 8002c34:	2f01      	cmp	r7, #1
 8002c36:	f040 821f 	bne.w	8003078 <HAL_PCD_IRQHandler+0x6c4>
 8002c3a:	2800      	cmp	r0, #0
 8002c3c:	f280 821c 	bge.w	8003078 <HAL_PCD_IRQHandler+0x6c4>
 8002c40:	f8d4 24d4 	ldr.w	r2, [r4, #1236]	@ 0x4d4
 8002c44:	ea82 4010 	eor.w	r0, r2, r0, lsr #16
 8002c48:	07c2      	lsls	r2, r0, #31
 8002c4a:	f100 8215 	bmi.w	8003078 <HAL_PCD_IRQHandler+0x6c4>
 8002c4e:	f883 727b 	strb.w	r7, [r3, #635]	@ 0x27b
 8002c52:	69b0      	ldr	r0, [r6, #24]
 8002c54:	f040 0080 	orr.w	r0, r0, #128	@ 0x80
 8002c58:	61b0      	str	r0, [r6, #24]
 8002c5a:	6970      	ldr	r0, [r6, #20]
 8002c5c:	0600      	lsls	r0, r0, #24
 8002c5e:	f100 820b 	bmi.w	8003078 <HAL_PCD_IRQHandler+0x6c4>
 8002c62:	686b      	ldr	r3, [r5, #4]
 8002c64:	f443 7300 	orr.w	r3, r3, #512	@ 0x200
 8002c68:	606b      	str	r3, [r5, #4]
 8002c6a:	6822      	ldr	r2, [r4, #0]
 8002c6c:	6953      	ldr	r3, [r2, #20]
 8002c6e:	f403 1300 	and.w	r3, r3, #2097152	@ 0x200000
 8002c72:	6153      	str	r3, [r2, #20]
 8002c74:	6820      	ldr	r0, [r4, #0]
 8002c76:	f002 fc4d 	bl	8005514 <USB_ReadInterrupts>
 8002c7a:	0041      	lsls	r1, r0, #1
 8002c7c:	d507      	bpl.n	8002c8e <HAL_PCD_IRQHandler+0x2da>
 8002c7e:	4620      	mov	r0, r4
 8002c80:	f005 fd16 	bl	80086b0 <HAL_PCD_ConnectCallback>
 8002c84:	6822      	ldr	r2, [r4, #0]
 8002c86:	6953      	ldr	r3, [r2, #20]
 8002c88:	f003 4380 	and.w	r3, r3, #1073741824	@ 0x40000000
 8002c8c:	6153      	str	r3, [r2, #20]
 8002c8e:	6820      	ldr	r0, [r4, #0]
 8002c90:	f002 fc40 	bl	8005514 <USB_ReadInterrupts>
 8002c94:	0742      	lsls	r2, r0, #29
 8002c96:	d50a      	bpl.n	8002cae <HAL_PCD_IRQHandler+0x2fa>
 8002c98:	6823      	ldr	r3, [r4, #0]
 8002c9a:	685d      	ldr	r5, [r3, #4]
 8002c9c:	076b      	lsls	r3, r5, #29
 8002c9e:	d502      	bpl.n	8002ca6 <HAL_PCD_IRQHandler+0x2f2>
 8002ca0:	4620      	mov	r0, r4
 8002ca2:	f005 fd0f 	bl	80086c4 <HAL_PCD_DisconnectCallback>
 8002ca6:	6822      	ldr	r2, [r4, #0]
 8002ca8:	6853      	ldr	r3, [r2, #4]
 8002caa:	432b      	orrs	r3, r5
 8002cac:	6053      	str	r3, [r2, #4]
 8002cae:	b009      	add	sp, #36	@ 0x24
 8002cb0:	e8bd 8ff0 	ldmia.w	sp!, {r4, r5, r6, r7, r8, r9, sl, fp, pc}
 8002cb4:	f5b3 2f40 	cmp.w	r3, #786432	@ 0xc0000
 8002cb8:	f47f aed0 	bne.w	8002a5c <HAL_PCD_IRQHandler+0xa8>
 8002cbc:	2208      	movs	r2, #8
 8002cbe:	4630      	mov	r0, r6
 8002cc0:	f204 419c 	addw	r1, r4, #1180	@ 0x49c
 8002cc4:	f002 fb86 	bl	80053d4 <USB_ReadPacket>
 8002cc8:	2324      	movs	r3, #36	@ 0x24
 8002cca:	fb03 4707 	mla	r7, r3, r7, r4
 8002cce:	f8d7 3268 	ldr.w	r3, [r7, #616]	@ 0x268
 8002cd2:	f3c8 180a 	ubfx	r8, r8, #4, #11
 8002cd6:	4443      	add	r3, r8
 8002cd8:	e6be      	b.n	8002a58 <HAL_PCD_IRQHandler+0xa4>
 8002cda:	6820      	ldr	r0, [r4, #0]
 8002cdc:	f002 fc1e 	bl	800551c <USB_ReadDevAllOutEpInterrupt>
 8002ce0:	46a2      	mov	sl, r4
 8002ce2:	2700      	movs	r7, #0
 8002ce4:	9004      	str	r0, [sp, #16]
 8002ce6:	f506 6830 	add.w	r8, r6, #2816	@ 0xb00
 8002cea:	9b04      	ldr	r3, [sp, #16]
 8002cec:	6820      	ldr	r0, [r4, #0]
 8002cee:	2b00      	cmp	r3, #0
 8002cf0:	f43f aebf 	beq.w	8002a72 <HAL_PCD_IRQHandler+0xbe>
 8002cf4:	9b04      	ldr	r3, [sp, #16]
 8002cf6:	07db      	lsls	r3, r3, #31
 8002cf8:	d578      	bpl.n	8002dec <HAL_PCD_IRQHandler+0x438>
 8002cfa:	fa5f fb87 	uxtb.w	fp, r7
 8002cfe:	4659      	mov	r1, fp
 8002d00:	f002 fc1c 	bl	800553c <USB_ReadDevOutEPInterrupt>
 8002d04:	f010 0f01 	tst.w	r0, #1
 8002d08:	4681      	mov	r9, r0
 8002d0a:	d01f      	beq.n	8002d4c <HAL_PCD_IRQHandler+0x398>
 8002d0c:	2301      	movs	r3, #1
 8002d0e:	6820      	ldr	r0, [r4, #0]
 8002d10:	f8c8 3008 	str.w	r3, [r8, #8]
 8002d14:	f894 c006 	ldrb.w	ip, [r4, #6]
 8002d18:	f500 6330 	add.w	r3, r0, #2816	@ 0xb00
 8002d1c:	eb03 1347 	add.w	r3, r3, r7, lsl #5
 8002d20:	f1bc 0f01 	cmp.w	ip, #1
 8002d24:	6c01      	ldr	r1, [r0, #64]	@ 0x40
 8002d26:	689a      	ldr	r2, [r3, #8]
 8002d28:	f040 808b 	bne.w	8002e42 <HAL_PCD_IRQHandler+0x48e>
 8002d2c:	f012 0f08 	tst.w	r2, #8
 8002d30:	d007      	beq.n	8002d42 <HAL_PCD_IRQHandler+0x38e>
 8002d32:	48b2      	ldr	r0, [pc, #712]	@ (8002ffc <HAL_PCD_IRQHandler+0x648>)
 8002d34:	4281      	cmp	r1, r0
 8002d36:	d909      	bls.n	8002d4c <HAL_PCD_IRQHandler+0x398>
 8002d38:	0412      	lsls	r2, r2, #16
 8002d3a:	d507      	bpl.n	8002d4c <HAL_PCD_IRQHandler+0x398>
 8002d3c:	f44f 4200 	mov.w	r2, #32768	@ 0x8000
 8002d40:	e003      	b.n	8002d4a <HAL_PCD_IRQHandler+0x396>
 8002d42:	f012 0f20 	tst.w	r2, #32
 8002d46:	d05a      	beq.n	8002dfe <HAL_PCD_IRQHandler+0x44a>
 8002d48:	2220      	movs	r2, #32
 8002d4a:	609a      	str	r2, [r3, #8]
 8002d4c:	f019 0f08 	tst.w	r9, #8
 8002d50:	d021      	beq.n	8002d96 <HAL_PCD_IRQHandler+0x3e2>
 8002d52:	2308      	movs	r3, #8
 8002d54:	f8c8 3008 	str.w	r3, [r8, #8]
 8002d58:	6823      	ldr	r3, [r4, #0]
 8002d5a:	49a8      	ldr	r1, [pc, #672]	@ (8002ffc <HAL_PCD_IRQHandler+0x648>)
 8002d5c:	6c1a      	ldr	r2, [r3, #64]	@ 0x40
 8002d5e:	f503 6330 	add.w	r3, r3, #2816	@ 0xb00
 8002d62:	eb03 1347 	add.w	r3, r3, r7, lsl #5
 8002d66:	428a      	cmp	r2, r1
 8002d68:	6898      	ldr	r0, [r3, #8]
 8002d6a:	d904      	bls.n	8002d76 <HAL_PCD_IRQHandler+0x3c2>
 8002d6c:	0400      	lsls	r0, r0, #16
 8002d6e:	bf44      	itt	mi
 8002d70:	f44f 4000 	movmi.w	r0, #32768	@ 0x8000
 8002d74:	6098      	strmi	r0, [r3, #8]
 8002d76:	4620      	mov	r0, r4
 8002d78:	9205      	str	r2, [sp, #20]
 8002d7a:	f005 fb6d 	bl	8008458 <HAL_PCD_SetupStageCallback>
 8002d7e:	9a05      	ldr	r2, [sp, #20]
 8002d80:	499e      	ldr	r1, [pc, #632]	@ (8002ffc <HAL_PCD_IRQHandler+0x648>)
 8002d82:	428a      	cmp	r2, r1
 8002d84:	d907      	bls.n	8002d96 <HAL_PCD_IRQHandler+0x3e2>
 8002d86:	79a1      	ldrb	r1, [r4, #6]
 8002d88:	2901      	cmp	r1, #1
 8002d8a:	d104      	bne.n	8002d96 <HAL_PCD_IRQHandler+0x3e2>
 8002d8c:	6820      	ldr	r0, [r4, #0]
 8002d8e:	f204 429c 	addw	r2, r4, #1180	@ 0x49c
 8002d92:	f002 fbff 	bl	8005594 <USB_EP0_OutStart>
 8002d96:	f019 0f10 	tst.w	r9, #16
 8002d9a:	bf1c      	itt	ne
 8002d9c:	2310      	movne	r3, #16
 8002d9e:	f8c8 3008 	strne.w	r3, [r8, #8]
 8002da2:	f019 0f02 	tst.w	r9, #2
 8002da6:	d014      	beq.n	8002dd2 <HAL_PCD_IRQHandler+0x41e>
 8002da8:	6973      	ldr	r3, [r6, #20]
 8002daa:	0619      	lsls	r1, r3, #24
 8002dac:	bf42      	ittt	mi
 8002dae:	686b      	ldrmi	r3, [r5, #4]
 8002db0:	f443 6380 	orrmi.w	r3, r3, #1024	@ 0x400
 8002db4:	606b      	strmi	r3, [r5, #4]
 8002db6:	f89a 3257 	ldrb.w	r3, [sl, #599]	@ 0x257
 8002dba:	2b01      	cmp	r3, #1
 8002dbc:	d106      	bne.n	8002dcc <HAL_PCD_IRQHandler+0x418>
 8002dbe:	2300      	movs	r3, #0
 8002dc0:	4659      	mov	r1, fp
 8002dc2:	4620      	mov	r0, r4
 8002dc4:	f88a 3257 	strb.w	r3, [sl, #599]	@ 0x257
 8002dc8:	f7ff fcbb 	bl	8002742 <HAL_PCD_ISOOUTIncompleteCallback>
 8002dcc:	2302      	movs	r3, #2
 8002dce:	f8c8 3008 	str.w	r3, [r8, #8]
 8002dd2:	f019 0f20 	tst.w	r9, #32
 8002dd6:	bf1c      	itt	ne
 8002dd8:	2320      	movne	r3, #32
 8002dda:	f8c8 3008 	strne.w	r3, [r8, #8]
 8002dde:	f419 5f00 	tst.w	r9, #8192	@ 0x2000
 8002de2:	bf1c      	itt	ne
 8002de4:	f44f 5300 	movne.w	r3, #8192	@ 0x2000
 8002de8:	f8c8 3008 	strne.w	r3, [r8, #8]
 8002dec:	9b04      	ldr	r3, [sp, #16]
 8002dee:	3701      	adds	r7, #1
 8002df0:	085b      	lsrs	r3, r3, #1
 8002df2:	9304      	str	r3, [sp, #16]
 8002df4:	f108 0820 	add.w	r8, r8, #32
 8002df8:	f10a 0a24 	add.w	sl, sl, #36	@ 0x24
 8002dfc:	e775      	b.n	8002cea <HAL_PCD_IRQHandler+0x336>
 8002dfe:	f8df c1fc 	ldr.w	ip, [pc, #508]	@ 8002ffc <HAL_PCD_IRQHandler+0x648>
 8002e02:	4561      	cmp	r1, ip
 8002e04:	d901      	bls.n	8002e0a <HAL_PCD_IRQHandler+0x456>
 8002e06:	0412      	lsls	r2, r2, #16
 8002e08:	d498      	bmi.n	8002d3c <HAL_PCD_IRQHandler+0x388>
 8002e0a:	691a      	ldr	r2, [r3, #16]
 8002e0c:	f8da 3274 	ldr.w	r3, [sl, #628]	@ 0x274
 8002e10:	f3c2 0212 	ubfx	r2, r2, #0, #19
 8002e14:	1a9b      	subs	r3, r3, r2
 8002e16:	f8ca 3268 	str.w	r3, [sl, #616]	@ 0x268
 8002e1a:	b96f      	cbnz	r7, 8002e38 <HAL_PCD_IRQHandler+0x484>
 8002e1c:	f8d4 2264 	ldr.w	r2, [r4, #612]	@ 0x264
 8002e20:	b92a      	cbnz	r2, 8002e2e <HAL_PCD_IRQHandler+0x47a>
 8002e22:	2101      	movs	r1, #1
 8002e24:	f204 429c 	addw	r2, r4, #1180	@ 0x49c
 8002e28:	f002 fbb4 	bl	8005594 <USB_EP0_OutStart>
 8002e2c:	e004      	b.n	8002e38 <HAL_PCD_IRQHandler+0x484>
 8002e2e:	f8d4 2260 	ldr.w	r2, [r4, #608]	@ 0x260
 8002e32:	441a      	add	r2, r3
 8002e34:	f8c4 2260 	str.w	r2, [r4, #608]	@ 0x260
 8002e38:	4659      	mov	r1, fp
 8002e3a:	4620      	mov	r0, r4
 8002e3c:	f005 fbcc 	bl	80085d8 <HAL_PCD_DataOutStageCallback>
 8002e40:	e784      	b.n	8002d4c <HAL_PCD_IRQHandler+0x398>
 8002e42:	f8df c1bc 	ldr.w	ip, [pc, #444]	@ 8003000 <HAL_PCD_IRQHandler+0x64c>
 8002e46:	4561      	cmp	r1, ip
 8002e48:	d107      	bne.n	8002e5a <HAL_PCD_IRQHandler+0x4a6>
 8002e4a:	0411      	lsls	r1, r2, #16
 8002e4c:	f53f af76 	bmi.w	8002d3c <HAL_PCD_IRQHandler+0x388>
 8002e50:	0692      	lsls	r2, r2, #26
 8002e52:	d5f1      	bpl.n	8002e38 <HAL_PCD_IRQHandler+0x484>
 8002e54:	2220      	movs	r2, #32
 8002e56:	609a      	str	r2, [r3, #8]
 8002e58:	e7ee      	b.n	8002e38 <HAL_PCD_IRQHandler+0x484>
 8002e5a:	2f00      	cmp	r7, #0
 8002e5c:	d1ec      	bne.n	8002e38 <HAL_PCD_IRQHandler+0x484>
 8002e5e:	f8d4 3264 	ldr.w	r3, [r4, #612]	@ 0x264
 8002e62:	2b00      	cmp	r3, #0
 8002e64:	d1e8      	bne.n	8002e38 <HAL_PCD_IRQHandler+0x484>
 8002e66:	4639      	mov	r1, r7
 8002e68:	f204 429c 	addw	r2, r4, #1180	@ 0x49c
 8002e6c:	e7dc      	b.n	8002e28 <HAL_PCD_IRQHandler+0x474>
 8002e6e:	9b04      	ldr	r3, [sp, #16]
 8002e70:	07da      	lsls	r2, r3, #31
 8002e72:	f140 8099 	bpl.w	8002fa8 <HAL_PCD_IRQHandler+0x5f4>
 8002e76:	fa5f f38a 	uxtb.w	r3, sl
 8002e7a:	4619      	mov	r1, r3
 8002e7c:	9305      	str	r3, [sp, #20]
 8002e7e:	f002 fb66 	bl	800554e <USB_ReadDevInEPInterrupt>
 8002e82:	f010 0f01 	tst.w	r0, #1
 8002e86:	4680      	mov	r8, r0
 8002e88:	d01f      	beq.n	8002eca <HAL_PCD_IRQHandler+0x516>
 8002e8a:	2101      	movs	r1, #1
 8002e8c:	6b6b      	ldr	r3, [r5, #52]	@ 0x34
 8002e8e:	f00a 020f 	and.w	r2, sl, #15
 8002e92:	fa01 f202 	lsl.w	r2, r1, r2
 8002e96:	ea23 0302 	bic.w	r3, r3, r2
 8002e9a:	636b      	str	r3, [r5, #52]	@ 0x34
 8002e9c:	f8cb 1008 	str.w	r1, [fp, #8]
 8002ea0:	79a1      	ldrb	r1, [r4, #6]
 8002ea2:	2901      	cmp	r1, #1
 8002ea4:	d10d      	bne.n	8002ec2 <HAL_PCD_IRQHandler+0x50e>
 8002ea6:	e9d7 2307 	ldrd	r2, r3, [r7, #28]
 8002eaa:	4413      	add	r3, r2
 8002eac:	623b      	str	r3, [r7, #32]
 8002eae:	f1ba 0f00 	cmp.w	sl, #0
 8002eb2:	d106      	bne.n	8002ec2 <HAL_PCD_IRQHandler+0x50e>
 8002eb4:	6a63      	ldr	r3, [r4, #36]	@ 0x24
 8002eb6:	b923      	cbnz	r3, 8002ec2 <HAL_PCD_IRQHandler+0x50e>
 8002eb8:	6820      	ldr	r0, [r4, #0]
 8002eba:	f204 429c 	addw	r2, r4, #1180	@ 0x49c
 8002ebe:	f002 fb69 	bl	8005594 <USB_EP0_OutStart>
 8002ec2:	4620      	mov	r0, r4
 8002ec4:	9905      	ldr	r1, [sp, #20]
 8002ec6:	f005 fb25 	bl	8008514 <HAL_PCD_DataInStageCallback>
 8002eca:	f018 0f08 	tst.w	r8, #8
 8002ece:	bf1c      	itt	ne
 8002ed0:	2308      	movne	r3, #8
 8002ed2:	f8cb 3008 	strne.w	r3, [fp, #8]
 8002ed6:	f018 0f10 	tst.w	r8, #16
 8002eda:	bf1c      	itt	ne
 8002edc:	2310      	movne	r3, #16
 8002ede:	f8cb 3008 	strne.w	r3, [fp, #8]
 8002ee2:	f018 0f40 	tst.w	r8, #64	@ 0x40
 8002ee6:	bf1c      	itt	ne
 8002ee8:	2340      	movne	r3, #64	@ 0x40
 8002eea:	f8cb 3008 	strne.w	r3, [fp, #8]
 8002eee:	f018 0f02 	tst.w	r8, #2
 8002ef2:	d00f      	beq.n	8002f14 <HAL_PCD_IRQHandler+0x560>
 8002ef4:	4651      	mov	r1, sl
 8002ef6:	4630      	mov	r0, r6
 8002ef8:	f001 ff7e 	bl	8004df8 <USB_FlushTxFifo>
 8002efc:	7dfb      	ldrb	r3, [r7, #23]
 8002efe:	2b01      	cmp	r3, #1
 8002f00:	d105      	bne.n	8002f0e <HAL_PCD_IRQHandler+0x55a>
 8002f02:	2300      	movs	r3, #0
 8002f04:	4620      	mov	r0, r4
 8002f06:	9905      	ldr	r1, [sp, #20]
 8002f08:	75fb      	strb	r3, [r7, #23]
 8002f0a:	f7ff fc1b 	bl	8002744 <HAL_PCD_ISOINIncompleteCallback>
 8002f0e:	2302      	movs	r3, #2
 8002f10:	f8cb 3008 	str.w	r3, [fp, #8]
 8002f14:	6823      	ldr	r3, [r4, #0]
 8002f16:	f018 0f80 	tst.w	r8, #128	@ 0x80
 8002f1a:	9306      	str	r3, [sp, #24]
 8002f1c:	d044      	beq.n	8002fa8 <HAL_PCD_IRQHandler+0x5f4>
 8002f1e:	e9d7 3209 	ldrd	r3, r2, [r7, #36]	@ 0x24
 8002f22:	429a      	cmp	r2, r3
 8002f24:	d840      	bhi.n	8002fa8 <HAL_PCD_IRQHandler+0x5f4>
 8002f26:	eba3 0802 	sub.w	r8, r3, r2
 8002f2a:	69fb      	ldr	r3, [r7, #28]
 8002f2c:	4598      	cmp	r8, r3
 8002f2e:	bf28      	it	cs
 8002f30:	4698      	movcs	r8, r3
 8002f32:	9b06      	ldr	r3, [sp, #24]
 8002f34:	f108 0803 	add.w	r8, r8, #3
 8002f38:	f503 6310 	add.w	r3, r3, #2304	@ 0x900
 8002f3c:	eb03 134a 	add.w	r3, r3, sl, lsl #5
 8002f40:	ea4f 0898 	mov.w	r8, r8, lsr #2
 8002f44:	9307      	str	r3, [sp, #28]
 8002f46:	9b07      	ldr	r3, [sp, #28]
 8002f48:	6999      	ldr	r1, [r3, #24]
 8002f4a:	e9d7 3209 	ldrd	r3, r2, [r7, #36]	@ 0x24
 8002f4e:	b289      	uxth	r1, r1
 8002f50:	4541      	cmp	r1, r8
 8002f52:	d327      	bcc.n	8002fa4 <HAL_PCD_IRQHandler+0x5f0>
 8002f54:	4293      	cmp	r3, r2
 8002f56:	d80b      	bhi.n	8002f70 <HAL_PCD_IRQHandler+0x5bc>
 8002f58:	2101      	movs	r1, #1
 8002f5a:	9b06      	ldr	r3, [sp, #24]
 8002f5c:	f00a 000f 	and.w	r0, sl, #15
 8002f60:	f8d3 2834 	ldr.w	r2, [r3, #2100]	@ 0x834
 8002f64:	4081      	lsls	r1, r0
 8002f66:	ea22 0201 	bic.w	r2, r2, r1
 8002f6a:	f8c3 2834 	str.w	r2, [r3, #2100]	@ 0x834
 8002f6e:	e01b      	b.n	8002fa8 <HAL_PCD_IRQHandler+0x5f4>
 8002f70:	eba3 0902 	sub.w	r9, r3, r2
 8002f74:	69fb      	ldr	r3, [r7, #28]
 8002f76:	9a05      	ldr	r2, [sp, #20]
 8002f78:	4599      	cmp	r9, r3
 8002f7a:	bf28      	it	cs
 8002f7c:	4699      	movcs	r9, r3
 8002f7e:	79a3      	ldrb	r3, [r4, #6]
 8002f80:	9806      	ldr	r0, [sp, #24]
 8002f82:	9300      	str	r3, [sp, #0]
 8002f84:	6a39      	ldr	r1, [r7, #32]
 8002f86:	fa1f f389 	uxth.w	r3, r9
 8002f8a:	f002 f90d 	bl	80051a8 <USB_WritePacket>
 8002f8e:	6a3b      	ldr	r3, [r7, #32]
 8002f90:	f109 0803 	add.w	r8, r9, #3
 8002f94:	444b      	add	r3, r9
 8002f96:	623b      	str	r3, [r7, #32]
 8002f98:	6abb      	ldr	r3, [r7, #40]	@ 0x28
 8002f9a:	ea4f 0898 	mov.w	r8, r8, lsr #2
 8002f9e:	444b      	add	r3, r9
 8002fa0:	62bb      	str	r3, [r7, #40]	@ 0x28
 8002fa2:	e7d0      	b.n	8002f46 <HAL_PCD_IRQHandler+0x592>
 8002fa4:	4293      	cmp	r3, r2
 8002fa6:	d9d7      	bls.n	8002f58 <HAL_PCD_IRQHandler+0x5a4>
 8002fa8:	9b04      	ldr	r3, [sp, #16]
 8002faa:	f10a 0a01 	add.w	sl, sl, #1
 8002fae:	085b      	lsrs	r3, r3, #1
 8002fb0:	9304      	str	r3, [sp, #16]
 8002fb2:	3724      	adds	r7, #36	@ 0x24
 8002fb4:	f10b 0b20 	add.w	fp, fp, #32
 8002fb8:	e569      	b.n	8002a8e <HAL_PCD_IRQHandler+0xda>
 8002fba:	4620      	mov	r0, r4
 8002fbc:	f005 fb9e 	bl	80086fc <HAL_PCD_ResumeCallback>
 8002fc0:	e57e      	b.n	8002ac0 <HAL_PCD_IRQHandler+0x10c>
 8002fc2:	4620      	mov	r0, r4
 8002fc4:	f005 fb90 	bl	80086e8 <HAL_PCD_SuspendCallback>
 8002fc8:	e5a9      	b.n	8002b1e <HAL_PCD_IRQHandler+0x16a>
 8002fca:	6099      	str	r1, [r3, #8]
 8002fcc:	681a      	ldr	r2, [r3, #0]
 8002fce:	3320      	adds	r3, #32
 8002fd0:	f422 1200 	bic.w	r2, r2, #2097152	@ 0x200000
 8002fd4:	f843 2c20 	str.w	r2, [r3, #-32]
 8002fd8:	f8c3 11e8 	str.w	r1, [r3, #488]	@ 0x1e8
 8002fdc:	f8d3 21e0 	ldr.w	r2, [r3, #480]	@ 0x1e0
 8002fe0:	f422 1200 	bic.w	r2, r2, #2097152	@ 0x200000
 8002fe4:	f8c3 21e0 	str.w	r2, [r3, #480]	@ 0x1e0
 8002fe8:	f8d3 21e0 	ldr.w	r2, [r3, #480]	@ 0x1e0
 8002fec:	f042 6200 	orr.w	r2, r2, #134217728	@ 0x8000000
 8002ff0:	f8c3 21e0 	str.w	r2, [r3, #480]	@ 0x1e0
 8002ff4:	9a03      	ldr	r2, [sp, #12]
 8002ff6:	3201      	adds	r2, #1
 8002ff8:	9203      	str	r2, [sp, #12]
 8002ffa:	e5a2      	b.n	8002b42 <HAL_PCD_IRQHandler+0x18e>
 8002ffc:	4f54300a 	.word	0x4f54300a
 8003000:	4f54310a 	.word	0x4f54310a
 8003004:	696b      	ldr	r3, [r5, #20]
 8003006:	f443 5300 	orr.w	r3, r3, #8192	@ 0x2000
 800300a:	f043 032b 	orr.w	r3, r3, #43	@ 0x2b
 800300e:	616b      	str	r3, [r5, #20]
 8003010:	692b      	ldr	r3, [r5, #16]
 8003012:	f043 030b 	orr.w	r3, r3, #11
 8003016:	612b      	str	r3, [r5, #16]
 8003018:	e5a9      	b.n	8002b6e <HAL_PCD_IRQHandler+0x1ba>
 800301a:	2701      	movs	r7, #1
 800301c:	f04f 0924 	mov.w	r9, #36	@ 0x24
 8003020:	69b3      	ldr	r3, [r6, #24]
 8003022:	f204 2857 	addw	r8, r4, #599	@ 0x257
 8003026:	f023 0380 	bic.w	r3, r3, #128	@ 0x80
 800302a:	61b3      	str	r3, [r6, #24]
 800302c:	7923      	ldrb	r3, [r4, #4]
 800302e:	42bb      	cmp	r3, r7
 8003030:	f67f addd 	bls.w	8002bee <HAL_PCD_IRQHandler+0x23a>
 8003034:	fb09 f307 	mul.w	r3, r9, r7
 8003038:	f818 3003 	ldrb.w	r3, [r8, r3]
 800303c:	2b01      	cmp	r3, #1
 800303e:	d103      	bne.n	8003048 <HAL_PCD_IRQHandler+0x694>
 8003040:	4620      	mov	r0, r4
 8003042:	b2f9      	uxtb	r1, r7
 8003044:	f7ff fca5 	bl	8002992 <HAL_PCD_EP_Abort>
 8003048:	3701      	adds	r7, #1
 800304a:	e7ef      	b.n	800302c <HAL_PCD_IRQHandler+0x678>
 800304c:	f898 303c 	ldrb.w	r3, [r8, #60]	@ 0x3c
 8003050:	f8d9 2000 	ldr.w	r2, [r9]
 8003054:	2b01      	cmp	r3, #1
 8003056:	d109      	bne.n	800306c <HAL_PCD_IRQHandler+0x6b8>
 8003058:	2a00      	cmp	r2, #0
 800305a:	da07      	bge.n	800306c <HAL_PCD_IRQHandler+0x6b8>
 800305c:	f067 017f 	orn	r1, r7, #127	@ 0x7f
 8003060:	4620      	mov	r0, r4
 8003062:	f888 303b 	strb.w	r3, [r8, #59]	@ 0x3b
 8003066:	b2c9      	uxtb	r1, r1
 8003068:	f7ff fc93 	bl	8002992 <HAL_PCD_EP_Abort>
 800306c:	3701      	adds	r7, #1
 800306e:	f108 0824 	add.w	r8, r8, #36	@ 0x24
 8003072:	f109 0920 	add.w	r9, r9, #32
 8003076:	e5c3      	b.n	8002c00 <HAL_PCD_IRQHandler+0x24c>
 8003078:	f10c 0c01 	add.w	ip, ip, #1
 800307c:	3324      	adds	r3, #36	@ 0x24
 800307e:	3120      	adds	r1, #32
 8003080:	e5d3      	b.n	8002c2a <HAL_PCD_IRQHandler+0x276>
 8003082:	bf00      	nop

08003084 <HAL_PCD_EP_Flush>:
 8003084:	b510      	push	{r4, lr}
 8003086:	f890 3494 	ldrb.w	r3, [r0, #1172]	@ 0x494
 800308a:	4604      	mov	r4, r0
 800308c:	2b01      	cmp	r3, #1
 800308e:	d010      	beq.n	80030b2 <HAL_PCD_EP_Flush+0x2e>
 8003090:	2301      	movs	r3, #1
 8003092:	f880 3494 	strb.w	r3, [r0, #1172]	@ 0x494
 8003096:	060b      	lsls	r3, r1, #24
 8003098:	6800      	ldr	r0, [r0, #0]
 800309a:	d507      	bpl.n	80030ac <HAL_PCD_EP_Flush+0x28>
 800309c:	f001 010f 	and.w	r1, r1, #15
 80030a0:	f001 feaa 	bl	8004df8 <USB_FlushTxFifo>
 80030a4:	2000      	movs	r0, #0
 80030a6:	f884 0494 	strb.w	r0, [r4, #1172]	@ 0x494
 80030aa:	bd10      	pop	{r4, pc}
 80030ac:	f001 fec7 	bl	8004e3e <USB_FlushRxFifo>
 80030b0:	e7f8      	b.n	80030a4 <HAL_PCD_EP_Flush+0x20>
 80030b2:	2002      	movs	r0, #2
 80030b4:	e7f9      	b.n	80030aa <HAL_PCD_EP_Flush+0x26>

080030b6 <HAL_PCDEx_SetTxFiFo>:
 80030b6:	6800      	ldr	r0, [r0, #0]
 80030b8:	b570      	push	{r4, r5, r6, lr}
 80030ba:	6a43      	ldr	r3, [r0, #36]	@ 0x24
 80030bc:	0412      	lsls	r2, r2, #16
 80030be:	b919      	cbnz	r1, 80030c8 <HAL_PCDEx_SetTxFiFo+0x12>
 80030c0:	4313      	orrs	r3, r2
 80030c2:	6283      	str	r3, [r0, #40]	@ 0x28
 80030c4:	2000      	movs	r0, #0
 80030c6:	bd70      	pop	{r4, r5, r6, pc}
 80030c8:	6a84      	ldr	r4, [r0, #40]	@ 0x28
 80030ca:	1e4e      	subs	r6, r1, #1
 80030cc:	eb03 4314 	add.w	r3, r3, r4, lsr #16
 80030d0:	2400      	movs	r4, #0
 80030d2:	42b4      	cmp	r4, r6
 80030d4:	d305      	bcc.n	80030e2 <HAL_PCDEx_SetTxFiFo+0x2c>
 80030d6:	313f      	adds	r1, #63	@ 0x3f
 80030d8:	4313      	orrs	r3, r2
 80030da:	eb00 0081 	add.w	r0, r0, r1, lsl #2
 80030de:	6043      	str	r3, [r0, #4]
 80030e0:	e7f0      	b.n	80030c4 <HAL_PCDEx_SetTxFiFo+0xe>
 80030e2:	f104 0540 	add.w	r5, r4, #64	@ 0x40
 80030e6:	eb00 0585 	add.w	r5, r0, r5, lsl #2
 80030ea:	686d      	ldr	r5, [r5, #4]
 80030ec:	3401      	adds	r4, #1
 80030ee:	eb03 4315 	add.w	r3, r3, r5, lsr #16
 80030f2:	e7ee      	b.n	80030d2 <HAL_PCDEx_SetTxFiFo+0x1c>

080030f4 <HAL_PCDEx_SetRxFiFo>:
 80030f4:	6803      	ldr	r3, [r0, #0]
 80030f6:	2000      	movs	r0, #0
 80030f8:	6259      	str	r1, [r3, #36]	@ 0x24
 80030fa:	4770      	bx	lr

080030fc <HAL_PCDEx_ActivateLPM>:
 80030fc:	2101      	movs	r1, #1
 80030fe:	6802      	ldr	r2, [r0, #0]
 8003100:	f8c0 14d8 	str.w	r1, [r0, #1240]	@ 0x4d8
 8003104:	4603      	mov	r3, r0
 8003106:	2000      	movs	r0, #0
 8003108:	f883 04cc 	strb.w	r0, [r3, #1228]	@ 0x4cc
 800310c:	6993      	ldr	r3, [r2, #24]
 800310e:	f043 6300 	orr.w	r3, r3, #134217728	@ 0x8000000
 8003112:	6193      	str	r3, [r2, #24]
 8003114:	6d53      	ldr	r3, [r2, #84]	@ 0x54
 8003116:	f043 5380 	orr.w	r3, r3, #268435456	@ 0x10000000
 800311a:	f043 0303 	orr.w	r3, r3, #3
 800311e:	6553      	str	r3, [r2, #84]	@ 0x54
 8003120:	4770      	bx	lr

08003122 <HAL_PCDEx_LPM_Callback>:
 8003122:	4770      	bx	lr

08003124 <HAL_PWREx_ControlVoltageScaling>:
 8003124:	4b1d      	ldr	r3, [pc, #116]	@ (800319c <HAL_PWREx_ControlVoltageScaling+0x78>)
 8003126:	6bda      	ldr	r2, [r3, #60]	@ 0x3c
 8003128:	f402 3240 	and.w	r2, r2, #196608	@ 0x30000
 800312c:	4282      	cmp	r2, r0
 800312e:	d108      	bne.n	8003142 <HAL_PWREx_ControlVoltageScaling+0x1e>
 8003130:	f5b2 3f80 	cmp.w	r2, #65536	@ 0x10000
 8003134:	bf82      	ittt	hi
 8003136:	68da      	ldrhi	r2, [r3, #12]
 8003138:	f442 2280 	orrhi.w	r2, r2, #262144	@ 0x40000
 800313c:	60da      	strhi	r2, [r3, #12]
 800313e:	2000      	movs	r0, #0
 8003140:	4770      	bx	lr
 8003142:	68da      	ldr	r2, [r3, #12]
 8003144:	f5b0 3f80 	cmp.w	r0, #65536	@ 0x10000
 8003148:	f422 22e0 	bic.w	r2, r2, #458752	@ 0x70000
 800314c:	ea42 0200 	orr.w	r2, r2, r0
 8003150:	bf88      	it	hi
 8003152:	f442 2280 	orrhi.w	r2, r2, #262144	@ 0x40000
 8003156:	60da      	str	r2, [r3, #12]
 8003158:	f44f 727a 	mov.w	r2, #1000	@ 0x3e8
 800315c:	4b10      	ldr	r3, [pc, #64]	@ (80031a0 <HAL_PWREx_ControlVoltageScaling+0x7c>)
 800315e:	2132      	movs	r1, #50	@ 0x32
 8003160:	681b      	ldr	r3, [r3, #0]
 8003162:	fbb3 f3f2 	udiv	r3, r3, r2
 8003166:	434b      	muls	r3, r1
 8003168:	fbb3 f3f2 	udiv	r3, r3, r2
 800316c:	3301      	adds	r3, #1
 800316e:	461a      	mov	r2, r3
 8003170:	490a      	ldr	r1, [pc, #40]	@ (800319c <HAL_PWREx_ControlVoltageScaling+0x78>)
 8003172:	68c8      	ldr	r0, [r1, #12]
 8003174:	0400      	lsls	r0, r0, #16
 8003176:	d404      	bmi.n	8003182 <HAL_PWREx_ControlVoltageScaling+0x5e>
 8003178:	b90a      	cbnz	r2, 800317e <HAL_PWREx_ControlVoltageScaling+0x5a>
 800317a:	2003      	movs	r0, #3
 800317c:	4770      	bx	lr
 800317e:	3a01      	subs	r2, #1
 8003180:	e7f7      	b.n	8003172 <HAL_PWREx_ControlVoltageScaling+0x4e>
 8003182:	2a00      	cmp	r2, #0
 8003184:	d0f9      	beq.n	800317a <HAL_PWREx_ControlVoltageScaling+0x56>
 8003186:	4a05      	ldr	r2, [pc, #20]	@ (800319c <HAL_PWREx_ControlVoltageScaling+0x78>)
 8003188:	6bd1      	ldr	r1, [r2, #60]	@ 0x3c
 800318a:	0409      	lsls	r1, r1, #16
 800318c:	d403      	bmi.n	8003196 <HAL_PWREx_ControlVoltageScaling+0x72>
 800318e:	2b00      	cmp	r3, #0
 8003190:	d0f3      	beq.n	800317a <HAL_PWREx_ControlVoltageScaling+0x56>
 8003192:	3b01      	subs	r3, #1
 8003194:	e7f8      	b.n	8003188 <HAL_PWREx_ControlVoltageScaling+0x64>
 8003196:	2b00      	cmp	r3, #0
 8003198:	d1d1      	bne.n	800313e <HAL_PWREx_ControlVoltageScaling+0x1a>
 800319a:	e7ee      	b.n	800317a <HAL_PWREx_ControlVoltageScaling+0x56>
 800319c:	46020800 	.word	0x46020800
 80031a0:	20000000 	.word	0x20000000

080031a4 <HAL_PWREx_GetVoltageRange>:
 80031a4:	4b02      	ldr	r3, [pc, #8]	@ (80031b0 <HAL_PWREx_GetVoltageRange+0xc>)
 80031a6:	6bd8      	ldr	r0, [r3, #60]	@ 0x3c
 80031a8:	f400 3040 	and.w	r0, r0, #196608	@ 0x30000
 80031ac:	4770      	bx	lr
 80031ae:	bf00      	nop
 80031b0:	46020800 	.word	0x46020800

080031b4 <HAL_PWREx_EnableVddUSB>:
 80031b4:	4a02      	ldr	r2, [pc, #8]	@ (80031c0 <HAL_PWREx_EnableVddUSB+0xc>)
 80031b6:	6913      	ldr	r3, [r2, #16]
 80031b8:	f043 5380 	orr.w	r3, r3, #268435456	@ 0x10000000
 80031bc:	6113      	str	r3, [r2, #16]
 80031be:	4770      	bx	lr
 80031c0:	46020800 	.word	0x46020800

080031c4 <HAL_PWREx_EnableVddA>:
 80031c4:	4a02      	ldr	r2, [pc, #8]	@ (80031d0 <HAL_PWREx_EnableVddA+0xc>)
 80031c6:	6913      	ldr	r3, [r2, #16]
 80031c8:	f043 4380 	orr.w	r3, r3, #1073741824	@ 0x40000000
 80031cc:	6113      	str	r3, [r2, #16]
 80031ce:	4770      	bx	lr
 80031d0:	46020800 	.word	0x46020800

080031d4 <RCC_SetFlashLatencyFromMSIRange>:
 80031d4:	b537      	push	{r0, r1, r2, r4, r5, lr}
 80031d6:	4d2b      	ldr	r5, [pc, #172]	@ (8003284 <RCC_SetFlashLatencyFromMSIRange+0xb0>)
 80031d8:	4604      	mov	r4, r0
 80031da:	f8d5 3094 	ldr.w	r3, [r5, #148]	@ 0x94
 80031de:	075b      	lsls	r3, r3, #29
 80031e0:	d518      	bpl.n	8003214 <RCC_SetFlashLatencyFromMSIRange+0x40>
 80031e2:	f7ff ffdf 	bl	80031a4 <HAL_PWREx_GetVoltageRange>
 80031e6:	f420 3380 	bic.w	r3, r0, #65536	@ 0x10000
 80031ea:	f5b3 3f00 	cmp.w	r3, #131072	@ 0x20000
 80031ee:	d126      	bne.n	800323e <RCC_SetFlashLatencyFromMSIRange+0x6a>
 80031f0:	f1b4 5f80 	cmp.w	r4, #268435456	@ 0x10000000
 80031f4:	bf2c      	ite	cs
 80031f6:	2000      	movcs	r0, #0
 80031f8:	2001      	movcc	r0, #1
 80031fa:	4a23      	ldr	r2, [pc, #140]	@ (8003288 <RCC_SetFlashLatencyFromMSIRange+0xb4>)
 80031fc:	6813      	ldr	r3, [r2, #0]
 80031fe:	f023 030f 	bic.w	r3, r3, #15
 8003202:	4303      	orrs	r3, r0
 8003204:	6013      	str	r3, [r2, #0]
 8003206:	6813      	ldr	r3, [r2, #0]
 8003208:	f003 030f 	and.w	r3, r3, #15
 800320c:	1a18      	subs	r0, r3, r0
 800320e:	bf18      	it	ne
 8003210:	2001      	movne	r0, #1
 8003212:	e01b      	b.n	800324c <RCC_SetFlashLatencyFromMSIRange+0x78>
 8003214:	f8d5 3094 	ldr.w	r3, [r5, #148]	@ 0x94
 8003218:	f043 0304 	orr.w	r3, r3, #4
 800321c:	f8c5 3094 	str.w	r3, [r5, #148]	@ 0x94
 8003220:	f8d5 3094 	ldr.w	r3, [r5, #148]	@ 0x94
 8003224:	f003 0304 	and.w	r3, r3, #4
 8003228:	9301      	str	r3, [sp, #4]
 800322a:	9b01      	ldr	r3, [sp, #4]
 800322c:	f7ff ffba 	bl	80031a4 <HAL_PWREx_GetVoltageRange>
 8003230:	f8d5 3094 	ldr.w	r3, [r5, #148]	@ 0x94
 8003234:	f023 0304 	bic.w	r3, r3, #4
 8003238:	f8c5 3094 	str.w	r3, [r5, #148]	@ 0x94
 800323c:	e7d3      	b.n	80031e6 <RCC_SetFlashLatencyFromMSIRange+0x12>
 800323e:	f1b4 5f80 	cmp.w	r4, #268435456	@ 0x10000000
 8003242:	d205      	bcs.n	8003250 <RCC_SetFlashLatencyFromMSIRange+0x7c>
 8003244:	f5b0 3f80 	cmp.w	r0, #65536	@ 0x10000
 8003248:	d015      	beq.n	8003276 <RCC_SetFlashLatencyFromMSIRange+0xa2>
 800324a:	2001      	movs	r0, #1
 800324c:	b003      	add	sp, #12
 800324e:	bd30      	pop	{r4, r5, pc}
 8003250:	f1b4 5f00 	cmp.w	r4, #536870912	@ 0x20000000
 8003254:	d906      	bls.n	8003264 <RCC_SetFlashLatencyFromMSIRange+0x90>
 8003256:	b980      	cbnz	r0, 800327a <RCC_SetFlashLatencyFromMSIRange+0xa6>
 8003258:	f1b4 5f40 	cmp.w	r4, #805306368	@ 0x30000000
 800325c:	bf8c      	ite	hi
 800325e:	2000      	movhi	r0, #0
 8003260:	2001      	movls	r0, #1
 8003262:	e7ca      	b.n	80031fa <RCC_SetFlashLatencyFromMSIRange+0x26>
 8003264:	f1b4 5f80 	cmp.w	r4, #268435456	@ 0x10000000
 8003268:	d109      	bne.n	800327e <RCC_SetFlashLatencyFromMSIRange+0xaa>
 800326a:	f5b0 3f80 	cmp.w	r0, #65536	@ 0x10000
 800326e:	bf0c      	ite	eq
 8003270:	2001      	moveq	r0, #1
 8003272:	2002      	movne	r0, #2
 8003274:	e7c1      	b.n	80031fa <RCC_SetFlashLatencyFromMSIRange+0x26>
 8003276:	2003      	movs	r0, #3
 8003278:	e7bf      	b.n	80031fa <RCC_SetFlashLatencyFromMSIRange+0x26>
 800327a:	2000      	movs	r0, #0
 800327c:	e7bd      	b.n	80031fa <RCC_SetFlashLatencyFromMSIRange+0x26>
 800327e:	2001      	movs	r0, #1
 8003280:	e7bb      	b.n	80031fa <RCC_SetFlashLatencyFromMSIRange+0x26>
 8003282:	bf00      	nop
 8003284:	46020c00 	.word	0x46020c00
 8003288:	40022000 	.word	0x40022000

0800328c <HAL_RCC_GetSysClockFreq>:
 800328c:	4a39      	ldr	r2, [pc, #228]	@ (8003374 <HAL_RCC_GetSysClockFreq+0xe8>)
 800328e:	b510      	push	{r4, lr}
 8003290:	69d3      	ldr	r3, [r2, #28]
 8003292:	6a91      	ldr	r1, [r2, #40]	@ 0x28
 8003294:	f013 030c 	ands.w	r3, r3, #12
 8003298:	d005      	beq.n	80032a6 <HAL_RCC_GetSysClockFreq+0x1a>
 800329a:	2b0c      	cmp	r3, #12
 800329c:	d136      	bne.n	800330c <HAL_RCC_GetSysClockFreq+0x80>
 800329e:	f001 0103 	and.w	r1, r1, #3
 80032a2:	2901      	cmp	r1, #1
 80032a4:	d132      	bne.n	800330c <HAL_RCC_GetSysClockFreq+0x80>
 80032a6:	6891      	ldr	r1, [r2, #8]
 80032a8:	0209      	lsls	r1, r1, #8
 80032aa:	bf54      	ite	pl
 80032ac:	f8d2 20f4 	ldrpl.w	r2, [r2, #244]	@ 0xf4
 80032b0:	6892      	ldrmi	r2, [r2, #8]
 80032b2:	4931      	ldr	r1, [pc, #196]	@ (8003378 <HAL_RCC_GetSysClockFreq+0xec>)
 80032b4:	bf54      	ite	pl
 80032b6:	f3c2 3203 	ubfxpl	r2, r2, #12, #4
 80032ba:	0f12      	lsrmi	r2, r2, #28
 80032bc:	f851 0022 	ldr.w	r0, [r1, r2, lsl #2]
 80032c0:	2b00      	cmp	r3, #0
 80032c2:	d051      	beq.n	8003368 <HAL_RCC_GetSysClockFreq+0xdc>
 80032c4:	4a2b      	ldr	r2, [pc, #172]	@ (8003374 <HAL_RCC_GetSysClockFreq+0xe8>)
 80032c6:	eddf 5a2d 	vldr	s11, [pc, #180]	@ 800337c <HAL_RCC_GetSysClockFreq+0xf0>
 80032ca:	6a91      	ldr	r1, [r2, #40]	@ 0x28
 80032cc:	6a93      	ldr	r3, [r2, #40]	@ 0x28
 80032ce:	6a94      	ldr	r4, [r2, #40]	@ 0x28
 80032d0:	f3c3 2303 	ubfx	r3, r3, #8, #4
 80032d4:	3301      	adds	r3, #1
 80032d6:	ee06 3a90 	vmov	s13, r3
 80032da:	6b93      	ldr	r3, [r2, #56]	@ 0x38
 80032dc:	f3c4 1400 	ubfx	r4, r4, #4, #1
 80032e0:	f3c3 03cc 	ubfx	r3, r3, #3, #13
 80032e4:	4363      	muls	r3, r4
 80032e6:	ee07 3a90 	vmov	s15, r3
 80032ea:	f001 0103 	and.w	r1, r1, #3
 80032ee:	2902      	cmp	r1, #2
 80032f0:	eeb8 7ae7 	vcvt.f32.s32	s14, s15
 80032f4:	eef8 6ae6 	vcvt.f32.s32	s13, s13
 80032f8:	eeb7 6a00 	vmov.f32	s12, #112	@ 0x3f800000  1.0
 80032fc:	d014      	beq.n	8003328 <HAL_RCC_GetSysClockFreq+0x9c>
 80032fe:	2903      	cmp	r1, #3
 8003300:	d033      	beq.n	800336a <HAL_RCC_GetSysClockFreq+0xde>
 8003302:	ee07 0a90 	vmov	s15, r0
 8003306:	eef8 7a67 	vcvt.f32.u32	s15, s15
 800330a:	e00f      	b.n	800332c <HAL_RCC_GetSysClockFreq+0xa0>
 800330c:	69d2      	ldr	r2, [r2, #28]
 800330e:	f002 020c 	and.w	r2, r2, #12
 8003312:	2a04      	cmp	r2, #4
 8003314:	d006      	beq.n	8003324 <HAL_RCC_GetSysClockFreq+0x98>
 8003316:	2b08      	cmp	r3, #8
 8003318:	d02a      	beq.n	8003370 <HAL_RCC_GetSysClockFreq+0xe4>
 800331a:	2000      	movs	r0, #0
 800331c:	2b0c      	cmp	r3, #12
 800331e:	d123      	bne.n	8003368 <HAL_RCC_GetSysClockFreq+0xdc>
 8003320:	2000      	movs	r0, #0
 8003322:	e7cf      	b.n	80032c4 <HAL_RCC_GetSysClockFreq+0x38>
 8003324:	4816      	ldr	r0, [pc, #88]	@ (8003380 <HAL_RCC_GetSysClockFreq+0xf4>)
 8003326:	e7f9      	b.n	800331c <HAL_RCC_GetSysClockFreq+0x90>
 8003328:	eddf 7a16 	vldr	s15, [pc, #88]	@ 8003384 <HAL_RCC_GetSysClockFreq+0xf8>
 800332c:	6b53      	ldr	r3, [r2, #52]	@ 0x34
 800332e:	ee87 5aa6 	vdiv.f32	s10, s15, s13
 8003332:	f3c3 0308 	ubfx	r3, r3, #0, #9
 8003336:	ee07 3a90 	vmov	s15, r3
 800333a:	eef8 7ae7 	vcvt.f32.s32	s15, s15
 800333e:	eee7 7a25 	vfma.f32	s15, s14, s11
 8003342:	4b0c      	ldr	r3, [pc, #48]	@ (8003374 <HAL_RCC_GetSysClockFreq+0xe8>)
 8003344:	ee77 7a86 	vadd.f32	s15, s15, s12
 8003348:	6b5b      	ldr	r3, [r3, #52]	@ 0x34
 800334a:	ee67 7a85 	vmul.f32	s15, s15, s10
 800334e:	f3c3 6306 	ubfx	r3, r3, #24, #7
 8003352:	3301      	adds	r3, #1
 8003354:	ee07 3a10 	vmov	s14, r3
 8003358:	eef8 6ac7 	vcvt.f32.s32	s13, s14
 800335c:	ee87 7aa6 	vdiv.f32	s14, s15, s13
 8003360:	eefc 7ac7 	vcvt.u32.f32	s15, s14
 8003364:	ee17 0a90 	vmov	r0, s15
 8003368:	bd10      	pop	{r4, pc}
 800336a:	eddf 7a07 	vldr	s15, [pc, #28]	@ 8003388 <HAL_RCC_GetSysClockFreq+0xfc>
 800336e:	e7dd      	b.n	800332c <HAL_RCC_GetSysClockFreq+0xa0>
 8003370:	4806      	ldr	r0, [pc, #24]	@ (800338c <HAL_RCC_GetSysClockFreq+0x100>)
 8003372:	e7f9      	b.n	8003368 <HAL_RCC_GetSysClockFreq+0xdc>
 8003374:	46020c00 	.word	0x46020c00
 8003378:	0800922c 	.word	0x0800922c
 800337c:	39000000 	.word	0x39000000
 8003380:	00f42400 	.word	0x00f42400
 8003384:	4b742400 	.word	0x4b742400
 8003388:	4c3ebc20 	.word	0x4c3ebc20
 800338c:	02faf080 	.word	0x02faf080

08003390 <HAL_RCC_ClockConfig>:
 8003390:	e92d 41f3 	stmdb	sp!, {r0, r1, r4, r5, r6, r7, r8, lr}
 8003394:	460d      	mov	r5, r1
 8003396:	4604      	mov	r4, r0
 8003398:	b918      	cbnz	r0, 80033a2 <HAL_RCC_ClockConfig+0x12>
 800339a:	2001      	movs	r0, #1
 800339c:	b002      	add	sp, #8
 800339e:	e8bd 81f0 	ldmia.w	sp!, {r4, r5, r6, r7, r8, pc}
 80033a2:	4a9c      	ldr	r2, [pc, #624]	@ (8003614 <HAL_RCC_ClockConfig+0x284>)
 80033a4:	6813      	ldr	r3, [r2, #0]
 80033a6:	f003 030f 	and.w	r3, r3, #15
 80033aa:	428b      	cmp	r3, r1
 80033ac:	d36e      	bcc.n	800348c <HAL_RCC_ClockConfig+0xfc>
 80033ae:	6823      	ldr	r3, [r4, #0]
 80033b0:	06d8      	lsls	r0, r3, #27
 80033b2:	d477      	bmi.n	80034a4 <HAL_RCC_ClockConfig+0x114>
 80033b4:	0719      	lsls	r1, r3, #28
 80033b6:	d50d      	bpl.n	80033d4 <HAL_RCC_ClockConfig+0x44>
 80033b8:	4997      	ldr	r1, [pc, #604]	@ (8003618 <HAL_RCC_ClockConfig+0x288>)
 80033ba:	6920      	ldr	r0, [r4, #16]
 80033bc:	6a0a      	ldr	r2, [r1, #32]
 80033be:	0912      	lsrs	r2, r2, #4
 80033c0:	f002 0270 	and.w	r2, r2, #112	@ 0x70
 80033c4:	4290      	cmp	r0, r2
 80033c6:	bf81      	itttt	hi
 80033c8:	6a0a      	ldrhi	r2, [r1, #32]
 80033ca:	f422 62e0 	bichi.w	r2, r2, #1792	@ 0x700
 80033ce:	ea42 1200 	orrhi.w	r2, r2, r0, lsl #4
 80033d2:	620a      	strhi	r2, [r1, #32]
 80033d4:	075a      	lsls	r2, r3, #29
 80033d6:	d50b      	bpl.n	80033f0 <HAL_RCC_ClockConfig+0x60>
 80033d8:	498f      	ldr	r1, [pc, #572]	@ (8003618 <HAL_RCC_ClockConfig+0x288>)
 80033da:	68e0      	ldr	r0, [r4, #12]
 80033dc:	6a0a      	ldr	r2, [r1, #32]
 80033de:	f002 0270 	and.w	r2, r2, #112	@ 0x70
 80033e2:	4290      	cmp	r0, r2
 80033e4:	bf81      	itttt	hi
 80033e6:	6a0a      	ldrhi	r2, [r1, #32]
 80033e8:	f022 0270 	bichi.w	r2, r2, #112	@ 0x70
 80033ec:	4302      	orrhi	r2, r0
 80033ee:	620a      	strhi	r2, [r1, #32]
 80033f0:	079f      	lsls	r7, r3, #30
 80033f2:	d50b      	bpl.n	800340c <HAL_RCC_ClockConfig+0x7c>
 80033f4:	4988      	ldr	r1, [pc, #544]	@ (8003618 <HAL_RCC_ClockConfig+0x288>)
 80033f6:	68a0      	ldr	r0, [r4, #8]
 80033f8:	6a0a      	ldr	r2, [r1, #32]
 80033fa:	f002 020f 	and.w	r2, r2, #15
 80033fe:	4290      	cmp	r0, r2
 8003400:	bf81      	itttt	hi
 8003402:	6a0a      	ldrhi	r2, [r1, #32]
 8003404:	f022 020f 	bichi.w	r2, r2, #15
 8003408:	4302      	orrhi	r2, r0
 800340a:	620a      	strhi	r2, [r1, #32]
 800340c:	07de      	lsls	r6, r3, #31
 800340e:	d456      	bmi.n	80034be <HAL_RCC_ClockConfig+0x12e>
 8003410:	6822      	ldr	r2, [r4, #0]
 8003412:	0790      	lsls	r0, r2, #30
 8003414:	f100 80d8 	bmi.w	80035c8 <HAL_RCC_ClockConfig+0x238>
 8003418:	497e      	ldr	r1, [pc, #504]	@ (8003614 <HAL_RCC_ClockConfig+0x284>)
 800341a:	680b      	ldr	r3, [r1, #0]
 800341c:	f003 030f 	and.w	r3, r3, #15
 8003420:	42ab      	cmp	r3, r5
 8003422:	f200 80de 	bhi.w	80035e2 <HAL_RCC_ClockConfig+0x252>
 8003426:	0750      	lsls	r0, r2, #29
 8003428:	f100 80e7 	bmi.w	80035fa <HAL_RCC_ClockConfig+0x26a>
 800342c:	0711      	lsls	r1, r2, #28
 800342e:	d50d      	bpl.n	800344c <HAL_RCC_ClockConfig+0xbc>
 8003430:	4979      	ldr	r1, [pc, #484]	@ (8003618 <HAL_RCC_ClockConfig+0x288>)
 8003432:	6920      	ldr	r0, [r4, #16]
 8003434:	6a0b      	ldr	r3, [r1, #32]
 8003436:	091b      	lsrs	r3, r3, #4
 8003438:	f003 0370 	and.w	r3, r3, #112	@ 0x70
 800343c:	4298      	cmp	r0, r3
 800343e:	bf3f      	itttt	cc
 8003440:	6a0b      	ldrcc	r3, [r1, #32]
 8003442:	f423 63e0 	biccc.w	r3, r3, #1792	@ 0x700
 8003446:	ea43 1300 	orrcc.w	r3, r3, r0, lsl #4
 800344a:	620b      	strcc	r3, [r1, #32]
 800344c:	06d3      	lsls	r3, r2, #27
 800344e:	d50b      	bpl.n	8003468 <HAL_RCC_ClockConfig+0xd8>
 8003450:	4a71      	ldr	r2, [pc, #452]	@ (8003618 <HAL_RCC_ClockConfig+0x288>)
 8003452:	6961      	ldr	r1, [r4, #20]
 8003454:	6a53      	ldr	r3, [r2, #36]	@ 0x24
 8003456:	f003 0370 	and.w	r3, r3, #112	@ 0x70
 800345a:	4299      	cmp	r1, r3
 800345c:	bf3f      	itttt	cc
 800345e:	6a53      	ldrcc	r3, [r2, #36]	@ 0x24
 8003460:	f023 0370 	biccc.w	r3, r3, #112	@ 0x70
 8003464:	430b      	orrcc	r3, r1
 8003466:	6253      	strcc	r3, [r2, #36]	@ 0x24
 8003468:	f7ff ff10 	bl	800328c <HAL_RCC_GetSysClockFreq>
 800346c:	4b6a      	ldr	r3, [pc, #424]	@ (8003618 <HAL_RCC_ClockConfig+0x288>)
 800346e:	4a6b      	ldr	r2, [pc, #428]	@ (800361c <HAL_RCC_ClockConfig+0x28c>)
 8003470:	6a1b      	ldr	r3, [r3, #32]
 8003472:	f003 030f 	and.w	r3, r3, #15
 8003476:	5cd3      	ldrb	r3, [r2, r3]
 8003478:	40d8      	lsrs	r0, r3
 800347a:	4b69      	ldr	r3, [pc, #420]	@ (8003620 <HAL_RCC_ClockConfig+0x290>)
 800347c:	6018      	str	r0, [r3, #0]
 800347e:	4b69      	ldr	r3, [pc, #420]	@ (8003624 <HAL_RCC_ClockConfig+0x294>)
 8003480:	6818      	ldr	r0, [r3, #0]
 8003482:	b002      	add	sp, #8
 8003484:	e8bd 41f0 	ldmia.w	sp!, {r4, r5, r6, r7, r8, lr}
 8003488:	f7fd bd66 	b.w	8000f58 <HAL_InitTick>
 800348c:	6813      	ldr	r3, [r2, #0]
 800348e:	f023 030f 	bic.w	r3, r3, #15
 8003492:	430b      	orrs	r3, r1
 8003494:	6013      	str	r3, [r2, #0]
 8003496:	6813      	ldr	r3, [r2, #0]
 8003498:	f003 030f 	and.w	r3, r3, #15
 800349c:	428b      	cmp	r3, r1
 800349e:	f47f af7c 	bne.w	800339a <HAL_RCC_ClockConfig+0xa>
 80034a2:	e784      	b.n	80033ae <HAL_RCC_ClockConfig+0x1e>
 80034a4:	495c      	ldr	r1, [pc, #368]	@ (8003618 <HAL_RCC_ClockConfig+0x288>)
 80034a6:	6960      	ldr	r0, [r4, #20]
 80034a8:	6a4a      	ldr	r2, [r1, #36]	@ 0x24
 80034aa:	f002 0270 	and.w	r2, r2, #112	@ 0x70
 80034ae:	4290      	cmp	r0, r2
 80034b0:	bf81      	itttt	hi
 80034b2:	6a4a      	ldrhi	r2, [r1, #36]	@ 0x24
 80034b4:	f022 0270 	bichi.w	r2, r2, #112	@ 0x70
 80034b8:	4302      	orrhi	r2, r0
 80034ba:	624a      	strhi	r2, [r1, #36]	@ 0x24
 80034bc:	e77a      	b.n	80033b4 <HAL_RCC_ClockConfig+0x24>
 80034be:	6862      	ldr	r2, [r4, #4]
 80034c0:	4b55      	ldr	r3, [pc, #340]	@ (8003618 <HAL_RCC_ClockConfig+0x288>)
 80034c2:	2a03      	cmp	r2, #3
 80034c4:	d14e      	bne.n	8003564 <HAL_RCC_ClockConfig+0x1d4>
 80034c6:	f8d3 2094 	ldr.w	r2, [r3, #148]	@ 0x94
 80034ca:	0751      	lsls	r1, r2, #29
 80034cc:	d43d      	bmi.n	800354a <HAL_RCC_ClockConfig+0x1ba>
 80034ce:	2701      	movs	r7, #1
 80034d0:	f8d3 2094 	ldr.w	r2, [r3, #148]	@ 0x94
 80034d4:	f042 0204 	orr.w	r2, r2, #4
 80034d8:	f8c3 2094 	str.w	r2, [r3, #148]	@ 0x94
 80034dc:	f8d3 3094 	ldr.w	r3, [r3, #148]	@ 0x94
 80034e0:	f003 0304 	and.w	r3, r3, #4
 80034e4:	9301      	str	r3, [sp, #4]
 80034e6:	9b01      	ldr	r3, [sp, #4]
 80034e8:	f7fd fea2 	bl	8001230 <HAL_GetTick>
 80034ec:	f8df 8138 	ldr.w	r8, [pc, #312]	@ 8003628 <HAL_RCC_ClockConfig+0x298>
 80034f0:	4606      	mov	r6, r0
 80034f2:	f8d8 300c 	ldr.w	r3, [r8, #12]
 80034f6:	035a      	lsls	r2, r3, #13
 80034f8:	d429      	bmi.n	800354e <HAL_RCC_ClockConfig+0x1be>
 80034fa:	4b47      	ldr	r3, [pc, #284]	@ (8003618 <HAL_RCC_ClockConfig+0x288>)
 80034fc:	b12f      	cbz	r7, 800350a <HAL_RCC_ClockConfig+0x17a>
 80034fe:	f8d3 2094 	ldr.w	r2, [r3, #148]	@ 0x94
 8003502:	f022 0204 	bic.w	r2, r2, #4
 8003506:	f8c3 2094 	str.w	r2, [r3, #148]	@ 0x94
 800350a:	681b      	ldr	r3, [r3, #0]
 800350c:	f013 7f00 	tst.w	r3, #33554432	@ 0x2000000
 8003510:	f43f af43 	beq.w	800339a <HAL_RCC_ClockConfig+0xa>
 8003514:	4e40      	ldr	r6, [pc, #256]	@ (8003618 <HAL_RCC_ClockConfig+0x288>)
 8003516:	6862      	ldr	r2, [r4, #4]
 8003518:	69f3      	ldr	r3, [r6, #28]
 800351a:	f241 3888 	movw	r8, #5000	@ 0x1388
 800351e:	f023 0303 	bic.w	r3, r3, #3
 8003522:	4313      	orrs	r3, r2
 8003524:	61f3      	str	r3, [r6, #28]
 8003526:	f7fd fe83 	bl	8001230 <HAL_GetTick>
 800352a:	6863      	ldr	r3, [r4, #4]
 800352c:	4607      	mov	r7, r0
 800352e:	2b03      	cmp	r3, #3
 8003530:	d125      	bne.n	800357e <HAL_RCC_ClockConfig+0x1ee>
 8003532:	69f3      	ldr	r3, [r6, #28]
 8003534:	f003 030c 	and.w	r3, r3, #12
 8003538:	2b0c      	cmp	r3, #12
 800353a:	f43f af69 	beq.w	8003410 <HAL_RCC_ClockConfig+0x80>
 800353e:	f7fd fe77 	bl	8001230 <HAL_GetTick>
 8003542:	1bc0      	subs	r0, r0, r7
 8003544:	4540      	cmp	r0, r8
 8003546:	d9f4      	bls.n	8003532 <HAL_RCC_ClockConfig+0x1a2>
 8003548:	e00a      	b.n	8003560 <HAL_RCC_ClockConfig+0x1d0>
 800354a:	2700      	movs	r7, #0
 800354c:	e7cc      	b.n	80034e8 <HAL_RCC_ClockConfig+0x158>
 800354e:	f8d8 300c 	ldr.w	r3, [r8, #12]
 8003552:	045b      	lsls	r3, r3, #17
 8003554:	d4d1      	bmi.n	80034fa <HAL_RCC_ClockConfig+0x16a>
 8003556:	f7fd fe6b 	bl	8001230 <HAL_GetTick>
 800355a:	1b80      	subs	r0, r0, r6
 800355c:	2802      	cmp	r0, #2
 800355e:	d9f6      	bls.n	800354e <HAL_RCC_ClockConfig+0x1be>
 8003560:	2003      	movs	r0, #3
 8003562:	e71b      	b.n	800339c <HAL_RCC_ClockConfig+0xc>
 8003564:	2a02      	cmp	r2, #2
 8003566:	681b      	ldr	r3, [r3, #0]
 8003568:	d102      	bne.n	8003570 <HAL_RCC_ClockConfig+0x1e0>
 800356a:	f413 3f00 	tst.w	r3, #131072	@ 0x20000
 800356e:	e7cf      	b.n	8003510 <HAL_RCC_ClockConfig+0x180>
 8003570:	b912      	cbnz	r2, 8003578 <HAL_RCC_ClockConfig+0x1e8>
 8003572:	f013 0f04 	tst.w	r3, #4
 8003576:	e7cb      	b.n	8003510 <HAL_RCC_ClockConfig+0x180>
 8003578:	f413 6f80 	tst.w	r3, #1024	@ 0x400
 800357c:	e7c8      	b.n	8003510 <HAL_RCC_ClockConfig+0x180>
 800357e:	2b02      	cmp	r3, #2
 8003580:	d10b      	bne.n	800359a <HAL_RCC_ClockConfig+0x20a>
 8003582:	69f3      	ldr	r3, [r6, #28]
 8003584:	f003 030c 	and.w	r3, r3, #12
 8003588:	2b08      	cmp	r3, #8
 800358a:	f43f af41 	beq.w	8003410 <HAL_RCC_ClockConfig+0x80>
 800358e:	f7fd fe4f 	bl	8001230 <HAL_GetTick>
 8003592:	1bc0      	subs	r0, r0, r7
 8003594:	4540      	cmp	r0, r8
 8003596:	d9f4      	bls.n	8003582 <HAL_RCC_ClockConfig+0x1f2>
 8003598:	e7e2      	b.n	8003560 <HAL_RCC_ClockConfig+0x1d0>
 800359a:	b97b      	cbnz	r3, 80035bc <HAL_RCC_ClockConfig+0x22c>
 800359c:	69f3      	ldr	r3, [r6, #28]
 800359e:	f013 0f0c 	tst.w	r3, #12
 80035a2:	f43f af35 	beq.w	8003410 <HAL_RCC_ClockConfig+0x80>
 80035a6:	f7fd fe43 	bl	8001230 <HAL_GetTick>
 80035aa:	1bc0      	subs	r0, r0, r7
 80035ac:	4540      	cmp	r0, r8
 80035ae:	d9f5      	bls.n	800359c <HAL_RCC_ClockConfig+0x20c>
 80035b0:	e7d6      	b.n	8003560 <HAL_RCC_ClockConfig+0x1d0>
 80035b2:	f7fd fe3d 	bl	8001230 <HAL_GetTick>
 80035b6:	1bc0      	subs	r0, r0, r7
 80035b8:	4540      	cmp	r0, r8
 80035ba:	d8d1      	bhi.n	8003560 <HAL_RCC_ClockConfig+0x1d0>
 80035bc:	69f3      	ldr	r3, [r6, #28]
 80035be:	f003 030c 	and.w	r3, r3, #12
 80035c2:	2b04      	cmp	r3, #4
 80035c4:	d1f5      	bne.n	80035b2 <HAL_RCC_ClockConfig+0x222>
 80035c6:	e723      	b.n	8003410 <HAL_RCC_ClockConfig+0x80>
 80035c8:	4913      	ldr	r1, [pc, #76]	@ (8003618 <HAL_RCC_ClockConfig+0x288>)
 80035ca:	68a0      	ldr	r0, [r4, #8]
 80035cc:	6a0b      	ldr	r3, [r1, #32]
 80035ce:	f003 030f 	and.w	r3, r3, #15
 80035d2:	4298      	cmp	r0, r3
 80035d4:	bf3f      	itttt	cc
 80035d6:	6a0b      	ldrcc	r3, [r1, #32]
 80035d8:	f023 030f 	biccc.w	r3, r3, #15
 80035dc:	4303      	orrcc	r3, r0
 80035de:	620b      	strcc	r3, [r1, #32]
 80035e0:	e71a      	b.n	8003418 <HAL_RCC_ClockConfig+0x88>
 80035e2:	680b      	ldr	r3, [r1, #0]
 80035e4:	f023 030f 	bic.w	r3, r3, #15
 80035e8:	432b      	orrs	r3, r5
 80035ea:	600b      	str	r3, [r1, #0]
 80035ec:	680b      	ldr	r3, [r1, #0]
 80035ee:	f003 030f 	and.w	r3, r3, #15
 80035f2:	42ab      	cmp	r3, r5
 80035f4:	f47f aed1 	bne.w	800339a <HAL_RCC_ClockConfig+0xa>
 80035f8:	e715      	b.n	8003426 <HAL_RCC_ClockConfig+0x96>
 80035fa:	4907      	ldr	r1, [pc, #28]	@ (8003618 <HAL_RCC_ClockConfig+0x288>)
 80035fc:	68e0      	ldr	r0, [r4, #12]
 80035fe:	6a0b      	ldr	r3, [r1, #32]
 8003600:	f003 0370 	and.w	r3, r3, #112	@ 0x70
 8003604:	4298      	cmp	r0, r3
 8003606:	bf3f      	itttt	cc
 8003608:	6a0b      	ldrcc	r3, [r1, #32]
 800360a:	f023 0370 	biccc.w	r3, r3, #112	@ 0x70
 800360e:	4303      	orrcc	r3, r0
 8003610:	620b      	strcc	r3, [r1, #32]
 8003612:	e70b      	b.n	800342c <HAL_RCC_ClockConfig+0x9c>
 8003614:	40022000 	.word	0x40022000
 8003618:	46020c00 	.word	0x46020c00
 800361c:	08009274 	.word	0x08009274
 8003620:	20000000 	.word	0x20000000
 8003624:	20000008 	.word	0x20000008
 8003628:	46020800 	.word	0x46020800

0800362c <HAL_RCC_GetHCLKFreq>:
 800362c:	b508      	push	{r3, lr}
 800362e:	f7ff fe2d 	bl	800328c <HAL_RCC_GetSysClockFreq>
 8003632:	4b05      	ldr	r3, [pc, #20]	@ (8003648 <HAL_RCC_GetHCLKFreq+0x1c>)
 8003634:	4a05      	ldr	r2, [pc, #20]	@ (800364c <HAL_RCC_GetHCLKFreq+0x20>)
 8003636:	6a1b      	ldr	r3, [r3, #32]
 8003638:	f003 030f 	and.w	r3, r3, #15
 800363c:	5cd3      	ldrb	r3, [r2, r3]
 800363e:	40d8      	lsrs	r0, r3
 8003640:	4b03      	ldr	r3, [pc, #12]	@ (8003650 <HAL_RCC_GetHCLKFreq+0x24>)
 8003642:	6018      	str	r0, [r3, #0]
 8003644:	bd08      	pop	{r3, pc}
 8003646:	bf00      	nop
 8003648:	46020c00 	.word	0x46020c00
 800364c:	08009274 	.word	0x08009274
 8003650:	20000000 	.word	0x20000000

08003654 <HAL_RCC_OscConfig>:
 8003654:	e92d 41ff 	stmdb	sp!, {r0, r1, r2, r3, r4, r5, r6, r7, r8, lr}
 8003658:	4604      	mov	r4, r0
 800365a:	2800      	cmp	r0, #0
 800365c:	d039      	beq.n	80036d2 <HAL_RCC_OscConfig+0x7e>
 800365e:	4ba3      	ldr	r3, [pc, #652]	@ (80038ec <HAL_RCC_OscConfig+0x298>)
 8003660:	69de      	ldr	r6, [r3, #28]
 8003662:	6a9f      	ldr	r7, [r3, #40]	@ 0x28
 8003664:	6803      	ldr	r3, [r0, #0]
 8003666:	f006 060c 	and.w	r6, r6, #12
 800366a:	06d8      	lsls	r0, r3, #27
 800366c:	f007 0703 	and.w	r7, r7, #3
 8003670:	f140 809a 	bpl.w	80037a8 <HAL_RCC_OscConfig+0x154>
 8003674:	69e3      	ldr	r3, [r4, #28]
 8003676:	b11e      	cbz	r6, 8003680 <HAL_RCC_OscConfig+0x2c>
 8003678:	2e0c      	cmp	r6, #12
 800367a:	d175      	bne.n	8003768 <HAL_RCC_OscConfig+0x114>
 800367c:	2f01      	cmp	r7, #1
 800367e:	d173      	bne.n	8003768 <HAL_RCC_OscConfig+0x114>
 8003680:	b33b      	cbz	r3, 80036d2 <HAL_RCC_OscConfig+0x7e>
 8003682:	4d9a      	ldr	r5, [pc, #616]	@ (80038ec <HAL_RCC_OscConfig+0x298>)
 8003684:	6a60      	ldr	r0, [r4, #36]	@ 0x24
 8003686:	68ab      	ldr	r3, [r5, #8]
 8003688:	0219      	lsls	r1, r3, #8
 800368a:	bf56      	itet	pl
 800368c:	f8d5 30f4 	ldrpl.w	r3, [r5, #244]	@ 0xf4
 8003690:	68ab      	ldrmi	r3, [r5, #8]
 8003692:	041b      	lslpl	r3, r3, #16
 8003694:	f003 4370 	and.w	r3, r3, #4026531840	@ 0xf0000000
 8003698:	4298      	cmp	r0, r3
 800369a:	d938      	bls.n	800370e <HAL_RCC_OscConfig+0xba>
 800369c:	b1ae      	cbz	r6, 80036ca <HAL_RCC_OscConfig+0x76>
 800369e:	68ab      	ldr	r3, [r5, #8]
 80036a0:	f443 0300 	orr.w	r3, r3, #8388608	@ 0x800000
 80036a4:	60ab      	str	r3, [r5, #8]
 80036a6:	68ab      	ldr	r3, [r5, #8]
 80036a8:	6a61      	ldr	r1, [r4, #36]	@ 0x24
 80036aa:	f023 4370 	bic.w	r3, r3, #4026531840	@ 0xf0000000
 80036ae:	430b      	orrs	r3, r1
 80036b0:	60ab      	str	r3, [r5, #8]
 80036b2:	f1b1 4f40 	cmp.w	r1, #3221225472	@ 0xc0000000
 80036b6:	6a22      	ldr	r2, [r4, #32]
 80036b8:	d20d      	bcs.n	80036d6 <HAL_RCC_OscConfig+0x82>
 80036ba:	2900      	cmp	r1, #0
 80036bc:	68eb      	ldr	r3, [r5, #12]
 80036be:	da1a      	bge.n	80036f6 <HAL_RCC_OscConfig+0xa2>
 80036c0:	f423 7378 	bic.w	r3, r3, #992	@ 0x3e0
 80036c4:	ea43 1342 	orr.w	r3, r3, r2, lsl #5
 80036c8:	e009      	b.n	80036de <HAL_RCC_OscConfig+0x8a>
 80036ca:	f7ff fd83 	bl	80031d4 <RCC_SetFlashLatencyFromMSIRange>
 80036ce:	2800      	cmp	r0, #0
 80036d0:	d0e5      	beq.n	800369e <HAL_RCC_OscConfig+0x4a>
 80036d2:	2001      	movs	r0, #1
 80036d4:	e00c      	b.n	80036f0 <HAL_RCC_OscConfig+0x9c>
 80036d6:	68eb      	ldr	r3, [r5, #12]
 80036d8:	f023 031f 	bic.w	r3, r3, #31
 80036dc:	4313      	orrs	r3, r2
 80036de:	60eb      	str	r3, [r5, #12]
 80036e0:	f7ff ffa4 	bl	800362c <HAL_RCC_GetHCLKFreq>
 80036e4:	4b82      	ldr	r3, [pc, #520]	@ (80038f0 <HAL_RCC_OscConfig+0x29c>)
 80036e6:	6818      	ldr	r0, [r3, #0]
 80036e8:	f7fd fc36 	bl	8000f58 <HAL_InitTick>
 80036ec:	2800      	cmp	r0, #0
 80036ee:	d05b      	beq.n	80037a8 <HAL_RCC_OscConfig+0x154>
 80036f0:	b004      	add	sp, #16
 80036f2:	e8bd 81f0 	ldmia.w	sp!, {r4, r5, r6, r7, r8, pc}
 80036f6:	f1b1 4f80 	cmp.w	r1, #1073741824	@ 0x40000000
 80036fa:	bf2b      	itete	cs
 80036fc:	f423 43f8 	biccs.w	r3, r3, #31744	@ 0x7c00
 8003700:	f423 2378 	biccc.w	r3, r3, #1015808	@ 0xf8000
 8003704:	ea43 2382 	orrcs.w	r3, r3, r2, lsl #10
 8003708:	ea43 33c2 	orrcc.w	r3, r3, r2, lsl #15
 800370c:	e7e7      	b.n	80036de <HAL_RCC_OscConfig+0x8a>
 800370e:	68ab      	ldr	r3, [r5, #8]
 8003710:	f1b0 4f40 	cmp.w	r0, #3221225472	@ 0xc0000000
 8003714:	f443 0300 	orr.w	r3, r3, #8388608	@ 0x800000
 8003718:	60ab      	str	r3, [r5, #8]
 800371a:	68ab      	ldr	r3, [r5, #8]
 800371c:	f023 4370 	bic.w	r3, r3, #4026531840	@ 0xf0000000
 8003720:	ea43 0300 	orr.w	r3, r3, r0
 8003724:	60ab      	str	r3, [r5, #8]
 8003726:	6a22      	ldr	r2, [r4, #32]
 8003728:	68eb      	ldr	r3, [r5, #12]
 800372a:	d30a      	bcc.n	8003742 <HAL_RCC_OscConfig+0xee>
 800372c:	f023 031f 	bic.w	r3, r3, #31
 8003730:	4313      	orrs	r3, r2
 8003732:	60eb      	str	r3, [r5, #12]
 8003734:	2e00      	cmp	r6, #0
 8003736:	d1d3      	bne.n	80036e0 <HAL_RCC_OscConfig+0x8c>
 8003738:	f7ff fd4c 	bl	80031d4 <RCC_SetFlashLatencyFromMSIRange>
 800373c:	2800      	cmp	r0, #0
 800373e:	d0cf      	beq.n	80036e0 <HAL_RCC_OscConfig+0x8c>
 8003740:	e7c7      	b.n	80036d2 <HAL_RCC_OscConfig+0x7e>
 8003742:	2800      	cmp	r0, #0
 8003744:	da04      	bge.n	8003750 <HAL_RCC_OscConfig+0xfc>
 8003746:	f423 7378 	bic.w	r3, r3, #992	@ 0x3e0
 800374a:	ea43 1342 	orr.w	r3, r3, r2, lsl #5
 800374e:	e7f0      	b.n	8003732 <HAL_RCC_OscConfig+0xde>
 8003750:	f1b0 4f80 	cmp.w	r0, #1073741824	@ 0x40000000
 8003754:	bf2b      	itete	cs
 8003756:	f423 43f8 	biccs.w	r3, r3, #31744	@ 0x7c00
 800375a:	f423 2378 	biccc.w	r3, r3, #1015808	@ 0xf8000
 800375e:	ea43 2382 	orrcs.w	r3, r3, r2, lsl #10
 8003762:	ea43 33c2 	orrcc.w	r3, r3, r2, lsl #15
 8003766:	e7e4      	b.n	8003732 <HAL_RCC_OscConfig+0xde>
 8003768:	4d60      	ldr	r5, [pc, #384]	@ (80038ec <HAL_RCC_OscConfig+0x298>)
 800376a:	2b00      	cmp	r3, #0
 800376c:	d074      	beq.n	8003858 <HAL_RCC_OscConfig+0x204>
 800376e:	682b      	ldr	r3, [r5, #0]
 8003770:	f043 0301 	orr.w	r3, r3, #1
 8003774:	602b      	str	r3, [r5, #0]
 8003776:	f7fd fd5b 	bl	8001230 <HAL_GetTick>
 800377a:	4680      	mov	r8, r0
 800377c:	682b      	ldr	r3, [r5, #0]
 800377e:	075a      	lsls	r2, r3, #29
 8003780:	d54e      	bpl.n	8003820 <HAL_RCC_OscConfig+0x1cc>
 8003782:	68ab      	ldr	r3, [r5, #8]
 8003784:	f443 0300 	orr.w	r3, r3, #8388608	@ 0x800000
 8003788:	60ab      	str	r3, [r5, #8]
 800378a:	68ab      	ldr	r3, [r5, #8]
 800378c:	6a61      	ldr	r1, [r4, #36]	@ 0x24
 800378e:	f023 4370 	bic.w	r3, r3, #4026531840	@ 0xf0000000
 8003792:	430b      	orrs	r3, r1
 8003794:	60ab      	str	r3, [r5, #8]
 8003796:	f1b1 4f40 	cmp.w	r1, #3221225472	@ 0xc0000000
 800379a:	6a22      	ldr	r2, [r4, #32]
 800379c:	68eb      	ldr	r3, [r5, #12]
 800379e:	d347      	bcc.n	8003830 <HAL_RCC_OscConfig+0x1dc>
 80037a0:	f023 031f 	bic.w	r3, r3, #31
 80037a4:	4313      	orrs	r3, r2
 80037a6:	60eb      	str	r3, [r5, #12]
 80037a8:	6823      	ldr	r3, [r4, #0]
 80037aa:	07dd      	lsls	r5, r3, #31
 80037ac:	d465      	bmi.n	800387a <HAL_RCC_OscConfig+0x226>
 80037ae:	6823      	ldr	r3, [r4, #0]
 80037b0:	0798      	lsls	r0, r3, #30
 80037b2:	f100 80bd 	bmi.w	8003930 <HAL_RCC_OscConfig+0x2dc>
 80037b6:	6823      	ldr	r3, [r4, #0]
 80037b8:	0718      	lsls	r0, r3, #28
 80037ba:	f140 8138 	bpl.w	8003a2e <HAL_RCC_OscConfig+0x3da>
 80037be:	4b4b      	ldr	r3, [pc, #300]	@ (80038ec <HAL_RCC_OscConfig+0x298>)
 80037c0:	f8d3 2094 	ldr.w	r2, [r3, #148]	@ 0x94
 80037c4:	0751      	lsls	r1, r2, #29
 80037c6:	f100 80f1 	bmi.w	80039ac <HAL_RCC_OscConfig+0x358>
 80037ca:	2701      	movs	r7, #1
 80037cc:	f8d3 2094 	ldr.w	r2, [r3, #148]	@ 0x94
 80037d0:	f042 0204 	orr.w	r2, r2, #4
 80037d4:	f8c3 2094 	str.w	r2, [r3, #148]	@ 0x94
 80037d8:	f8d3 3094 	ldr.w	r3, [r3, #148]	@ 0x94
 80037dc:	f003 0304 	and.w	r3, r3, #4
 80037e0:	9301      	str	r3, [sp, #4]
 80037e2:	9b01      	ldr	r3, [sp, #4]
 80037e4:	4d43      	ldr	r5, [pc, #268]	@ (80038f4 <HAL_RCC_OscConfig+0x2a0>)
 80037e6:	6aab      	ldr	r3, [r5, #40]	@ 0x28
 80037e8:	07da      	lsls	r2, r3, #31
 80037ea:	f140 80e1 	bpl.w	80039b0 <HAL_RCC_OscConfig+0x35c>
 80037ee:	6963      	ldr	r3, [r4, #20]
 80037f0:	4d3e      	ldr	r5, [pc, #248]	@ (80038ec <HAL_RCC_OscConfig+0x298>)
 80037f2:	2b00      	cmp	r3, #0
 80037f4:	f040 80ed 	bne.w	80039d2 <HAL_RCC_OscConfig+0x37e>
 80037f8:	f8d5 30f0 	ldr.w	r3, [r5, #240]	@ 0xf0
 80037fc:	f023 53a0 	bic.w	r3, r3, #335544320	@ 0x14000000
 8003800:	f8c5 30f0 	str.w	r3, [r5, #240]	@ 0xf0
 8003804:	f7fd fd14 	bl	8001230 <HAL_GetTick>
 8003808:	4606      	mov	r6, r0
 800380a:	f8d5 30f0 	ldr.w	r3, [r5, #240]	@ 0xf0
 800380e:	011b      	lsls	r3, r3, #4
 8003810:	f140 8105 	bpl.w	8003a1e <HAL_RCC_OscConfig+0x3ca>
 8003814:	f7fd fd0c 	bl	8001230 <HAL_GetTick>
 8003818:	1b80      	subs	r0, r0, r6
 800381a:	2805      	cmp	r0, #5
 800381c:	d9f5      	bls.n	800380a <HAL_RCC_OscConfig+0x1b6>
 800381e:	e005      	b.n	800382c <HAL_RCC_OscConfig+0x1d8>
 8003820:	f7fd fd06 	bl	8001230 <HAL_GetTick>
 8003824:	eba0 0008 	sub.w	r0, r0, r8
 8003828:	2802      	cmp	r0, #2
 800382a:	d9a7      	bls.n	800377c <HAL_RCC_OscConfig+0x128>
 800382c:	2003      	movs	r0, #3
 800382e:	e75f      	b.n	80036f0 <HAL_RCC_OscConfig+0x9c>
 8003830:	2900      	cmp	r1, #0
 8003832:	da04      	bge.n	800383e <HAL_RCC_OscConfig+0x1ea>
 8003834:	f423 7378 	bic.w	r3, r3, #992	@ 0x3e0
 8003838:	ea43 1342 	orr.w	r3, r3, r2, lsl #5
 800383c:	e7b3      	b.n	80037a6 <HAL_RCC_OscConfig+0x152>
 800383e:	f1b1 4f80 	cmp.w	r1, #1073741824	@ 0x40000000
 8003842:	d304      	bcc.n	800384e <HAL_RCC_OscConfig+0x1fa>
 8003844:	f423 43f8 	bic.w	r3, r3, #31744	@ 0x7c00
 8003848:	ea43 2382 	orr.w	r3, r3, r2, lsl #10
 800384c:	e7ab      	b.n	80037a6 <HAL_RCC_OscConfig+0x152>
 800384e:	f423 2378 	bic.w	r3, r3, #1015808	@ 0xf8000
 8003852:	ea43 33c2 	orr.w	r3, r3, r2, lsl #15
 8003856:	e7a6      	b.n	80037a6 <HAL_RCC_OscConfig+0x152>
 8003858:	682b      	ldr	r3, [r5, #0]
 800385a:	f023 0301 	bic.w	r3, r3, #1
 800385e:	602b      	str	r3, [r5, #0]
 8003860:	f7fd fce6 	bl	8001230 <HAL_GetTick>
 8003864:	4680      	mov	r8, r0
 8003866:	682b      	ldr	r3, [r5, #0]
 8003868:	075b      	lsls	r3, r3, #29
 800386a:	d59d      	bpl.n	80037a8 <HAL_RCC_OscConfig+0x154>
 800386c:	f7fd fce0 	bl	8001230 <HAL_GetTick>
 8003870:	eba0 0008 	sub.w	r0, r0, r8
 8003874:	2802      	cmp	r0, #2
 8003876:	d9f6      	bls.n	8003866 <HAL_RCC_OscConfig+0x212>
 8003878:	e7d8      	b.n	800382c <HAL_RCC_OscConfig+0x1d8>
 800387a:	2e08      	cmp	r6, #8
 800387c:	6863      	ldr	r3, [r4, #4]
 800387e:	d003      	beq.n	8003888 <HAL_RCC_OscConfig+0x234>
 8003880:	2e0c      	cmp	r6, #12
 8003882:	d104      	bne.n	800388e <HAL_RCC_OscConfig+0x23a>
 8003884:	2f03      	cmp	r7, #3
 8003886:	d102      	bne.n	800388e <HAL_RCC_OscConfig+0x23a>
 8003888:	2b00      	cmp	r3, #0
 800388a:	d190      	bne.n	80037ae <HAL_RCC_OscConfig+0x15a>
 800388c:	e721      	b.n	80036d2 <HAL_RCC_OscConfig+0x7e>
 800388e:	f5b3 3f80 	cmp.w	r3, #65536	@ 0x10000
 8003892:	4d16      	ldr	r5, [pc, #88]	@ (80038ec <HAL_RCC_OscConfig+0x298>)
 8003894:	d113      	bne.n	80038be <HAL_RCC_OscConfig+0x26a>
 8003896:	682b      	ldr	r3, [r5, #0]
 8003898:	f443 3380 	orr.w	r3, r3, #65536	@ 0x10000
 800389c:	602b      	str	r3, [r5, #0]
 800389e:	f7fd fcc7 	bl	8001230 <HAL_GetTick>
 80038a2:	4605      	mov	r5, r0
 80038a4:	f8df 8044 	ldr.w	r8, [pc, #68]	@ 80038ec <HAL_RCC_OscConfig+0x298>
 80038a8:	f8d8 3000 	ldr.w	r3, [r8]
 80038ac:	0399      	lsls	r1, r3, #14
 80038ae:	f53f af7e 	bmi.w	80037ae <HAL_RCC_OscConfig+0x15a>
 80038b2:	f7fd fcbd 	bl	8001230 <HAL_GetTick>
 80038b6:	1b40      	subs	r0, r0, r5
 80038b8:	2864      	cmp	r0, #100	@ 0x64
 80038ba:	d9f5      	bls.n	80038a8 <HAL_RCC_OscConfig+0x254>
 80038bc:	e7b6      	b.n	800382c <HAL_RCC_OscConfig+0x1d8>
 80038be:	f5b3 2fa0 	cmp.w	r3, #327680	@ 0x50000
 80038c2:	d108      	bne.n	80038d6 <HAL_RCC_OscConfig+0x282>
 80038c4:	682b      	ldr	r3, [r5, #0]
 80038c6:	f443 2380 	orr.w	r3, r3, #262144	@ 0x40000
 80038ca:	602b      	str	r3, [r5, #0]
 80038cc:	682b      	ldr	r3, [r5, #0]
 80038ce:	f423 1380 	bic.w	r3, r3, #1048576	@ 0x100000
 80038d2:	602b      	str	r3, [r5, #0]
 80038d4:	e7df      	b.n	8003896 <HAL_RCC_OscConfig+0x242>
 80038d6:	f5b3 1fa8 	cmp.w	r3, #1376256	@ 0x150000
 80038da:	d10d      	bne.n	80038f8 <HAL_RCC_OscConfig+0x2a4>
 80038dc:	682b      	ldr	r3, [r5, #0]
 80038de:	f443 2380 	orr.w	r3, r3, #262144	@ 0x40000
 80038e2:	602b      	str	r3, [r5, #0]
 80038e4:	682b      	ldr	r3, [r5, #0]
 80038e6:	f443 1380 	orr.w	r3, r3, #1048576	@ 0x100000
 80038ea:	e7f2      	b.n	80038d2 <HAL_RCC_OscConfig+0x27e>
 80038ec:	46020c00 	.word	0x46020c00
 80038f0:	20000008 	.word	0x20000008
 80038f4:	46020800 	.word	0x46020800
 80038f8:	682a      	ldr	r2, [r5, #0]
 80038fa:	f422 3280 	bic.w	r2, r2, #65536	@ 0x10000
 80038fe:	602a      	str	r2, [r5, #0]
 8003900:	682a      	ldr	r2, [r5, #0]
 8003902:	f422 2280 	bic.w	r2, r2, #262144	@ 0x40000
 8003906:	602a      	str	r2, [r5, #0]
 8003908:	682a      	ldr	r2, [r5, #0]
 800390a:	f422 1280 	bic.w	r2, r2, #1048576	@ 0x100000
 800390e:	602a      	str	r2, [r5, #0]
 8003910:	2b00      	cmp	r3, #0
 8003912:	d1c4      	bne.n	800389e <HAL_RCC_OscConfig+0x24a>
 8003914:	f7fd fc8c 	bl	8001230 <HAL_GetTick>
 8003918:	4680      	mov	r8, r0
 800391a:	682b      	ldr	r3, [r5, #0]
 800391c:	039a      	lsls	r2, r3, #14
 800391e:	f57f af46 	bpl.w	80037ae <HAL_RCC_OscConfig+0x15a>
 8003922:	f7fd fc85 	bl	8001230 <HAL_GetTick>
 8003926:	eba0 0008 	sub.w	r0, r0, r8
 800392a:	2864      	cmp	r0, #100	@ 0x64
 800392c:	d9f5      	bls.n	800391a <HAL_RCC_OscConfig+0x2c6>
 800392e:	e77d      	b.n	800382c <HAL_RCC_OscConfig+0x1d8>
 8003930:	2e04      	cmp	r6, #4
 8003932:	68e3      	ldr	r3, [r4, #12]
 8003934:	d003      	beq.n	800393e <HAL_RCC_OscConfig+0x2ea>
 8003936:	2e0c      	cmp	r6, #12
 8003938:	d10d      	bne.n	8003956 <HAL_RCC_OscConfig+0x302>
 800393a:	2f02      	cmp	r7, #2
 800393c:	d10b      	bne.n	8003956 <HAL_RCC_OscConfig+0x302>
 800393e:	2b00      	cmp	r3, #0
 8003940:	f43f aec7 	beq.w	80036d2 <HAL_RCC_OscConfig+0x7e>
 8003944:	4aa9      	ldr	r2, [pc, #676]	@ (8003bec <HAL_RCC_OscConfig+0x598>)
 8003946:	6921      	ldr	r1, [r4, #16]
 8003948:	6913      	ldr	r3, [r2, #16]
 800394a:	f423 13f8 	bic.w	r3, r3, #2031616	@ 0x1f0000
 800394e:	ea43 4301 	orr.w	r3, r3, r1, lsl #16
 8003952:	6113      	str	r3, [r2, #16]
 8003954:	e72f      	b.n	80037b6 <HAL_RCC_OscConfig+0x162>
 8003956:	4da5      	ldr	r5, [pc, #660]	@ (8003bec <HAL_RCC_OscConfig+0x598>)
 8003958:	b1bb      	cbz	r3, 800398a <HAL_RCC_OscConfig+0x336>
 800395a:	682b      	ldr	r3, [r5, #0]
 800395c:	f443 7380 	orr.w	r3, r3, #256	@ 0x100
 8003960:	602b      	str	r3, [r5, #0]
 8003962:	f7fd fc65 	bl	8001230 <HAL_GetTick>
 8003966:	4606      	mov	r6, r0
 8003968:	682b      	ldr	r3, [r5, #0]
 800396a:	055b      	lsls	r3, r3, #21
 800396c:	d507      	bpl.n	800397e <HAL_RCC_OscConfig+0x32a>
 800396e:	692b      	ldr	r3, [r5, #16]
 8003970:	6922      	ldr	r2, [r4, #16]
 8003972:	f423 13f8 	bic.w	r3, r3, #2031616	@ 0x1f0000
 8003976:	ea43 4302 	orr.w	r3, r3, r2, lsl #16
 800397a:	612b      	str	r3, [r5, #16]
 800397c:	e71b      	b.n	80037b6 <HAL_RCC_OscConfig+0x162>
 800397e:	f7fd fc57 	bl	8001230 <HAL_GetTick>
 8003982:	1b80      	subs	r0, r0, r6
 8003984:	2802      	cmp	r0, #2
 8003986:	d9ef      	bls.n	8003968 <HAL_RCC_OscConfig+0x314>
 8003988:	e750      	b.n	800382c <HAL_RCC_OscConfig+0x1d8>
 800398a:	682b      	ldr	r3, [r5, #0]
 800398c:	f423 7380 	bic.w	r3, r3, #256	@ 0x100
 8003990:	602b      	str	r3, [r5, #0]
 8003992:	f7fd fc4d 	bl	8001230 <HAL_GetTick>
 8003996:	4606      	mov	r6, r0
 8003998:	682b      	ldr	r3, [r5, #0]
 800399a:	055f      	lsls	r7, r3, #21
 800399c:	f57f af0b 	bpl.w	80037b6 <HAL_RCC_OscConfig+0x162>
 80039a0:	f7fd fc46 	bl	8001230 <HAL_GetTick>
 80039a4:	1b80      	subs	r0, r0, r6
 80039a6:	2802      	cmp	r0, #2
 80039a8:	d9f6      	bls.n	8003998 <HAL_RCC_OscConfig+0x344>
 80039aa:	e73f      	b.n	800382c <HAL_RCC_OscConfig+0x1d8>
 80039ac:	2700      	movs	r7, #0
 80039ae:	e719      	b.n	80037e4 <HAL_RCC_OscConfig+0x190>
 80039b0:	6aab      	ldr	r3, [r5, #40]	@ 0x28
 80039b2:	f043 0301 	orr.w	r3, r3, #1
 80039b6:	62ab      	str	r3, [r5, #40]	@ 0x28
 80039b8:	f7fd fc3a 	bl	8001230 <HAL_GetTick>
 80039bc:	4606      	mov	r6, r0
 80039be:	6aab      	ldr	r3, [r5, #40]	@ 0x28
 80039c0:	07db      	lsls	r3, r3, #31
 80039c2:	f53f af14 	bmi.w	80037ee <HAL_RCC_OscConfig+0x19a>
 80039c6:	f7fd fc33 	bl	8001230 <HAL_GetTick>
 80039ca:	1b80      	subs	r0, r0, r6
 80039cc:	2802      	cmp	r0, #2
 80039ce:	d9f6      	bls.n	80039be <HAL_RCC_OscConfig+0x36a>
 80039d0:	e72c      	b.n	800382c <HAL_RCC_OscConfig+0x1d8>
 80039d2:	f8d5 30f0 	ldr.w	r3, [r5, #240]	@ 0xf0
 80039d6:	69a1      	ldr	r1, [r4, #24]
 80039d8:	f003 5280 	and.w	r2, r3, #268435456	@ 0x10000000
 80039dc:	4291      	cmp	r1, r2
 80039de:	d010      	beq.n	8003a02 <HAL_RCC_OscConfig+0x3ae>
 80039e0:	f003 6240 	and.w	r2, r3, #201326592	@ 0xc000000
 80039e4:	f1b2 6f00 	cmp.w	r2, #134217728	@ 0x8000000
 80039e8:	f43f ae73 	beq.w	80036d2 <HAL_RCC_OscConfig+0x7e>
 80039ec:	0158      	lsls	r0, r3, #5
 80039ee:	d46c      	bmi.n	8003aca <HAL_RCC_OscConfig+0x476>
 80039f0:	4a7e      	ldr	r2, [pc, #504]	@ (8003bec <HAL_RCC_OscConfig+0x598>)
 80039f2:	69a1      	ldr	r1, [r4, #24]
 80039f4:	f8d2 30f0 	ldr.w	r3, [r2, #240]	@ 0xf0
 80039f8:	f023 5380 	bic.w	r3, r3, #268435456	@ 0x10000000
 80039fc:	430b      	orrs	r3, r1
 80039fe:	f8c2 30f0 	str.w	r3, [r2, #240]	@ 0xf0
 8003a02:	4d7a      	ldr	r5, [pc, #488]	@ (8003bec <HAL_RCC_OscConfig+0x598>)
 8003a04:	f8d5 30f0 	ldr.w	r3, [r5, #240]	@ 0xf0
 8003a08:	f043 6380 	orr.w	r3, r3, #67108864	@ 0x4000000
 8003a0c:	f8c5 30f0 	str.w	r3, [r5, #240]	@ 0xf0
 8003a10:	f7fd fc0e 	bl	8001230 <HAL_GetTick>
 8003a14:	4606      	mov	r6, r0
 8003a16:	f8d5 30f0 	ldr.w	r3, [r5, #240]	@ 0xf0
 8003a1a:	011a      	lsls	r2, r3, #4
 8003a1c:	d568      	bpl.n	8003af0 <HAL_RCC_OscConfig+0x49c>
 8003a1e:	b137      	cbz	r7, 8003a2e <HAL_RCC_OscConfig+0x3da>
 8003a20:	4a72      	ldr	r2, [pc, #456]	@ (8003bec <HAL_RCC_OscConfig+0x598>)
 8003a22:	f8d2 3094 	ldr.w	r3, [r2, #148]	@ 0x94
 8003a26:	f023 0304 	bic.w	r3, r3, #4
 8003a2a:	f8c2 3094 	str.w	r3, [r2, #148]	@ 0x94
 8003a2e:	6823      	ldr	r3, [r4, #0]
 8003a30:	075d      	lsls	r5, r3, #29
 8003a32:	f140 80a7 	bpl.w	8003b84 <HAL_RCC_OscConfig+0x530>
 8003a36:	4b6d      	ldr	r3, [pc, #436]	@ (8003bec <HAL_RCC_OscConfig+0x598>)
 8003a38:	f8d3 2094 	ldr.w	r2, [r3, #148]	@ 0x94
 8003a3c:	0750      	lsls	r0, r2, #29
 8003a3e:	d45d      	bmi.n	8003afc <HAL_RCC_OscConfig+0x4a8>
 8003a40:	2701      	movs	r7, #1
 8003a42:	f8d3 2094 	ldr.w	r2, [r3, #148]	@ 0x94
 8003a46:	f042 0204 	orr.w	r2, r2, #4
 8003a4a:	f8c3 2094 	str.w	r2, [r3, #148]	@ 0x94
 8003a4e:	f8d3 3094 	ldr.w	r3, [r3, #148]	@ 0x94
 8003a52:	f003 0304 	and.w	r3, r3, #4
 8003a56:	9302      	str	r3, [sp, #8]
 8003a58:	9b02      	ldr	r3, [sp, #8]
 8003a5a:	4d65      	ldr	r5, [pc, #404]	@ (8003bf0 <HAL_RCC_OscConfig+0x59c>)
 8003a5c:	6aab      	ldr	r3, [r5, #40]	@ 0x28
 8003a5e:	07d9      	lsls	r1, r3, #31
 8003a60:	d54e      	bpl.n	8003b00 <HAL_RCC_OscConfig+0x4ac>
 8003a62:	68a3      	ldr	r3, [r4, #8]
 8003a64:	4d61      	ldr	r5, [pc, #388]	@ (8003bec <HAL_RCC_OscConfig+0x598>)
 8003a66:	f013 0f01 	tst.w	r3, #1
 8003a6a:	d159      	bne.n	8003b20 <HAL_RCC_OscConfig+0x4cc>
 8003a6c:	f8d5 20f0 	ldr.w	r2, [r5, #240]	@ 0xf0
 8003a70:	f022 0201 	bic.w	r2, r2, #1
 8003a74:	f8c5 20f0 	str.w	r2, [r5, #240]	@ 0xf0
 8003a78:	f8d5 20f0 	ldr.w	r2, [r5, #240]	@ 0xf0
 8003a7c:	f022 0204 	bic.w	r2, r2, #4
 8003a80:	f8c5 20f0 	str.w	r2, [r5, #240]	@ 0xf0
 8003a84:	2b00      	cmp	r3, #0
 8003a86:	d15a      	bne.n	8003b3e <HAL_RCC_OscConfig+0x4ea>
 8003a88:	f7fd fbd2 	bl	8001230 <HAL_GetTick>
 8003a8c:	f241 3888 	movw	r8, #5000	@ 0x1388
 8003a90:	4606      	mov	r6, r0
 8003a92:	f8d5 30f0 	ldr.w	r3, [r5, #240]	@ 0xf0
 8003a96:	079a      	lsls	r2, r3, #30
 8003a98:	f100 80a0 	bmi.w	8003bdc <HAL_RCC_OscConfig+0x588>
 8003a9c:	f8d5 30f0 	ldr.w	r3, [r5, #240]	@ 0xf0
 8003aa0:	061b      	lsls	r3, r3, #24
 8003aa2:	d567      	bpl.n	8003b74 <HAL_RCC_OscConfig+0x520>
 8003aa4:	f241 3888 	movw	r8, #5000	@ 0x1388
 8003aa8:	f8d5 30f0 	ldr.w	r3, [r5, #240]	@ 0xf0
 8003aac:	f023 0380 	bic.w	r3, r3, #128	@ 0x80
 8003ab0:	f8c5 30f0 	str.w	r3, [r5, #240]	@ 0xf0
 8003ab4:	4d4d      	ldr	r5, [pc, #308]	@ (8003bec <HAL_RCC_OscConfig+0x598>)
 8003ab6:	f8d5 30f0 	ldr.w	r3, [r5, #240]	@ 0xf0
 8003aba:	0518      	lsls	r0, r3, #20
 8003abc:	d55a      	bpl.n	8003b74 <HAL_RCC_OscConfig+0x520>
 8003abe:	f7fd fbb7 	bl	8001230 <HAL_GetTick>
 8003ac2:	1b80      	subs	r0, r0, r6
 8003ac4:	4540      	cmp	r0, r8
 8003ac6:	d9f6      	bls.n	8003ab6 <HAL_RCC_OscConfig+0x462>
 8003ac8:	e6b0      	b.n	800382c <HAL_RCC_OscConfig+0x1d8>
 8003aca:	f8d5 30f0 	ldr.w	r3, [r5, #240]	@ 0xf0
 8003ace:	f023 53a0 	bic.w	r3, r3, #335544320	@ 0x14000000
 8003ad2:	f8c5 30f0 	str.w	r3, [r5, #240]	@ 0xf0
 8003ad6:	f7fd fbab 	bl	8001230 <HAL_GetTick>
 8003ada:	4606      	mov	r6, r0
 8003adc:	f8d5 30f0 	ldr.w	r3, [r5, #240]	@ 0xf0
 8003ae0:	0119      	lsls	r1, r3, #4
 8003ae2:	d585      	bpl.n	80039f0 <HAL_RCC_OscConfig+0x39c>
 8003ae4:	f7fd fba4 	bl	8001230 <HAL_GetTick>
 8003ae8:	1b80      	subs	r0, r0, r6
 8003aea:	2805      	cmp	r0, #5
 8003aec:	d9f6      	bls.n	8003adc <HAL_RCC_OscConfig+0x488>
 8003aee:	e69d      	b.n	800382c <HAL_RCC_OscConfig+0x1d8>
 8003af0:	f7fd fb9e 	bl	8001230 <HAL_GetTick>
 8003af4:	1b80      	subs	r0, r0, r6
 8003af6:	2805      	cmp	r0, #5
 8003af8:	d98d      	bls.n	8003a16 <HAL_RCC_OscConfig+0x3c2>
 8003afa:	e697      	b.n	800382c <HAL_RCC_OscConfig+0x1d8>
 8003afc:	2700      	movs	r7, #0
 8003afe:	e7ac      	b.n	8003a5a <HAL_RCC_OscConfig+0x406>
 8003b00:	6aab      	ldr	r3, [r5, #40]	@ 0x28
 8003b02:	f043 0301 	orr.w	r3, r3, #1
 8003b06:	62ab      	str	r3, [r5, #40]	@ 0x28
 8003b08:	f7fd fb92 	bl	8001230 <HAL_GetTick>
 8003b0c:	4606      	mov	r6, r0
 8003b0e:	6aab      	ldr	r3, [r5, #40]	@ 0x28
 8003b10:	07da      	lsls	r2, r3, #31
 8003b12:	d4a6      	bmi.n	8003a62 <HAL_RCC_OscConfig+0x40e>
 8003b14:	f7fd fb8c 	bl	8001230 <HAL_GetTick>
 8003b18:	1b80      	subs	r0, r0, r6
 8003b1a:	2802      	cmp	r0, #2
 8003b1c:	d9f7      	bls.n	8003b0e <HAL_RCC_OscConfig+0x4ba>
 8003b1e:	e685      	b.n	800382c <HAL_RCC_OscConfig+0x1d8>
 8003b20:	f013 0f04 	tst.w	r3, #4
 8003b24:	f8d5 30f0 	ldr.w	r3, [r5, #240]	@ 0xf0
 8003b28:	bf1e      	ittt	ne
 8003b2a:	f043 0304 	orrne.w	r3, r3, #4
 8003b2e:	f8c5 30f0 	strne.w	r3, [r5, #240]	@ 0xf0
 8003b32:	f8d5 30f0 	ldrne.w	r3, [r5, #240]	@ 0xf0
 8003b36:	f043 0301 	orr.w	r3, r3, #1
 8003b3a:	f8c5 30f0 	str.w	r3, [r5, #240]	@ 0xf0
 8003b3e:	f7fd fb77 	bl	8001230 <HAL_GetTick>
 8003b42:	f241 3888 	movw	r8, #5000	@ 0x1388
 8003b46:	4605      	mov	r5, r0
 8003b48:	4e28      	ldr	r6, [pc, #160]	@ (8003bec <HAL_RCC_OscConfig+0x598>)
 8003b4a:	f8d6 30f0 	ldr.w	r3, [r6, #240]	@ 0xf0
 8003b4e:	079b      	lsls	r3, r3, #30
 8003b50:	d527      	bpl.n	8003ba2 <HAL_RCC_OscConfig+0x54e>
 8003b52:	68a3      	ldr	r3, [r4, #8]
 8003b54:	f013 0f80 	tst.w	r3, #128	@ 0x80
 8003b58:	f8d6 30f0 	ldr.w	r3, [r6, #240]	@ 0xf0
 8003b5c:	d02d      	beq.n	8003bba <HAL_RCC_OscConfig+0x566>
 8003b5e:	f241 3888 	movw	r8, #5000	@ 0x1388
 8003b62:	f043 0380 	orr.w	r3, r3, #128	@ 0x80
 8003b66:	f8c6 30f0 	str.w	r3, [r6, #240]	@ 0xf0
 8003b6a:	4e20      	ldr	r6, [pc, #128]	@ (8003bec <HAL_RCC_OscConfig+0x598>)
 8003b6c:	f8d6 30f0 	ldr.w	r3, [r6, #240]	@ 0xf0
 8003b70:	0518      	lsls	r0, r3, #20
 8003b72:	d51c      	bpl.n	8003bae <HAL_RCC_OscConfig+0x55a>
 8003b74:	b137      	cbz	r7, 8003b84 <HAL_RCC_OscConfig+0x530>
 8003b76:	4a1d      	ldr	r2, [pc, #116]	@ (8003bec <HAL_RCC_OscConfig+0x598>)
 8003b78:	f8d2 3094 	ldr.w	r3, [r2, #148]	@ 0x94
 8003b7c:	f023 0304 	bic.w	r3, r3, #4
 8003b80:	f8c2 3094 	str.w	r3, [r2, #148]	@ 0x94
 8003b84:	6823      	ldr	r3, [r4, #0]
 8003b86:	0699      	lsls	r1, r3, #26
 8003b88:	d434      	bmi.n	8003bf4 <HAL_RCC_OscConfig+0x5a0>
 8003b8a:	6823      	ldr	r3, [r4, #0]
 8003b8c:	061a      	lsls	r2, r3, #24
 8003b8e:	d454      	bmi.n	8003c3a <HAL_RCC_OscConfig+0x5e6>
 8003b90:	6823      	ldr	r3, [r4, #0]
 8003b92:	0658      	lsls	r0, r3, #25
 8003b94:	d474      	bmi.n	8003c80 <HAL_RCC_OscConfig+0x62c>
 8003b96:	6ba1      	ldr	r1, [r4, #56]	@ 0x38
 8003b98:	2900      	cmp	r1, #0
 8003b9a:	f040 80c1 	bne.w	8003d20 <HAL_RCC_OscConfig+0x6cc>
 8003b9e:	2000      	movs	r0, #0
 8003ba0:	e5a6      	b.n	80036f0 <HAL_RCC_OscConfig+0x9c>
 8003ba2:	f7fd fb45 	bl	8001230 <HAL_GetTick>
 8003ba6:	1b40      	subs	r0, r0, r5
 8003ba8:	4540      	cmp	r0, r8
 8003baa:	d9ce      	bls.n	8003b4a <HAL_RCC_OscConfig+0x4f6>
 8003bac:	e63e      	b.n	800382c <HAL_RCC_OscConfig+0x1d8>
 8003bae:	f7fd fb3f 	bl	8001230 <HAL_GetTick>
 8003bb2:	1b40      	subs	r0, r0, r5
 8003bb4:	4540      	cmp	r0, r8
 8003bb6:	d9d9      	bls.n	8003b6c <HAL_RCC_OscConfig+0x518>
 8003bb8:	e638      	b.n	800382c <HAL_RCC_OscConfig+0x1d8>
 8003bba:	f241 3888 	movw	r8, #5000	@ 0x1388
 8003bbe:	f023 0380 	bic.w	r3, r3, #128	@ 0x80
 8003bc2:	f8c6 30f0 	str.w	r3, [r6, #240]	@ 0xf0
 8003bc6:	4e09      	ldr	r6, [pc, #36]	@ (8003bec <HAL_RCC_OscConfig+0x598>)
 8003bc8:	f8d6 30f0 	ldr.w	r3, [r6, #240]	@ 0xf0
 8003bcc:	0519      	lsls	r1, r3, #20
 8003bce:	d5d1      	bpl.n	8003b74 <HAL_RCC_OscConfig+0x520>
 8003bd0:	f7fd fb2e 	bl	8001230 <HAL_GetTick>
 8003bd4:	1b40      	subs	r0, r0, r5
 8003bd6:	4540      	cmp	r0, r8
 8003bd8:	d9f6      	bls.n	8003bc8 <HAL_RCC_OscConfig+0x574>
 8003bda:	e627      	b.n	800382c <HAL_RCC_OscConfig+0x1d8>
 8003bdc:	f7fd fb28 	bl	8001230 <HAL_GetTick>
 8003be0:	1b80      	subs	r0, r0, r6
 8003be2:	4540      	cmp	r0, r8
 8003be4:	f67f af55 	bls.w	8003a92 <HAL_RCC_OscConfig+0x43e>
 8003be8:	e620      	b.n	800382c <HAL_RCC_OscConfig+0x1d8>
 8003bea:	bf00      	nop
 8003bec:	46020c00 	.word	0x46020c00
 8003bf0:	46020800 	.word	0x46020800
 8003bf4:	6ae3      	ldr	r3, [r4, #44]	@ 0x2c
 8003bf6:	4d9b      	ldr	r5, [pc, #620]	@ (8003e64 <HAL_RCC_OscConfig+0x810>)
 8003bf8:	b17b      	cbz	r3, 8003c1a <HAL_RCC_OscConfig+0x5c6>
 8003bfa:	682b      	ldr	r3, [r5, #0]
 8003bfc:	f443 5380 	orr.w	r3, r3, #4096	@ 0x1000
 8003c00:	602b      	str	r3, [r5, #0]
 8003c02:	f7fd fb15 	bl	8001230 <HAL_GetTick>
 8003c06:	4606      	mov	r6, r0
 8003c08:	682b      	ldr	r3, [r5, #0]
 8003c0a:	049b      	lsls	r3, r3, #18
 8003c0c:	d4bd      	bmi.n	8003b8a <HAL_RCC_OscConfig+0x536>
 8003c0e:	f7fd fb0f 	bl	8001230 <HAL_GetTick>
 8003c12:	1b80      	subs	r0, r0, r6
 8003c14:	2802      	cmp	r0, #2
 8003c16:	d9f7      	bls.n	8003c08 <HAL_RCC_OscConfig+0x5b4>
 8003c18:	e608      	b.n	800382c <HAL_RCC_OscConfig+0x1d8>
 8003c1a:	682b      	ldr	r3, [r5, #0]
 8003c1c:	f423 5380 	bic.w	r3, r3, #4096	@ 0x1000
 8003c20:	602b      	str	r3, [r5, #0]
 8003c22:	f7fd fb05 	bl	8001230 <HAL_GetTick>
 8003c26:	4606      	mov	r6, r0
 8003c28:	682b      	ldr	r3, [r5, #0]
 8003c2a:	049f      	lsls	r7, r3, #18
 8003c2c:	d5ad      	bpl.n	8003b8a <HAL_RCC_OscConfig+0x536>
 8003c2e:	f7fd faff 	bl	8001230 <HAL_GetTick>
 8003c32:	1b80      	subs	r0, r0, r6
 8003c34:	2802      	cmp	r0, #2
 8003c36:	d9f7      	bls.n	8003c28 <HAL_RCC_OscConfig+0x5d4>
 8003c38:	e5f8      	b.n	800382c <HAL_RCC_OscConfig+0x1d8>
 8003c3a:	6b23      	ldr	r3, [r4, #48]	@ 0x30
 8003c3c:	4d89      	ldr	r5, [pc, #548]	@ (8003e64 <HAL_RCC_OscConfig+0x810>)
 8003c3e:	b17b      	cbz	r3, 8003c60 <HAL_RCC_OscConfig+0x60c>
 8003c40:	682b      	ldr	r3, [r5, #0]
 8003c42:	f443 4380 	orr.w	r3, r3, #16384	@ 0x4000
 8003c46:	602b      	str	r3, [r5, #0]
 8003c48:	f7fd faf2 	bl	8001230 <HAL_GetTick>
 8003c4c:	4606      	mov	r6, r0
 8003c4e:	682b      	ldr	r3, [r5, #0]
 8003c50:	0419      	lsls	r1, r3, #16
 8003c52:	d49d      	bmi.n	8003b90 <HAL_RCC_OscConfig+0x53c>
 8003c54:	f7fd faec 	bl	8001230 <HAL_GetTick>
 8003c58:	1b80      	subs	r0, r0, r6
 8003c5a:	2802      	cmp	r0, #2
 8003c5c:	d9f7      	bls.n	8003c4e <HAL_RCC_OscConfig+0x5fa>
 8003c5e:	e5e5      	b.n	800382c <HAL_RCC_OscConfig+0x1d8>
 8003c60:	682b      	ldr	r3, [r5, #0]
 8003c62:	f423 4380 	bic.w	r3, r3, #16384	@ 0x4000
 8003c66:	602b      	str	r3, [r5, #0]
 8003c68:	f7fd fae2 	bl	8001230 <HAL_GetTick>
 8003c6c:	4606      	mov	r6, r0
 8003c6e:	682b      	ldr	r3, [r5, #0]
 8003c70:	041a      	lsls	r2, r3, #16
 8003c72:	d58d      	bpl.n	8003b90 <HAL_RCC_OscConfig+0x53c>
 8003c74:	f7fd fadc 	bl	8001230 <HAL_GetTick>
 8003c78:	1b80      	subs	r0, r0, r6
 8003c7a:	2802      	cmp	r0, #2
 8003c7c:	d9f7      	bls.n	8003c6e <HAL_RCC_OscConfig+0x61a>
 8003c7e:	e5d5      	b.n	800382c <HAL_RCC_OscConfig+0x1d8>
 8003c80:	6b63      	ldr	r3, [r4, #52]	@ 0x34
 8003c82:	4d78      	ldr	r5, [pc, #480]	@ (8003e64 <HAL_RCC_OscConfig+0x810>)
 8003c84:	2b00      	cmp	r3, #0
 8003c86:	d03a      	beq.n	8003cfe <HAL_RCC_OscConfig+0x6aa>
 8003c88:	68ab      	ldr	r3, [r5, #8]
 8003c8a:	f443 0300 	orr.w	r3, r3, #8388608	@ 0x800000
 8003c8e:	60ab      	str	r3, [r5, #8]
 8003c90:	68ab      	ldr	r3, [r5, #8]
 8003c92:	6aa2      	ldr	r2, [r4, #40]	@ 0x28
 8003c94:	f023 6370 	bic.w	r3, r3, #251658240	@ 0xf000000
 8003c98:	4313      	orrs	r3, r2
 8003c9a:	60ab      	str	r3, [r5, #8]
 8003c9c:	e9d4 2308 	ldrd	r2, r3, [r4, #32]
 8003ca0:	f1b3 4f40 	cmp.w	r3, #3221225472	@ 0xc0000000
 8003ca4:	d316      	bcc.n	8003cd4 <HAL_RCC_OscConfig+0x680>
 8003ca6:	68eb      	ldr	r3, [r5, #12]
 8003ca8:	f023 031f 	bic.w	r3, r3, #31
 8003cac:	4313      	orrs	r3, r2
 8003cae:	60eb      	str	r3, [r5, #12]
 8003cb0:	4d6c      	ldr	r5, [pc, #432]	@ (8003e64 <HAL_RCC_OscConfig+0x810>)
 8003cb2:	682b      	ldr	r3, [r5, #0]
 8003cb4:	f043 0310 	orr.w	r3, r3, #16
 8003cb8:	602b      	str	r3, [r5, #0]
 8003cba:	f7fd fab9 	bl	8001230 <HAL_GetTick>
 8003cbe:	4606      	mov	r6, r0
 8003cc0:	682b      	ldr	r3, [r5, #0]
 8003cc2:	069b      	lsls	r3, r3, #26
 8003cc4:	f53f af67 	bmi.w	8003b96 <HAL_RCC_OscConfig+0x542>
 8003cc8:	f7fd fab2 	bl	8001230 <HAL_GetTick>
 8003ccc:	1b80      	subs	r0, r0, r6
 8003cce:	2802      	cmp	r0, #2
 8003cd0:	d9f6      	bls.n	8003cc0 <HAL_RCC_OscConfig+0x66c>
 8003cd2:	e5ab      	b.n	800382c <HAL_RCC_OscConfig+0x1d8>
 8003cd4:	2b00      	cmp	r3, #0
 8003cd6:	da05      	bge.n	8003ce4 <HAL_RCC_OscConfig+0x690>
 8003cd8:	68eb      	ldr	r3, [r5, #12]
 8003cda:	f423 7378 	bic.w	r3, r3, #992	@ 0x3e0
 8003cde:	ea43 1342 	orr.w	r3, r3, r2, lsl #5
 8003ce2:	e7e4      	b.n	8003cae <HAL_RCC_OscConfig+0x65a>
 8003ce4:	f1b3 4f80 	cmp.w	r3, #1073741824	@ 0x40000000
 8003ce8:	68eb      	ldr	r3, [r5, #12]
 8003cea:	bf2b      	itete	cs
 8003cec:	f423 43f8 	biccs.w	r3, r3, #31744	@ 0x7c00
 8003cf0:	f423 2378 	biccc.w	r3, r3, #1015808	@ 0xf8000
 8003cf4:	ea43 2382 	orrcs.w	r3, r3, r2, lsl #10
 8003cf8:	ea43 33c2 	orrcc.w	r3, r3, r2, lsl #15
 8003cfc:	e7d7      	b.n	8003cae <HAL_RCC_OscConfig+0x65a>
 8003cfe:	682b      	ldr	r3, [r5, #0]
 8003d00:	f023 0310 	bic.w	r3, r3, #16
 8003d04:	602b      	str	r3, [r5, #0]
 8003d06:	f7fd fa93 	bl	8001230 <HAL_GetTick>
 8003d0a:	4606      	mov	r6, r0
 8003d0c:	682b      	ldr	r3, [r5, #0]
 8003d0e:	069f      	lsls	r7, r3, #26
 8003d10:	f57f af41 	bpl.w	8003b96 <HAL_RCC_OscConfig+0x542>
 8003d14:	f7fd fa8c 	bl	8001230 <HAL_GetTick>
 8003d18:	1b80      	subs	r0, r0, r6
 8003d1a:	2802      	cmp	r0, #2
 8003d1c:	d9f6      	bls.n	8003d0c <HAL_RCC_OscConfig+0x6b8>
 8003d1e:	e585      	b.n	800382c <HAL_RCC_OscConfig+0x1d8>
 8003d20:	4d50      	ldr	r5, [pc, #320]	@ (8003e64 <HAL_RCC_OscConfig+0x810>)
 8003d22:	69eb      	ldr	r3, [r5, #28]
 8003d24:	f003 030c 	and.w	r3, r3, #12
 8003d28:	2b0c      	cmp	r3, #12
 8003d2a:	f000 80a1 	beq.w	8003e70 <HAL_RCC_OscConfig+0x81c>
 8003d2e:	682b      	ldr	r3, [r5, #0]
 8003d30:	2902      	cmp	r1, #2
 8003d32:	f023 7380 	bic.w	r3, r3, #16777216	@ 0x1000000
 8003d36:	602b      	str	r3, [r5, #0]
 8003d38:	f040 8081 	bne.w	8003e3e <HAL_RCC_OscConfig+0x7ea>
 8003d3c:	f7fd fa78 	bl	8001230 <HAL_GetTick>
 8003d40:	4606      	mov	r6, r0
 8003d42:	6829      	ldr	r1, [r5, #0]
 8003d44:	f011 7100 	ands.w	r1, r1, #33554432	@ 0x2000000
 8003d48:	d16d      	bne.n	8003e26 <HAL_RCC_OscConfig+0x7d2>
 8003d4a:	f8d5 3094 	ldr.w	r3, [r5, #148]	@ 0x94
 8003d4e:	075e      	lsls	r6, r3, #29
 8003d50:	d40c      	bmi.n	8003d6c <HAL_RCC_OscConfig+0x718>
 8003d52:	2101      	movs	r1, #1
 8003d54:	f8d5 3094 	ldr.w	r3, [r5, #148]	@ 0x94
 8003d58:	f043 0304 	orr.w	r3, r3, #4
 8003d5c:	f8c5 3094 	str.w	r3, [r5, #148]	@ 0x94
 8003d60:	f8d5 3094 	ldr.w	r3, [r5, #148]	@ 0x94
 8003d64:	f003 0304 	and.w	r3, r3, #4
 8003d68:	9303      	str	r3, [sp, #12]
 8003d6a:	9b03      	ldr	r3, [sp, #12]
 8003d6c:	4d3e      	ldr	r5, [pc, #248]	@ (8003e68 <HAL_RCC_OscConfig+0x814>)
 8003d6e:	68ee      	ldr	r6, [r5, #12]
 8003d70:	68eb      	ldr	r3, [r5, #12]
 8003d72:	f423 2380 	bic.w	r3, r3, #262144	@ 0x40000
 8003d76:	60eb      	str	r3, [r5, #12]
 8003d78:	4b3a      	ldr	r3, [pc, #232]	@ (8003e64 <HAL_RCC_OscConfig+0x810>)
 8003d7a:	6c67      	ldr	r7, [r4, #68]	@ 0x44
 8003d7c:	6a98      	ldr	r0, [r3, #40]	@ 0x28
 8003d7e:	6be2      	ldr	r2, [r4, #60]	@ 0x3c
 8003d80:	f420 407f 	bic.w	r0, r0, #65280	@ 0xff00
 8003d84:	433a      	orrs	r2, r7
 8003d86:	f020 0003 	bic.w	r0, r0, #3
 8003d8a:	4302      	orrs	r2, r0
 8003d8c:	6c20      	ldr	r0, [r4, #64]	@ 0x40
 8003d8e:	3801      	subs	r0, #1
 8003d90:	ea42 2200 	orr.w	r2, r2, r0, lsl #8
 8003d94:	629a      	str	r2, [r3, #40]	@ 0x28
 8003d96:	6ca2      	ldr	r2, [r4, #72]	@ 0x48
 8003d98:	6b5f      	ldr	r7, [r3, #52]	@ 0x34
 8003d9a:	4834      	ldr	r0, [pc, #208]	@ (8003e6c <HAL_RCC_OscConfig+0x818>)
 8003d9c:	3a01      	subs	r2, #1
 8003d9e:	4038      	ands	r0, r7
 8003da0:	f3c2 0208 	ubfx	r2, r2, #0, #9
 8003da4:	4302      	orrs	r2, r0
 8003da6:	6ce0      	ldr	r0, [r4, #76]	@ 0x4c
 8003da8:	3801      	subs	r0, #1
 8003daa:	0240      	lsls	r0, r0, #9
 8003dac:	b280      	uxth	r0, r0
 8003dae:	4302      	orrs	r2, r0
 8003db0:	6d20      	ldr	r0, [r4, #80]	@ 0x50
 8003db2:	3801      	subs	r0, #1
 8003db4:	0400      	lsls	r0, r0, #16
 8003db6:	f400 00fe 	and.w	r0, r0, #8323072	@ 0x7f0000
 8003dba:	4302      	orrs	r2, r0
 8003dbc:	6d60      	ldr	r0, [r4, #84]	@ 0x54
 8003dbe:	3801      	subs	r0, #1
 8003dc0:	0600      	lsls	r0, r0, #24
 8003dc2:	f000 40fe 	and.w	r0, r0, #2130706432	@ 0x7f000000
 8003dc6:	4302      	orrs	r2, r0
 8003dc8:	635a      	str	r2, [r3, #52]	@ 0x34
 8003dca:	6a9a      	ldr	r2, [r3, #40]	@ 0x28
 8003dcc:	f022 0210 	bic.w	r2, r2, #16
 8003dd0:	629a      	str	r2, [r3, #40]	@ 0x28
 8003dd2:	6de2      	ldr	r2, [r4, #92]	@ 0x5c
 8003dd4:	00d2      	lsls	r2, r2, #3
 8003dd6:	639a      	str	r2, [r3, #56]	@ 0x38
 8003dd8:	6a9a      	ldr	r2, [r3, #40]	@ 0x28
 8003dda:	f042 0210 	orr.w	r2, r2, #16
 8003dde:	629a      	str	r2, [r3, #40]	@ 0x28
 8003de0:	6a9a      	ldr	r2, [r3, #40]	@ 0x28
 8003de2:	6da0      	ldr	r0, [r4, #88]	@ 0x58
 8003de4:	f022 020c 	bic.w	r2, r2, #12
 8003de8:	4302      	orrs	r2, r0
 8003dea:	629a      	str	r2, [r3, #40]	@ 0x28
 8003dec:	0370      	lsls	r0, r6, #13
 8003dee:	bf42      	ittt	mi
 8003df0:	68ea      	ldrmi	r2, [r5, #12]
 8003df2:	f442 2280 	orrmi.w	r2, r2, #262144	@ 0x40000
 8003df6:	60ea      	strmi	r2, [r5, #12]
 8003df8:	b129      	cbz	r1, 8003e06 <HAL_RCC_OscConfig+0x7b2>
 8003dfa:	f8d3 2094 	ldr.w	r2, [r3, #148]	@ 0x94
 8003dfe:	f022 0204 	bic.w	r2, r2, #4
 8003e02:	f8c3 2094 	str.w	r2, [r3, #148]	@ 0x94
 8003e06:	681a      	ldr	r2, [r3, #0]
 8003e08:	4c16      	ldr	r4, [pc, #88]	@ (8003e64 <HAL_RCC_OscConfig+0x810>)
 8003e0a:	f042 7280 	orr.w	r2, r2, #16777216	@ 0x1000000
 8003e0e:	601a      	str	r2, [r3, #0]
 8003e10:	f7fd fa0e 	bl	8001230 <HAL_GetTick>
 8003e14:	4605      	mov	r5, r0
 8003e16:	6823      	ldr	r3, [r4, #0]
 8003e18:	019a      	lsls	r2, r3, #6
 8003e1a:	d50a      	bpl.n	8003e32 <HAL_RCC_OscConfig+0x7de>
 8003e1c:	6aa3      	ldr	r3, [r4, #40]	@ 0x28
 8003e1e:	f443 2380 	orr.w	r3, r3, #262144	@ 0x40000
 8003e22:	62a3      	str	r3, [r4, #40]	@ 0x28
 8003e24:	e6bb      	b.n	8003b9e <HAL_RCC_OscConfig+0x54a>
 8003e26:	f7fd fa03 	bl	8001230 <HAL_GetTick>
 8003e2a:	1b80      	subs	r0, r0, r6
 8003e2c:	2802      	cmp	r0, #2
 8003e2e:	d988      	bls.n	8003d42 <HAL_RCC_OscConfig+0x6ee>
 8003e30:	e4fc      	b.n	800382c <HAL_RCC_OscConfig+0x1d8>
 8003e32:	f7fd f9fd 	bl	8001230 <HAL_GetTick>
 8003e36:	1b40      	subs	r0, r0, r5
 8003e38:	2802      	cmp	r0, #2
 8003e3a:	d9ec      	bls.n	8003e16 <HAL_RCC_OscConfig+0x7c2>
 8003e3c:	e4f6      	b.n	800382c <HAL_RCC_OscConfig+0x1d8>
 8003e3e:	f7fd f9f7 	bl	8001230 <HAL_GetTick>
 8003e42:	4604      	mov	r4, r0
 8003e44:	682b      	ldr	r3, [r5, #0]
 8003e46:	019b      	lsls	r3, r3, #6
 8003e48:	d406      	bmi.n	8003e58 <HAL_RCC_OscConfig+0x804>
 8003e4a:	6aab      	ldr	r3, [r5, #40]	@ 0x28
 8003e4c:	f423 23e0 	bic.w	r3, r3, #458752	@ 0x70000
 8003e50:	f023 0303 	bic.w	r3, r3, #3
 8003e54:	62ab      	str	r3, [r5, #40]	@ 0x28
 8003e56:	e6a2      	b.n	8003b9e <HAL_RCC_OscConfig+0x54a>
 8003e58:	f7fd f9ea 	bl	8001230 <HAL_GetTick>
 8003e5c:	1b00      	subs	r0, r0, r4
 8003e5e:	2802      	cmp	r0, #2
 8003e60:	d9f0      	bls.n	8003e44 <HAL_RCC_OscConfig+0x7f0>
 8003e62:	e4e3      	b.n	800382c <HAL_RCC_OscConfig+0x1d8>
 8003e64:	46020c00 	.word	0x46020c00
 8003e68:	46020800 	.word	0x46020800
 8003e6c:	80800000 	.word	0x80800000
 8003e70:	2901      	cmp	r1, #1
 8003e72:	6aaa      	ldr	r2, [r5, #40]	@ 0x28
 8003e74:	6b6b      	ldr	r3, [r5, #52]	@ 0x34
 8003e76:	f43f ac2c 	beq.w	80036d2 <HAL_RCC_OscConfig+0x7e>
 8003e7a:	6be0      	ldr	r0, [r4, #60]	@ 0x3c
 8003e7c:	f002 0103 	and.w	r1, r2, #3
 8003e80:	4281      	cmp	r1, r0
 8003e82:	f47f ac26 	bne.w	80036d2 <HAL_RCC_OscConfig+0x7e>
 8003e86:	6c21      	ldr	r1, [r4, #64]	@ 0x40
 8003e88:	f3c2 2003 	ubfx	r0, r2, #8, #4
 8003e8c:	3901      	subs	r1, #1
 8003e8e:	4288      	cmp	r0, r1
 8003e90:	f47f ac1f 	bne.w	80036d2 <HAL_RCC_OscConfig+0x7e>
 8003e94:	6c61      	ldr	r1, [r4, #68]	@ 0x44
 8003e96:	f402 4270 	and.w	r2, r2, #61440	@ 0xf000
 8003e9a:	428a      	cmp	r2, r1
 8003e9c:	f47f ac19 	bne.w	80036d2 <HAL_RCC_OscConfig+0x7e>
 8003ea0:	6ca2      	ldr	r2, [r4, #72]	@ 0x48
 8003ea2:	f3c3 0108 	ubfx	r1, r3, #0, #9
 8003ea6:	3a01      	subs	r2, #1
 8003ea8:	4291      	cmp	r1, r2
 8003eaa:	f47f ac12 	bne.w	80036d2 <HAL_RCC_OscConfig+0x7e>
 8003eae:	6ce2      	ldr	r2, [r4, #76]	@ 0x4c
 8003eb0:	f3c3 2146 	ubfx	r1, r3, #9, #7
 8003eb4:	3a01      	subs	r2, #1
 8003eb6:	4291      	cmp	r1, r2
 8003eb8:	f47f ac0b 	bne.w	80036d2 <HAL_RCC_OscConfig+0x7e>
 8003ebc:	6d22      	ldr	r2, [r4, #80]	@ 0x50
 8003ebe:	f3c3 4106 	ubfx	r1, r3, #16, #7
 8003ec2:	3a01      	subs	r2, #1
 8003ec4:	4291      	cmp	r1, r2
 8003ec6:	f47f ac04 	bne.w	80036d2 <HAL_RCC_OscConfig+0x7e>
 8003eca:	6d62      	ldr	r2, [r4, #84]	@ 0x54
 8003ecc:	f3c3 6306 	ubfx	r3, r3, #24, #7
 8003ed0:	3a01      	subs	r2, #1
 8003ed2:	4293      	cmp	r3, r2
 8003ed4:	f47f abfd 	bne.w	80036d2 <HAL_RCC_OscConfig+0x7e>
 8003ed8:	4b0d      	ldr	r3, [pc, #52]	@ (8003f10 <HAL_RCC_OscConfig+0x8bc>)
 8003eda:	6de1      	ldr	r1, [r4, #92]	@ 0x5c
 8003edc:	6b9a      	ldr	r2, [r3, #56]	@ 0x38
 8003ede:	f3c2 02cc 	ubfx	r2, r2, #3, #13
 8003ee2:	428a      	cmp	r2, r1
 8003ee4:	f43f ae5b 	beq.w	8003b9e <HAL_RCC_OscConfig+0x54a>
 8003ee8:	6a9a      	ldr	r2, [r3, #40]	@ 0x28
 8003eea:	f022 0210 	bic.w	r2, r2, #16
 8003eee:	629a      	str	r2, [r3, #40]	@ 0x28
 8003ef0:	f7fd f99e 	bl	8001230 <HAL_GetTick>
 8003ef4:	4605      	mov	r5, r0
 8003ef6:	f7fd f99b 	bl	8001230 <HAL_GetTick>
 8003efa:	42a8      	cmp	r0, r5
 8003efc:	d0fb      	beq.n	8003ef6 <HAL_RCC_OscConfig+0x8a2>
 8003efe:	6de2      	ldr	r2, [r4, #92]	@ 0x5c
 8003f00:	4b03      	ldr	r3, [pc, #12]	@ (8003f10 <HAL_RCC_OscConfig+0x8bc>)
 8003f02:	00d2      	lsls	r2, r2, #3
 8003f04:	639a      	str	r2, [r3, #56]	@ 0x38
 8003f06:	6a9a      	ldr	r2, [r3, #40]	@ 0x28
 8003f08:	f042 0210 	orr.w	r2, r2, #16
 8003f0c:	629a      	str	r2, [r3, #40]	@ 0x28
 8003f0e:	e646      	b.n	8003b9e <HAL_RCC_OscConfig+0x54a>
 8003f10:	46020c00 	.word	0x46020c00

08003f14 <HAL_RCC_GetPCLK1Freq>:
 8003f14:	b508      	push	{r3, lr}
 8003f16:	f7ff fb89 	bl	800362c <HAL_RCC_GetHCLKFreq>
 8003f1a:	4b04      	ldr	r3, [pc, #16]	@ (8003f2c <HAL_RCC_GetPCLK1Freq+0x18>)
 8003f1c:	4a04      	ldr	r2, [pc, #16]	@ (8003f30 <HAL_RCC_GetPCLK1Freq+0x1c>)
 8003f1e:	6a1b      	ldr	r3, [r3, #32]
 8003f20:	f3c3 1302 	ubfx	r3, r3, #4, #3
 8003f24:	5cd3      	ldrb	r3, [r2, r3]
 8003f26:	40d8      	lsrs	r0, r3
 8003f28:	bd08      	pop	{r3, pc}
 8003f2a:	bf00      	nop
 8003f2c:	46020c00 	.word	0x46020c00
 8003f30:	0800926c 	.word	0x0800926c

08003f34 <HAL_RCC_GetClockConfig>:
 8003f34:	231f      	movs	r3, #31
 8003f36:	6003      	str	r3, [r0, #0]
 8003f38:	4b0d      	ldr	r3, [pc, #52]	@ (8003f70 <HAL_RCC_GetClockConfig+0x3c>)
 8003f3a:	69da      	ldr	r2, [r3, #28]
 8003f3c:	f002 0203 	and.w	r2, r2, #3
 8003f40:	6042      	str	r2, [r0, #4]
 8003f42:	6a1a      	ldr	r2, [r3, #32]
 8003f44:	f002 020f 	and.w	r2, r2, #15
 8003f48:	6082      	str	r2, [r0, #8]
 8003f4a:	6a1a      	ldr	r2, [r3, #32]
 8003f4c:	f002 0270 	and.w	r2, r2, #112	@ 0x70
 8003f50:	60c2      	str	r2, [r0, #12]
 8003f52:	6a1a      	ldr	r2, [r3, #32]
 8003f54:	0912      	lsrs	r2, r2, #4
 8003f56:	f002 0270 	and.w	r2, r2, #112	@ 0x70
 8003f5a:	6102      	str	r2, [r0, #16]
 8003f5c:	6a5b      	ldr	r3, [r3, #36]	@ 0x24
 8003f5e:	f003 0370 	and.w	r3, r3, #112	@ 0x70
 8003f62:	6143      	str	r3, [r0, #20]
 8003f64:	4b03      	ldr	r3, [pc, #12]	@ (8003f74 <HAL_RCC_GetClockConfig+0x40>)
 8003f66:	681b      	ldr	r3, [r3, #0]
 8003f68:	f003 030f 	and.w	r3, r3, #15
 8003f6c:	600b      	str	r3, [r1, #0]
 8003f6e:	4770      	bx	lr
 8003f70:	46020c00 	.word	0x46020c00
 8003f74:	40022000 	.word	0x40022000

08003f78 <RCCEx_PLL3_Config>:
 8003f78:	b570      	push	{r4, r5, r6, lr}
 8003f7a:	4c32      	ldr	r4, [pc, #200]	@ (8004044 <RCCEx_PLL3_Config+0xcc>)
 8003f7c:	4605      	mov	r5, r0
 8003f7e:	6823      	ldr	r3, [r4, #0]
 8003f80:	f023 5380 	bic.w	r3, r3, #268435456	@ 0x10000000
 8003f84:	6023      	str	r3, [r4, #0]
 8003f86:	f7fd f953 	bl	8001230 <HAL_GetTick>
 8003f8a:	4606      	mov	r6, r0
 8003f8c:	6823      	ldr	r3, [r4, #0]
 8003f8e:	009a      	lsls	r2, r3, #2
 8003f90:	d44b      	bmi.n	800402a <RCCEx_PLL3_Config+0xb2>
 8003f92:	6b23      	ldr	r3, [r4, #48]	@ 0x30
 8003f94:	6829      	ldr	r1, [r5, #0]
 8003f96:	686a      	ldr	r2, [r5, #4]
 8003f98:	f423 6370 	bic.w	r3, r3, #3840	@ 0xf00
 8003f9c:	f023 0303 	bic.w	r3, r3, #3
 8003fa0:	3a01      	subs	r2, #1
 8003fa2:	430b      	orrs	r3, r1
 8003fa4:	ea43 2302 	orr.w	r3, r3, r2, lsl #8
 8003fa8:	6323      	str	r3, [r4, #48]	@ 0x30
 8003faa:	68ab      	ldr	r3, [r5, #8]
 8003fac:	6c61      	ldr	r1, [r4, #68]	@ 0x44
 8003fae:	4a26      	ldr	r2, [pc, #152]	@ (8004048 <RCCEx_PLL3_Config+0xd0>)
 8003fb0:	3b01      	subs	r3, #1
 8003fb2:	400a      	ands	r2, r1
 8003fb4:	f3c3 0308 	ubfx	r3, r3, #0, #9
 8003fb8:	4313      	orrs	r3, r2
 8003fba:	68ea      	ldr	r2, [r5, #12]
 8003fbc:	3a01      	subs	r2, #1
 8003fbe:	0252      	lsls	r2, r2, #9
 8003fc0:	b292      	uxth	r2, r2
 8003fc2:	4313      	orrs	r3, r2
 8003fc4:	692a      	ldr	r2, [r5, #16]
 8003fc6:	3a01      	subs	r2, #1
 8003fc8:	0412      	lsls	r2, r2, #16
 8003fca:	f402 02fe 	and.w	r2, r2, #8323072	@ 0x7f0000
 8003fce:	4313      	orrs	r3, r2
 8003fd0:	696a      	ldr	r2, [r5, #20]
 8003fd2:	3a01      	subs	r2, #1
 8003fd4:	0612      	lsls	r2, r2, #24
 8003fd6:	f002 42fe 	and.w	r2, r2, #2130706432	@ 0x7f000000
 8003fda:	4313      	orrs	r3, r2
 8003fdc:	6463      	str	r3, [r4, #68]	@ 0x44
 8003fde:	6b23      	ldr	r3, [r4, #48]	@ 0x30
 8003fe0:	69aa      	ldr	r2, [r5, #24]
 8003fe2:	f023 030c 	bic.w	r3, r3, #12
 8003fe6:	4313      	orrs	r3, r2
 8003fe8:	6323      	str	r3, [r4, #48]	@ 0x30
 8003fea:	6b23      	ldr	r3, [r4, #48]	@ 0x30
 8003fec:	6a2a      	ldr	r2, [r5, #32]
 8003fee:	4313      	orrs	r3, r2
 8003ff0:	6323      	str	r3, [r4, #48]	@ 0x30
 8003ff2:	6b23      	ldr	r3, [r4, #48]	@ 0x30
 8003ff4:	f023 0310 	bic.w	r3, r3, #16
 8003ff8:	6323      	str	r3, [r4, #48]	@ 0x30
 8003ffa:	6ca3      	ldr	r3, [r4, #72]	@ 0x48
 8003ffc:	69ea      	ldr	r2, [r5, #28]
 8003ffe:	f36f 03cf 	bfc	r3, #3, #13
 8004002:	ea43 03c2 	orr.w	r3, r3, r2, lsl #3
 8004006:	64a3      	str	r3, [r4, #72]	@ 0x48
 8004008:	6b23      	ldr	r3, [r4, #48]	@ 0x30
 800400a:	4d0e      	ldr	r5, [pc, #56]	@ (8004044 <RCCEx_PLL3_Config+0xcc>)
 800400c:	f043 0310 	orr.w	r3, r3, #16
 8004010:	6323      	str	r3, [r4, #48]	@ 0x30
 8004012:	6823      	ldr	r3, [r4, #0]
 8004014:	f043 5380 	orr.w	r3, r3, #268435456	@ 0x10000000
 8004018:	6023      	str	r3, [r4, #0]
 800401a:	f7fd f909 	bl	8001230 <HAL_GetTick>
 800401e:	4604      	mov	r4, r0
 8004020:	682b      	ldr	r3, [r5, #0]
 8004022:	009b      	lsls	r3, r3, #2
 8004024:	d508      	bpl.n	8004038 <RCCEx_PLL3_Config+0xc0>
 8004026:	2000      	movs	r0, #0
 8004028:	e005      	b.n	8004036 <RCCEx_PLL3_Config+0xbe>
 800402a:	f7fd f901 	bl	8001230 <HAL_GetTick>
 800402e:	1b80      	subs	r0, r0, r6
 8004030:	2802      	cmp	r0, #2
 8004032:	d9ab      	bls.n	8003f8c <RCCEx_PLL3_Config+0x14>
 8004034:	2003      	movs	r0, #3
 8004036:	bd70      	pop	{r4, r5, r6, pc}
 8004038:	f7fd f8fa 	bl	8001230 <HAL_GetTick>
 800403c:	1b00      	subs	r0, r0, r4
 800403e:	2802      	cmp	r0, #2
 8004040:	d9ee      	bls.n	8004020 <RCCEx_PLL3_Config+0xa8>
 8004042:	e7f7      	b.n	8004034 <RCCEx_PLL3_Config+0xbc>
 8004044:	46020c00 	.word	0x46020c00
 8004048:	80800000 	.word	0x80800000

0800404c <RCCEx_PLL2_Config>:
 800404c:	b570      	push	{r4, r5, r6, lr}
 800404e:	4c32      	ldr	r4, [pc, #200]	@ (8004118 <RCCEx_PLL2_Config+0xcc>)
 8004050:	4605      	mov	r5, r0
 8004052:	6823      	ldr	r3, [r4, #0]
 8004054:	f023 6380 	bic.w	r3, r3, #67108864	@ 0x4000000
 8004058:	6023      	str	r3, [r4, #0]
 800405a:	f7fd f8e9 	bl	8001230 <HAL_GetTick>
 800405e:	4606      	mov	r6, r0
 8004060:	6823      	ldr	r3, [r4, #0]
 8004062:	011a      	lsls	r2, r3, #4
 8004064:	d44b      	bmi.n	80040fe <RCCEx_PLL2_Config+0xb2>
 8004066:	6ae3      	ldr	r3, [r4, #44]	@ 0x2c
 8004068:	6829      	ldr	r1, [r5, #0]
 800406a:	686a      	ldr	r2, [r5, #4]
 800406c:	f423 6370 	bic.w	r3, r3, #3840	@ 0xf00
 8004070:	f023 0303 	bic.w	r3, r3, #3
 8004074:	3a01      	subs	r2, #1
 8004076:	430b      	orrs	r3, r1
 8004078:	ea43 2302 	orr.w	r3, r3, r2, lsl #8
 800407c:	62e3      	str	r3, [r4, #44]	@ 0x2c
 800407e:	68ab      	ldr	r3, [r5, #8]
 8004080:	6be1      	ldr	r1, [r4, #60]	@ 0x3c
 8004082:	4a26      	ldr	r2, [pc, #152]	@ (800411c <RCCEx_PLL2_Config+0xd0>)
 8004084:	3b01      	subs	r3, #1
 8004086:	400a      	ands	r2, r1
 8004088:	f3c3 0308 	ubfx	r3, r3, #0, #9
 800408c:	4313      	orrs	r3, r2
 800408e:	68ea      	ldr	r2, [r5, #12]
 8004090:	3a01      	subs	r2, #1
 8004092:	0252      	lsls	r2, r2, #9
 8004094:	b292      	uxth	r2, r2
 8004096:	4313      	orrs	r3, r2
 8004098:	692a      	ldr	r2, [r5, #16]
 800409a:	3a01      	subs	r2, #1
 800409c:	0412      	lsls	r2, r2, #16
 800409e:	f402 02fe 	and.w	r2, r2, #8323072	@ 0x7f0000
 80040a2:	4313      	orrs	r3, r2
 80040a4:	696a      	ldr	r2, [r5, #20]
 80040a6:	3a01      	subs	r2, #1
 80040a8:	0612      	lsls	r2, r2, #24
 80040aa:	f002 42fe 	and.w	r2, r2, #2130706432	@ 0x7f000000
 80040ae:	4313      	orrs	r3, r2
 80040b0:	63e3      	str	r3, [r4, #60]	@ 0x3c
 80040b2:	6ae3      	ldr	r3, [r4, #44]	@ 0x2c
 80040b4:	69aa      	ldr	r2, [r5, #24]
 80040b6:	f023 030c 	bic.w	r3, r3, #12
 80040ba:	4313      	orrs	r3, r2
 80040bc:	62e3      	str	r3, [r4, #44]	@ 0x2c
 80040be:	6ae3      	ldr	r3, [r4, #44]	@ 0x2c
 80040c0:	6a2a      	ldr	r2, [r5, #32]
 80040c2:	4313      	orrs	r3, r2
 80040c4:	62e3      	str	r3, [r4, #44]	@ 0x2c
 80040c6:	6ae3      	ldr	r3, [r4, #44]	@ 0x2c
 80040c8:	f023 0310 	bic.w	r3, r3, #16
 80040cc:	62e3      	str	r3, [r4, #44]	@ 0x2c
 80040ce:	6c23      	ldr	r3, [r4, #64]	@ 0x40
 80040d0:	69ea      	ldr	r2, [r5, #28]
 80040d2:	f36f 03cf 	bfc	r3, #3, #13
 80040d6:	ea43 03c2 	orr.w	r3, r3, r2, lsl #3
 80040da:	6423      	str	r3, [r4, #64]	@ 0x40
 80040dc:	6ae3      	ldr	r3, [r4, #44]	@ 0x2c
 80040de:	4d0e      	ldr	r5, [pc, #56]	@ (8004118 <RCCEx_PLL2_Config+0xcc>)
 80040e0:	f043 0310 	orr.w	r3, r3, #16
 80040e4:	62e3      	str	r3, [r4, #44]	@ 0x2c
 80040e6:	6823      	ldr	r3, [r4, #0]
 80040e8:	f043 6380 	orr.w	r3, r3, #67108864	@ 0x4000000
 80040ec:	6023      	str	r3, [r4, #0]
 80040ee:	f7fd f89f 	bl	8001230 <HAL_GetTick>
 80040f2:	4604      	mov	r4, r0
 80040f4:	682b      	ldr	r3, [r5, #0]
 80040f6:	011b      	lsls	r3, r3, #4
 80040f8:	d508      	bpl.n	800410c <RCCEx_PLL2_Config+0xc0>
 80040fa:	2000      	movs	r0, #0
 80040fc:	e005      	b.n	800410a <RCCEx_PLL2_Config+0xbe>
 80040fe:	f7fd f897 	bl	8001230 <HAL_GetTick>
 8004102:	1b80      	subs	r0, r0, r6
 8004104:	2802      	cmp	r0, #2
 8004106:	d9ab      	bls.n	8004060 <RCCEx_PLL2_Config+0x14>
 8004108:	2003      	movs	r0, #3
 800410a:	bd70      	pop	{r4, r5, r6, pc}
 800410c:	f7fd f890 	bl	8001230 <HAL_GetTick>
 8004110:	1b00      	subs	r0, r0, r4
 8004112:	2802      	cmp	r0, #2
 8004114:	d9ee      	bls.n	80040f4 <RCCEx_PLL2_Config+0xa8>
 8004116:	e7f7      	b.n	8004108 <RCCEx_PLL2_Config+0xbc>
 8004118:	46020c00 	.word	0x46020c00
 800411c:	80800000 	.word	0x80800000

08004120 <HAL_RCCEx_PeriphCLKConfig>:
 8004120:	6803      	ldr	r3, [r0, #0]
 8004122:	e92d 47f3 	stmdb	sp!, {r0, r1, r4, r5, r6, r7, r8, r9, sl, lr}
 8004126:	07de      	lsls	r6, r3, #31
 8004128:	4604      	mov	r4, r0
 800412a:	d508      	bpl.n	800413e <HAL_RCCEx_PeriphCLKConfig+0x1e>
 800412c:	49a6      	ldr	r1, [pc, #664]	@ (80043c8 <HAL_RCCEx_PeriphCLKConfig+0x2a8>)
 800412e:	6d00      	ldr	r0, [r0, #80]	@ 0x50
 8004130:	f8d1 20e0 	ldr.w	r2, [r1, #224]	@ 0xe0
 8004134:	f022 0203 	bic.w	r2, r2, #3
 8004138:	4302      	orrs	r2, r0
 800413a:	f8c1 20e0 	str.w	r2, [r1, #224]	@ 0xe0
 800413e:	079d      	lsls	r5, r3, #30
 8004140:	d508      	bpl.n	8004154 <HAL_RCCEx_PeriphCLKConfig+0x34>
 8004142:	49a1      	ldr	r1, [pc, #644]	@ (80043c8 <HAL_RCCEx_PeriphCLKConfig+0x2a8>)
 8004144:	6d60      	ldr	r0, [r4, #84]	@ 0x54
 8004146:	f8d1 20e0 	ldr.w	r2, [r1, #224]	@ 0xe0
 800414a:	f022 020c 	bic.w	r2, r2, #12
 800414e:	4302      	orrs	r2, r0
 8004150:	f8c1 20e0 	str.w	r2, [r1, #224]	@ 0xe0
 8004154:	0758      	lsls	r0, r3, #29
 8004156:	d508      	bpl.n	800416a <HAL_RCCEx_PeriphCLKConfig+0x4a>
 8004158:	499b      	ldr	r1, [pc, #620]	@ (80043c8 <HAL_RCCEx_PeriphCLKConfig+0x2a8>)
 800415a:	6da0      	ldr	r0, [r4, #88]	@ 0x58
 800415c:	f8d1 20e0 	ldr.w	r2, [r1, #224]	@ 0xe0
 8004160:	f022 0230 	bic.w	r2, r2, #48	@ 0x30
 8004164:	4302      	orrs	r2, r0
 8004166:	f8c1 20e0 	str.w	r2, [r1, #224]	@ 0xe0
 800416a:	0719      	lsls	r1, r3, #28
 800416c:	d508      	bpl.n	8004180 <HAL_RCCEx_PeriphCLKConfig+0x60>
 800416e:	4996      	ldr	r1, [pc, #600]	@ (80043c8 <HAL_RCCEx_PeriphCLKConfig+0x2a8>)
 8004170:	6de0      	ldr	r0, [r4, #92]	@ 0x5c
 8004172:	f8d1 20e0 	ldr.w	r2, [r1, #224]	@ 0xe0
 8004176:	f022 02c0 	bic.w	r2, r2, #192	@ 0xc0
 800417a:	4302      	orrs	r2, r0
 800417c:	f8c1 20e0 	str.w	r2, [r1, #224]	@ 0xe0
 8004180:	06da      	lsls	r2, r3, #27
 8004182:	d508      	bpl.n	8004196 <HAL_RCCEx_PeriphCLKConfig+0x76>
 8004184:	4990      	ldr	r1, [pc, #576]	@ (80043c8 <HAL_RCCEx_PeriphCLKConfig+0x2a8>)
 8004186:	6e20      	ldr	r0, [r4, #96]	@ 0x60
 8004188:	f8d1 20e0 	ldr.w	r2, [r1, #224]	@ 0xe0
 800418c:	f422 7240 	bic.w	r2, r2, #768	@ 0x300
 8004190:	4302      	orrs	r2, r0
 8004192:	f8c1 20e0 	str.w	r2, [r1, #224]	@ 0xe0
 8004196:	069f      	lsls	r7, r3, #26
 8004198:	d508      	bpl.n	80041ac <HAL_RCCEx_PeriphCLKConfig+0x8c>
 800419a:	498b      	ldr	r1, [pc, #556]	@ (80043c8 <HAL_RCCEx_PeriphCLKConfig+0x2a8>)
 800419c:	6e60      	ldr	r0, [r4, #100]	@ 0x64
 800419e:	f8d1 20e8 	ldr.w	r2, [r1, #232]	@ 0xe8
 80041a2:	f022 0207 	bic.w	r2, r2, #7
 80041a6:	4302      	orrs	r2, r0
 80041a8:	f8c1 20e8 	str.w	r2, [r1, #232]	@ 0xe8
 80041ac:	065e      	lsls	r6, r3, #25
 80041ae:	d508      	bpl.n	80041c2 <HAL_RCCEx_PeriphCLKConfig+0xa2>
 80041b0:	4985      	ldr	r1, [pc, #532]	@ (80043c8 <HAL_RCCEx_PeriphCLKConfig+0x2a8>)
 80041b2:	6ea0      	ldr	r0, [r4, #104]	@ 0x68
 80041b4:	f8d1 20e0 	ldr.w	r2, [r1, #224]	@ 0xe0
 80041b8:	f422 6240 	bic.w	r2, r2, #3072	@ 0xc00
 80041bc:	4302      	orrs	r2, r0
 80041be:	f8c1 20e0 	str.w	r2, [r1, #224]	@ 0xe0
 80041c2:	061d      	lsls	r5, r3, #24
 80041c4:	d508      	bpl.n	80041d8 <HAL_RCCEx_PeriphCLKConfig+0xb8>
 80041c6:	4980      	ldr	r1, [pc, #512]	@ (80043c8 <HAL_RCCEx_PeriphCLKConfig+0x2a8>)
 80041c8:	6ee0      	ldr	r0, [r4, #108]	@ 0x6c
 80041ca:	f8d1 20e0 	ldr.w	r2, [r1, #224]	@ 0xe0
 80041ce:	f422 5240 	bic.w	r2, r2, #12288	@ 0x3000
 80041d2:	4302      	orrs	r2, r0
 80041d4:	f8c1 20e0 	str.w	r2, [r1, #224]	@ 0xe0
 80041d8:	05d8      	lsls	r0, r3, #23
 80041da:	d508      	bpl.n	80041ee <HAL_RCCEx_PeriphCLKConfig+0xce>
 80041dc:	497a      	ldr	r1, [pc, #488]	@ (80043c8 <HAL_RCCEx_PeriphCLKConfig+0x2a8>)
 80041de:	6f20      	ldr	r0, [r4, #112]	@ 0x70
 80041e0:	f8d1 20e8 	ldr.w	r2, [r1, #232]	@ 0xe8
 80041e4:	f022 02c0 	bic.w	r2, r2, #192	@ 0xc0
 80041e8:	4302      	orrs	r2, r0
 80041ea:	f8c1 20e8 	str.w	r2, [r1, #232]	@ 0xe8
 80041ee:	0259      	lsls	r1, r3, #9
 80041f0:	d508      	bpl.n	8004204 <HAL_RCCEx_PeriphCLKConfig+0xe4>
 80041f2:	4975      	ldr	r1, [pc, #468]	@ (80043c8 <HAL_RCCEx_PeriphCLKConfig+0x2a8>)
 80041f4:	6f60      	ldr	r0, [r4, #116]	@ 0x74
 80041f6:	f8d1 20e0 	ldr.w	r2, [r1, #224]	@ 0xe0
 80041fa:	f422 4240 	bic.w	r2, r2, #49152	@ 0xc000
 80041fe:	4302      	orrs	r2, r0
 8004200:	f8c1 20e0 	str.w	r2, [r1, #224]	@ 0xe0
 8004204:	059a      	lsls	r2, r3, #22
 8004206:	d508      	bpl.n	800421a <HAL_RCCEx_PeriphCLKConfig+0xfa>
 8004208:	496f      	ldr	r1, [pc, #444]	@ (80043c8 <HAL_RCCEx_PeriphCLKConfig+0x2a8>)
 800420a:	6fa0      	ldr	r0, [r4, #120]	@ 0x78
 800420c:	f8d1 20e8 	ldr.w	r2, [r1, #232]	@ 0xe8
 8004210:	f422 6240 	bic.w	r2, r2, #3072	@ 0xc00
 8004214:	4302      	orrs	r2, r0
 8004216:	f8c1 20e8 	str.w	r2, [r1, #232]	@ 0xe8
 800421a:	055f      	lsls	r7, r3, #21
 800421c:	d508      	bpl.n	8004230 <HAL_RCCEx_PeriphCLKConfig+0x110>
 800421e:	496a      	ldr	r1, [pc, #424]	@ (80043c8 <HAL_RCCEx_PeriphCLKConfig+0x2a8>)
 8004220:	6fe0      	ldr	r0, [r4, #124]	@ 0x7c
 8004222:	f8d1 20e0 	ldr.w	r2, [r1, #224]	@ 0xe0
 8004226:	f422 2240 	bic.w	r2, r2, #786432	@ 0xc0000
 800422a:	4302      	orrs	r2, r0
 800422c:	f8c1 20e0 	str.w	r2, [r1, #224]	@ 0xe0
 8004230:	051e      	lsls	r6, r3, #20
 8004232:	d509      	bpl.n	8004248 <HAL_RCCEx_PeriphCLKConfig+0x128>
 8004234:	4964      	ldr	r1, [pc, #400]	@ (80043c8 <HAL_RCCEx_PeriphCLKConfig+0x2a8>)
 8004236:	f8d4 0080 	ldr.w	r0, [r4, #128]	@ 0x80
 800423a:	f8d1 20e8 	ldr.w	r2, [r1, #232]	@ 0xe8
 800423e:	f422 7240 	bic.w	r2, r2, #768	@ 0x300
 8004242:	4302      	orrs	r2, r0
 8004244:	f8c1 20e8 	str.w	r2, [r1, #232]	@ 0xe8
 8004248:	049d      	lsls	r5, r3, #18
 800424a:	d527      	bpl.n	800429c <HAL_RCCEx_PeriphCLKConfig+0x17c>
 800424c:	f8d4 3090 	ldr.w	r3, [r4, #144]	@ 0x90
 8004250:	2b40      	cmp	r3, #64	@ 0x40
 8004252:	d025      	beq.n	80042a0 <HAL_RCCEx_PeriphCLKConfig+0x180>
 8004254:	d814      	bhi.n	8004280 <HAL_RCCEx_PeriphCLKConfig+0x160>
 8004256:	b34b      	cbz	r3, 80042ac <HAL_RCCEx_PeriphCLKConfig+0x18c>
 8004258:	2b20      	cmp	r3, #32
 800425a:	d02f      	beq.n	80042bc <HAL_RCCEx_PeriphCLKConfig+0x19c>
 800425c:	2601      	movs	r6, #1
 800425e:	6823      	ldr	r3, [r4, #0]
 8004260:	0458      	lsls	r0, r3, #17
 8004262:	d50b      	bpl.n	800427c <HAL_RCCEx_PeriphCLKConfig+0x15c>
 8004264:	f8d4 3094 	ldr.w	r3, [r4, #148]	@ 0x94
 8004268:	f5b3 7f00 	cmp.w	r3, #512	@ 0x200
 800426c:	d058      	beq.n	8004320 <HAL_RCCEx_PeriphCLKConfig+0x200>
 800426e:	d82a      	bhi.n	80042c6 <HAL_RCCEx_PeriphCLKConfig+0x1a6>
 8004270:	2b00      	cmp	r3, #0
 8004272:	d05b      	beq.n	800432c <HAL_RCCEx_PeriphCLKConfig+0x20c>
 8004274:	f5b3 7f80 	cmp.w	r3, #256	@ 0x100
 8004278:	d05e      	beq.n	8004338 <HAL_RCCEx_PeriphCLKConfig+0x218>
 800427a:	2601      	movs	r6, #1
 800427c:	4635      	mov	r5, r6
 800427e:	e035      	b.n	80042ec <HAL_RCCEx_PeriphCLKConfig+0x1cc>
 8004280:	2b60      	cmp	r3, #96	@ 0x60
 8004282:	d001      	beq.n	8004288 <HAL_RCCEx_PeriphCLKConfig+0x168>
 8004284:	2b80      	cmp	r3, #128	@ 0x80
 8004286:	d1e9      	bne.n	800425c <HAL_RCCEx_PeriphCLKConfig+0x13c>
 8004288:	4a4f      	ldr	r2, [pc, #316]	@ (80043c8 <HAL_RCCEx_PeriphCLKConfig+0x2a8>)
 800428a:	f8d4 1090 	ldr.w	r1, [r4, #144]	@ 0x90
 800428e:	f8d2 30e4 	ldr.w	r3, [r2, #228]	@ 0xe4
 8004292:	f023 03e0 	bic.w	r3, r3, #224	@ 0xe0
 8004296:	430b      	orrs	r3, r1
 8004298:	f8c2 30e4 	str.w	r3, [r2, #228]	@ 0xe4
 800429c:	2600      	movs	r6, #0
 800429e:	e7de      	b.n	800425e <HAL_RCCEx_PeriphCLKConfig+0x13e>
 80042a0:	4a49      	ldr	r2, [pc, #292]	@ (80043c8 <HAL_RCCEx_PeriphCLKConfig+0x2a8>)
 80042a2:	6a93      	ldr	r3, [r2, #40]	@ 0x28
 80042a4:	f443 3380 	orr.w	r3, r3, #65536	@ 0x10000
 80042a8:	6293      	str	r3, [r2, #40]	@ 0x28
 80042aa:	e7ed      	b.n	8004288 <HAL_RCCEx_PeriphCLKConfig+0x168>
 80042ac:	f104 0008 	add.w	r0, r4, #8
 80042b0:	f7ff fecc 	bl	800404c <RCCEx_PLL2_Config>
 80042b4:	4606      	mov	r6, r0
 80042b6:	2800      	cmp	r0, #0
 80042b8:	d1d1      	bne.n	800425e <HAL_RCCEx_PeriphCLKConfig+0x13e>
 80042ba:	e7e5      	b.n	8004288 <HAL_RCCEx_PeriphCLKConfig+0x168>
 80042bc:	f104 002c 	add.w	r0, r4, #44	@ 0x2c
 80042c0:	f7ff fe5a 	bl	8003f78 <RCCEx_PLL3_Config>
 80042c4:	e7f6      	b.n	80042b4 <HAL_RCCEx_PeriphCLKConfig+0x194>
 80042c6:	f5b3 7f40 	cmp.w	r3, #768	@ 0x300
 80042ca:	d002      	beq.n	80042d2 <HAL_RCCEx_PeriphCLKConfig+0x1b2>
 80042cc:	f5b3 6f80 	cmp.w	r3, #1024	@ 0x400
 80042d0:	d1d3      	bne.n	800427a <HAL_RCCEx_PeriphCLKConfig+0x15a>
 80042d2:	4635      	mov	r5, r6
 80042d4:	2d00      	cmp	r5, #0
 80042d6:	d134      	bne.n	8004342 <HAL_RCCEx_PeriphCLKConfig+0x222>
 80042d8:	4a3b      	ldr	r2, [pc, #236]	@ (80043c8 <HAL_RCCEx_PeriphCLKConfig+0x2a8>)
 80042da:	f8d4 1094 	ldr.w	r1, [r4, #148]	@ 0x94
 80042de:	f8d2 30e4 	ldr.w	r3, [r2, #228]	@ 0xe4
 80042e2:	f423 63e0 	bic.w	r3, r3, #1792	@ 0x700
 80042e6:	430b      	orrs	r3, r1
 80042e8:	f8c2 30e4 	str.w	r3, [r2, #228]	@ 0xe4
 80042ec:	6823      	ldr	r3, [r4, #0]
 80042ee:	0419      	lsls	r1, r3, #16
 80042f0:	d50a      	bpl.n	8004308 <HAL_RCCEx_PeriphCLKConfig+0x1e8>
 80042f2:	f8d4 30a4 	ldr.w	r3, [r4, #164]	@ 0xa4
 80042f6:	f5b3 5f00 	cmp.w	r3, #8192	@ 0x2000
 80042fa:	d036      	beq.n	800436a <HAL_RCCEx_PeriphCLKConfig+0x24a>
 80042fc:	f423 5280 	bic.w	r2, r3, #4096	@ 0x1000
 8004300:	d821      	bhi.n	8004346 <HAL_RCCEx_PeriphCLKConfig+0x226>
 8004302:	b332      	cbz	r2, 8004352 <HAL_RCCEx_PeriphCLKConfig+0x232>
 8004304:	2601      	movs	r6, #1
 8004306:	4635      	mov	r5, r6
 8004308:	6823      	ldr	r3, [r4, #0]
 800430a:	03da      	lsls	r2, r3, #15
 800430c:	d545      	bpl.n	800439a <HAL_RCCEx_PeriphCLKConfig+0x27a>
 800430e:	f8d4 3088 	ldr.w	r3, [r4, #136]	@ 0x88
 8004312:	2b04      	cmp	r3, #4
 8004314:	d85a      	bhi.n	80043cc <HAL_RCCEx_PeriphCLKConfig+0x2ac>
 8004316:	e8df f003 	tbb	[pc, r3]
 800431a:	3035      	.short	0x3035
 800431c:	3550      	.short	0x3550
 800431e:	35          	.byte	0x35
 800431f:	00          	.byte	0x00
 8004320:	4a29      	ldr	r2, [pc, #164]	@ (80043c8 <HAL_RCCEx_PeriphCLKConfig+0x2a8>)
 8004322:	6a93      	ldr	r3, [r2, #40]	@ 0x28
 8004324:	f443 3380 	orr.w	r3, r3, #65536	@ 0x10000
 8004328:	6293      	str	r3, [r2, #40]	@ 0x28
 800432a:	e7d2      	b.n	80042d2 <HAL_RCCEx_PeriphCLKConfig+0x1b2>
 800432c:	f104 0008 	add.w	r0, r4, #8
 8004330:	f7ff fe8c 	bl	800404c <RCCEx_PLL2_Config>
 8004334:	4605      	mov	r5, r0
 8004336:	e7cd      	b.n	80042d4 <HAL_RCCEx_PeriphCLKConfig+0x1b4>
 8004338:	f104 002c 	add.w	r0, r4, #44	@ 0x2c
 800433c:	f7ff fe1c 	bl	8003f78 <RCCEx_PLL3_Config>
 8004340:	e7f8      	b.n	8004334 <HAL_RCCEx_PeriphCLKConfig+0x214>
 8004342:	462e      	mov	r6, r5
 8004344:	e7d2      	b.n	80042ec <HAL_RCCEx_PeriphCLKConfig+0x1cc>
 8004346:	f5b2 4f80 	cmp.w	r2, #16384	@ 0x4000
 800434a:	d002      	beq.n	8004352 <HAL_RCCEx_PeriphCLKConfig+0x232>
 800434c:	f5b3 5f40 	cmp.w	r3, #12288	@ 0x3000
 8004350:	d1d8      	bne.n	8004304 <HAL_RCCEx_PeriphCLKConfig+0x1e4>
 8004352:	b985      	cbnz	r5, 8004376 <HAL_RCCEx_PeriphCLKConfig+0x256>
 8004354:	4a1c      	ldr	r2, [pc, #112]	@ (80043c8 <HAL_RCCEx_PeriphCLKConfig+0x2a8>)
 8004356:	f8d4 10a4 	ldr.w	r1, [r4, #164]	@ 0xa4
 800435a:	f8d2 30e8 	ldr.w	r3, [r2, #232]	@ 0xe8
 800435e:	f423 43e0 	bic.w	r3, r3, #28672	@ 0x7000
 8004362:	430b      	orrs	r3, r1
 8004364:	f8c2 30e8 	str.w	r3, [r2, #232]	@ 0xe8
 8004368:	e7ce      	b.n	8004308 <HAL_RCCEx_PeriphCLKConfig+0x1e8>
 800436a:	f104 0008 	add.w	r0, r4, #8
 800436e:	f7ff fe6d 	bl	800404c <RCCEx_PLL2_Config>
 8004372:	4605      	mov	r5, r0
 8004374:	e7ed      	b.n	8004352 <HAL_RCCEx_PeriphCLKConfig+0x232>
 8004376:	462e      	mov	r6, r5
 8004378:	e7c6      	b.n	8004308 <HAL_RCCEx_PeriphCLKConfig+0x1e8>
 800437a:	4a13      	ldr	r2, [pc, #76]	@ (80043c8 <HAL_RCCEx_PeriphCLKConfig+0x2a8>)
 800437c:	6a93      	ldr	r3, [r2, #40]	@ 0x28
 800437e:	f443 3380 	orr.w	r3, r3, #65536	@ 0x10000
 8004382:	6293      	str	r3, [r2, #40]	@ 0x28
 8004384:	bb2d      	cbnz	r5, 80043d2 <HAL_RCCEx_PeriphCLKConfig+0x2b2>
 8004386:	4a10      	ldr	r2, [pc, #64]	@ (80043c8 <HAL_RCCEx_PeriphCLKConfig+0x2a8>)
 8004388:	f8d4 1088 	ldr.w	r1, [r4, #136]	@ 0x88
 800438c:	f8d2 30e4 	ldr.w	r3, [r2, #228]	@ 0xe4
 8004390:	f023 0307 	bic.w	r3, r3, #7
 8004394:	430b      	orrs	r3, r1
 8004396:	f8c2 30e4 	str.w	r3, [r2, #228]	@ 0xe4
 800439a:	6823      	ldr	r3, [r4, #0]
 800439c:	039b      	lsls	r3, r3, #14
 800439e:	d52c      	bpl.n	80043fa <HAL_RCCEx_PeriphCLKConfig+0x2da>
 80043a0:	f8d4 308c 	ldr.w	r3, [r4, #140]	@ 0x8c
 80043a4:	f5b3 3f00 	cmp.w	r3, #131072	@ 0x20000
 80043a8:	d07f      	beq.n	80044aa <HAL_RCCEx_PeriphCLKConfig+0x38a>
 80043aa:	d814      	bhi.n	80043d6 <HAL_RCCEx_PeriphCLKConfig+0x2b6>
 80043ac:	b1cb      	cbz	r3, 80043e2 <HAL_RCCEx_PeriphCLKConfig+0x2c2>
 80043ae:	f5b3 3f80 	cmp.w	r3, #65536	@ 0x10000
 80043b2:	d074      	beq.n	800449e <HAL_RCCEx_PeriphCLKConfig+0x37e>
 80043b4:	2601      	movs	r6, #1
 80043b6:	4635      	mov	r5, r6
 80043b8:	e01f      	b.n	80043fa <HAL_RCCEx_PeriphCLKConfig+0x2da>
 80043ba:	f104 002c 	add.w	r0, r4, #44	@ 0x2c
 80043be:	f7ff fddb 	bl	8003f78 <RCCEx_PLL3_Config>
 80043c2:	4605      	mov	r5, r0
 80043c4:	e7de      	b.n	8004384 <HAL_RCCEx_PeriphCLKConfig+0x264>
 80043c6:	bf00      	nop
 80043c8:	46020c00 	.word	0x46020c00
 80043cc:	2601      	movs	r6, #1
 80043ce:	4635      	mov	r5, r6
 80043d0:	e7e3      	b.n	800439a <HAL_RCCEx_PeriphCLKConfig+0x27a>
 80043d2:	462e      	mov	r6, r5
 80043d4:	e7e1      	b.n	800439a <HAL_RCCEx_PeriphCLKConfig+0x27a>
 80043d6:	f5b3 3f40 	cmp.w	r3, #196608	@ 0x30000
 80043da:	d002      	beq.n	80043e2 <HAL_RCCEx_PeriphCLKConfig+0x2c2>
 80043dc:	f5b3 2f80 	cmp.w	r3, #262144	@ 0x40000
 80043e0:	d1e8      	bne.n	80043b4 <HAL_RCCEx_PeriphCLKConfig+0x294>
 80043e2:	2d00      	cmp	r5, #0
 80043e4:	d167      	bne.n	80044b6 <HAL_RCCEx_PeriphCLKConfig+0x396>
 80043e6:	4ab4      	ldr	r2, [pc, #720]	@ (80046b8 <HAL_RCCEx_PeriphCLKConfig+0x598>)
 80043e8:	f8d4 108c 	ldr.w	r1, [r4, #140]	@ 0x8c
 80043ec:	f8d2 30e8 	ldr.w	r3, [r2, #232]	@ 0xe8
 80043f0:	f423 23e0 	bic.w	r3, r3, #458752	@ 0x70000
 80043f4:	430b      	orrs	r3, r1
 80043f6:	f8c2 30e8 	str.w	r3, [r2, #232]	@ 0xe8
 80043fa:	6823      	ldr	r3, [r4, #0]
 80043fc:	035f      	lsls	r7, r3, #13
 80043fe:	d53b      	bpl.n	8004478 <HAL_RCCEx_PeriphCLKConfig+0x358>
 8004400:	4bad      	ldr	r3, [pc, #692]	@ (80046b8 <HAL_RCCEx_PeriphCLKConfig+0x598>)
 8004402:	f8d3 2094 	ldr.w	r2, [r3, #148]	@ 0x94
 8004406:	0750      	lsls	r0, r2, #29
 8004408:	d457      	bmi.n	80044ba <HAL_RCCEx_PeriphCLKConfig+0x39a>
 800440a:	f04f 0801 	mov.w	r8, #1
 800440e:	f8d3 2094 	ldr.w	r2, [r3, #148]	@ 0x94
 8004412:	f042 0204 	orr.w	r2, r2, #4
 8004416:	f8c3 2094 	str.w	r2, [r3, #148]	@ 0x94
 800441a:	f8d3 3094 	ldr.w	r3, [r3, #148]	@ 0x94
 800441e:	f003 0304 	and.w	r3, r3, #4
 8004422:	9301      	str	r3, [sp, #4]
 8004424:	9b01      	ldr	r3, [sp, #4]
 8004426:	4fa5      	ldr	r7, [pc, #660]	@ (80046bc <HAL_RCCEx_PeriphCLKConfig+0x59c>)
 8004428:	6abb      	ldr	r3, [r7, #40]	@ 0x28
 800442a:	f043 0301 	orr.w	r3, r3, #1
 800442e:	62bb      	str	r3, [r7, #40]	@ 0x28
 8004430:	f7fc fefe 	bl	8001230 <HAL_GetTick>
 8004434:	4681      	mov	r9, r0
 8004436:	6abb      	ldr	r3, [r7, #40]	@ 0x28
 8004438:	07d9      	lsls	r1, r3, #31
 800443a:	d541      	bpl.n	80044c0 <HAL_RCCEx_PeriphCLKConfig+0x3a0>
 800443c:	2d00      	cmp	r5, #0
 800443e:	d16e      	bne.n	800451e <HAL_RCCEx_PeriphCLKConfig+0x3fe>
 8004440:	4f9d      	ldr	r7, [pc, #628]	@ (80046b8 <HAL_RCCEx_PeriphCLKConfig+0x598>)
 8004442:	f8d4 20bc 	ldr.w	r2, [r4, #188]	@ 0xbc
 8004446:	f8d7 30f0 	ldr.w	r3, [r7, #240]	@ 0xf0
 800444a:	f413 7340 	ands.w	r3, r3, #768	@ 0x300
 800444e:	d140      	bne.n	80044d2 <HAL_RCCEx_PeriphCLKConfig+0x3b2>
 8004450:	4a99      	ldr	r2, [pc, #612]	@ (80046b8 <HAL_RCCEx_PeriphCLKConfig+0x598>)
 8004452:	f8d4 10bc 	ldr.w	r1, [r4, #188]	@ 0xbc
 8004456:	f8d2 30f0 	ldr.w	r3, [r2, #240]	@ 0xf0
 800445a:	f423 7340 	bic.w	r3, r3, #768	@ 0x300
 800445e:	430b      	orrs	r3, r1
 8004460:	f8c2 30f0 	str.w	r3, [r2, #240]	@ 0xf0
 8004464:	f1b8 0f00 	cmp.w	r8, #0
 8004468:	d006      	beq.n	8004478 <HAL_RCCEx_PeriphCLKConfig+0x358>
 800446a:	4a93      	ldr	r2, [pc, #588]	@ (80046b8 <HAL_RCCEx_PeriphCLKConfig+0x598>)
 800446c:	f8d2 3094 	ldr.w	r3, [r2, #148]	@ 0x94
 8004470:	f023 0304 	bic.w	r3, r3, #4
 8004474:	f8c2 3094 	str.w	r3, [r2, #148]	@ 0x94
 8004478:	6823      	ldr	r3, [r4, #0]
 800447a:	02df      	lsls	r7, r3, #11
 800447c:	d561      	bpl.n	8004542 <HAL_RCCEx_PeriphCLKConfig+0x422>
 800447e:	f8d4 309c 	ldr.w	r3, [r4, #156]	@ 0x9c
 8004482:	f1b3 6f00 	cmp.w	r3, #134217728	@ 0x8000000
 8004486:	f000 80e6 	beq.w	8004656 <HAL_RCCEx_PeriphCLKConfig+0x536>
 800448a:	d84a      	bhi.n	8004522 <HAL_RCCEx_PeriphCLKConfig+0x402>
 800448c:	2b00      	cmp	r3, #0
 800448e:	d04b      	beq.n	8004528 <HAL_RCCEx_PeriphCLKConfig+0x408>
 8004490:	f1b3 6f80 	cmp.w	r3, #67108864	@ 0x4000000
 8004494:	f000 80d9 	beq.w	800464a <HAL_RCCEx_PeriphCLKConfig+0x52a>
 8004498:	2601      	movs	r6, #1
 800449a:	4635      	mov	r5, r6
 800449c:	e051      	b.n	8004542 <HAL_RCCEx_PeriphCLKConfig+0x422>
 800449e:	4a86      	ldr	r2, [pc, #536]	@ (80046b8 <HAL_RCCEx_PeriphCLKConfig+0x598>)
 80044a0:	6a93      	ldr	r3, [r2, #40]	@ 0x28
 80044a2:	f443 3380 	orr.w	r3, r3, #65536	@ 0x10000
 80044a6:	6293      	str	r3, [r2, #40]	@ 0x28
 80044a8:	e79b      	b.n	80043e2 <HAL_RCCEx_PeriphCLKConfig+0x2c2>
 80044aa:	f104 002c 	add.w	r0, r4, #44	@ 0x2c
 80044ae:	f7ff fd63 	bl	8003f78 <RCCEx_PLL3_Config>
 80044b2:	4605      	mov	r5, r0
 80044b4:	e795      	b.n	80043e2 <HAL_RCCEx_PeriphCLKConfig+0x2c2>
 80044b6:	462e      	mov	r6, r5
 80044b8:	e79f      	b.n	80043fa <HAL_RCCEx_PeriphCLKConfig+0x2da>
 80044ba:	f04f 0800 	mov.w	r8, #0
 80044be:	e7b2      	b.n	8004426 <HAL_RCCEx_PeriphCLKConfig+0x306>
 80044c0:	f7fc feb6 	bl	8001230 <HAL_GetTick>
 80044c4:	eba0 0009 	sub.w	r0, r0, r9
 80044c8:	2802      	cmp	r0, #2
 80044ca:	d9b4      	bls.n	8004436 <HAL_RCCEx_PeriphCLKConfig+0x316>
 80044cc:	2603      	movs	r6, #3
 80044ce:	4635      	mov	r5, r6
 80044d0:	e7c8      	b.n	8004464 <HAL_RCCEx_PeriphCLKConfig+0x344>
 80044d2:	4293      	cmp	r3, r2
 80044d4:	d0bc      	beq.n	8004450 <HAL_RCCEx_PeriphCLKConfig+0x330>
 80044d6:	f8d7 20f0 	ldr.w	r2, [r7, #240]	@ 0xf0
 80044da:	f8d7 30f0 	ldr.w	r3, [r7, #240]	@ 0xf0
 80044de:	f422 7140 	bic.w	r1, r2, #768	@ 0x300
 80044e2:	f443 3380 	orr.w	r3, r3, #65536	@ 0x10000
 80044e6:	f8c7 30f0 	str.w	r3, [r7, #240]	@ 0xf0
 80044ea:	f8d7 30f0 	ldr.w	r3, [r7, #240]	@ 0xf0
 80044ee:	07d2      	lsls	r2, r2, #31
 80044f0:	f423 3380 	bic.w	r3, r3, #65536	@ 0x10000
 80044f4:	f8c7 30f0 	str.w	r3, [r7, #240]	@ 0xf0
 80044f8:	f8c7 10f0 	str.w	r1, [r7, #240]	@ 0xf0
 80044fc:	d5a8      	bpl.n	8004450 <HAL_RCCEx_PeriphCLKConfig+0x330>
 80044fe:	f7fc fe97 	bl	8001230 <HAL_GetTick>
 8004502:	f241 3a88 	movw	sl, #5000	@ 0x1388
 8004506:	4681      	mov	r9, r0
 8004508:	f8d7 30f0 	ldr.w	r3, [r7, #240]	@ 0xf0
 800450c:	079b      	lsls	r3, r3, #30
 800450e:	d49f      	bmi.n	8004450 <HAL_RCCEx_PeriphCLKConfig+0x330>
 8004510:	f7fc fe8e 	bl	8001230 <HAL_GetTick>
 8004514:	eba0 0009 	sub.w	r0, r0, r9
 8004518:	4550      	cmp	r0, sl
 800451a:	d9f5      	bls.n	8004508 <HAL_RCCEx_PeriphCLKConfig+0x3e8>
 800451c:	e7d6      	b.n	80044cc <HAL_RCCEx_PeriphCLKConfig+0x3ac>
 800451e:	462e      	mov	r6, r5
 8004520:	e7a0      	b.n	8004464 <HAL_RCCEx_PeriphCLKConfig+0x344>
 8004522:	f1b3 6f40 	cmp.w	r3, #201326592	@ 0xc000000
 8004526:	d1b7      	bne.n	8004498 <HAL_RCCEx_PeriphCLKConfig+0x378>
 8004528:	2d00      	cmp	r5, #0
 800452a:	f040 809a 	bne.w	8004662 <HAL_RCCEx_PeriphCLKConfig+0x542>
 800452e:	4a62      	ldr	r2, [pc, #392]	@ (80046b8 <HAL_RCCEx_PeriphCLKConfig+0x598>)
 8004530:	f8d4 109c 	ldr.w	r1, [r4, #156]	@ 0x9c
 8004534:	f8d2 30e0 	ldr.w	r3, [r2, #224]	@ 0xe0
 8004538:	f023 6340 	bic.w	r3, r3, #201326592	@ 0xc000000
 800453c:	430b      	orrs	r3, r1
 800453e:	f8c2 30e0 	str.w	r3, [r2, #224]	@ 0xe0
 8004542:	6823      	ldr	r3, [r4, #0]
 8004544:	0318      	lsls	r0, r3, #12
 8004546:	d513      	bpl.n	8004570 <HAL_RCCEx_PeriphCLKConfig+0x450>
 8004548:	f8d4 1098 	ldr.w	r1, [r4, #152]	@ 0x98
 800454c:	f431 5280 	bics.w	r2, r1, #4096	@ 0x1000
 8004550:	d003      	beq.n	800455a <HAL_RCCEx_PeriphCLKConfig+0x43a>
 8004552:	f5b1 5f00 	cmp.w	r1, #8192	@ 0x2000
 8004556:	f040 8086 	bne.w	8004666 <HAL_RCCEx_PeriphCLKConfig+0x546>
 800455a:	2d00      	cmp	r5, #0
 800455c:	f040 8086 	bne.w	800466c <HAL_RCCEx_PeriphCLKConfig+0x54c>
 8004560:	4855      	ldr	r0, [pc, #340]	@ (80046b8 <HAL_RCCEx_PeriphCLKConfig+0x598>)
 8004562:	f8d0 20e4 	ldr.w	r2, [r0, #228]	@ 0xe4
 8004566:	f422 5240 	bic.w	r2, r2, #12288	@ 0x3000
 800456a:	430a      	orrs	r2, r1
 800456c:	f8c0 20e4 	str.w	r2, [r0, #228]	@ 0xe4
 8004570:	0299      	lsls	r1, r3, #10
 8004572:	d510      	bpl.n	8004596 <HAL_RCCEx_PeriphCLKConfig+0x476>
 8004574:	f8d4 00a0 	ldr.w	r0, [r4, #160]	@ 0xa0
 8004578:	494f      	ldr	r1, [pc, #316]	@ (80046b8 <HAL_RCCEx_PeriphCLKConfig+0x598>)
 800457a:	f5b0 4f80 	cmp.w	r0, #16384	@ 0x4000
 800457e:	bf02      	ittt	eq
 8004580:	6a8a      	ldreq	r2, [r1, #40]	@ 0x28
 8004582:	f442 3280 	orreq.w	r2, r2, #65536	@ 0x10000
 8004586:	628a      	streq	r2, [r1, #40]	@ 0x28
 8004588:	f8d1 20e4 	ldr.w	r2, [r1, #228]	@ 0xe4
 800458c:	f422 4280 	bic.w	r2, r2, #16384	@ 0x4000
 8004590:	4302      	orrs	r2, r0
 8004592:	f8c1 20e4 	str.w	r2, [r1, #228]	@ 0xe4
 8004596:	021a      	lsls	r2, r3, #8
 8004598:	d509      	bpl.n	80045ae <HAL_RCCEx_PeriphCLKConfig+0x48e>
 800459a:	4947      	ldr	r1, [pc, #284]	@ (80046b8 <HAL_RCCEx_PeriphCLKConfig+0x598>)
 800459c:	f8d4 00b0 	ldr.w	r0, [r4, #176]	@ 0xb0
 80045a0:	f8d1 20e0 	ldr.w	r2, [r1, #224]	@ 0xe0
 80045a4:	f422 1240 	bic.w	r2, r2, #3145728	@ 0x300000
 80045a8:	4302      	orrs	r2, r0
 80045aa:	f8c1 20e0 	str.w	r2, [r1, #224]	@ 0xe0
 80045ae:	01df      	lsls	r7, r3, #7
 80045b0:	d509      	bpl.n	80045c6 <HAL_RCCEx_PeriphCLKConfig+0x4a6>
 80045b2:	4941      	ldr	r1, [pc, #260]	@ (80046b8 <HAL_RCCEx_PeriphCLKConfig+0x598>)
 80045b4:	f8d4 00b4 	ldr.w	r0, [r4, #180]	@ 0xb4
 80045b8:	f8d1 20e0 	ldr.w	r2, [r1, #224]	@ 0xe0
 80045bc:	f422 3240 	bic.w	r2, r2, #196608	@ 0x30000
 80045c0:	4302      	orrs	r2, r0
 80045c2:	f8c1 20e0 	str.w	r2, [r1, #224]	@ 0xe0
 80045c6:	0198      	lsls	r0, r3, #6
 80045c8:	d509      	bpl.n	80045de <HAL_RCCEx_PeriphCLKConfig+0x4be>
 80045ca:	493b      	ldr	r1, [pc, #236]	@ (80046b8 <HAL_RCCEx_PeriphCLKConfig+0x598>)
 80045cc:	f8d4 00b8 	ldr.w	r0, [r4, #184]	@ 0xb8
 80045d0:	f8d1 20e8 	ldr.w	r2, [r1, #232]	@ 0xe8
 80045d4:	f022 0218 	bic.w	r2, r2, #24
 80045d8:	4302      	orrs	r2, r0
 80045da:	f8c1 20e8 	str.w	r2, [r1, #232]	@ 0xe8
 80045de:	0159      	lsls	r1, r3, #5
 80045e0:	d515      	bpl.n	800460e <HAL_RCCEx_PeriphCLKConfig+0x4ee>
 80045e2:	f8d4 30ac 	ldr.w	r3, [r4, #172]	@ 0xac
 80045e6:	f5b3 1f00 	cmp.w	r3, #2097152	@ 0x200000
 80045ea:	d141      	bne.n	8004670 <HAL_RCCEx_PeriphCLKConfig+0x550>
 80045ec:	4a32      	ldr	r2, [pc, #200]	@ (80046b8 <HAL_RCCEx_PeriphCLKConfig+0x598>)
 80045ee:	6a93      	ldr	r3, [r2, #40]	@ 0x28
 80045f0:	f443 3300 	orr.w	r3, r3, #131072	@ 0x20000
 80045f4:	6293      	str	r3, [r2, #40]	@ 0x28
 80045f6:	2d00      	cmp	r5, #0
 80045f8:	d143      	bne.n	8004682 <HAL_RCCEx_PeriphCLKConfig+0x562>
 80045fa:	4a2f      	ldr	r2, [pc, #188]	@ (80046b8 <HAL_RCCEx_PeriphCLKConfig+0x598>)
 80045fc:	f8d4 10ac 	ldr.w	r1, [r4, #172]	@ 0xac
 8004600:	f8d2 30e4 	ldr.w	r3, [r2, #228]	@ 0xe4
 8004604:	f423 1340 	bic.w	r3, r3, #3145728	@ 0x300000
 8004608:	430b      	orrs	r3, r1
 800460a:	f8c2 30e4 	str.w	r3, [r2, #228]	@ 0xe4
 800460e:	6823      	ldr	r3, [r4, #0]
 8004610:	011a      	lsls	r2, r3, #4
 8004612:	d549      	bpl.n	80046a8 <HAL_RCCEx_PeriphCLKConfig+0x588>
 8004614:	f8d4 3084 	ldr.w	r3, [r4, #132]	@ 0x84
 8004618:	f1b3 7f80 	cmp.w	r3, #16777216	@ 0x1000000
 800461c:	d033      	beq.n	8004686 <HAL_RCCEx_PeriphCLKConfig+0x566>
 800461e:	f1b3 7f00 	cmp.w	r3, #33554432	@ 0x2000000
 8004622:	d043      	beq.n	80046ac <HAL_RCCEx_PeriphCLKConfig+0x58c>
 8004624:	b3a3      	cbz	r3, 8004690 <HAL_RCCEx_PeriphCLKConfig+0x570>
 8004626:	2501      	movs	r5, #1
 8004628:	6823      	ldr	r3, [r4, #0]
 800462a:	00db      	lsls	r3, r3, #3
 800462c:	d509      	bpl.n	8004642 <HAL_RCCEx_PeriphCLKConfig+0x522>
 800462e:	4a22      	ldr	r2, [pc, #136]	@ (80046b8 <HAL_RCCEx_PeriphCLKConfig+0x598>)
 8004630:	f8d4 10a8 	ldr.w	r1, [r4, #168]	@ 0xa8
 8004634:	f8d2 30e8 	ldr.w	r3, [r2, #232]	@ 0xe8
 8004638:	f423 4300 	bic.w	r3, r3, #32768	@ 0x8000
 800463c:	430b      	orrs	r3, r1
 800463e:	f8c2 30e8 	str.w	r3, [r2, #232]	@ 0xe8
 8004642:	4628      	mov	r0, r5
 8004644:	b002      	add	sp, #8
 8004646:	e8bd 87f0 	ldmia.w	sp!, {r4, r5, r6, r7, r8, r9, sl, pc}
 800464a:	f104 0008 	add.w	r0, r4, #8
 800464e:	f7ff fcfd 	bl	800404c <RCCEx_PLL2_Config>
 8004652:	4605      	mov	r5, r0
 8004654:	e768      	b.n	8004528 <HAL_RCCEx_PeriphCLKConfig+0x408>
 8004656:	4a18      	ldr	r2, [pc, #96]	@ (80046b8 <HAL_RCCEx_PeriphCLKConfig+0x598>)
 8004658:	6a93      	ldr	r3, [r2, #40]	@ 0x28
 800465a:	f443 3300 	orr.w	r3, r3, #131072	@ 0x20000
 800465e:	6293      	str	r3, [r2, #40]	@ 0x28
 8004660:	e762      	b.n	8004528 <HAL_RCCEx_PeriphCLKConfig+0x408>
 8004662:	462e      	mov	r6, r5
 8004664:	e76d      	b.n	8004542 <HAL_RCCEx_PeriphCLKConfig+0x422>
 8004666:	2601      	movs	r6, #1
 8004668:	4635      	mov	r5, r6
 800466a:	e781      	b.n	8004570 <HAL_RCCEx_PeriphCLKConfig+0x450>
 800466c:	462e      	mov	r6, r5
 800466e:	e77f      	b.n	8004570 <HAL_RCCEx_PeriphCLKConfig+0x450>
 8004670:	f5b3 1f40 	cmp.w	r3, #3145728	@ 0x300000
 8004674:	d1bf      	bne.n	80045f6 <HAL_RCCEx_PeriphCLKConfig+0x4d6>
 8004676:	f104 0008 	add.w	r0, r4, #8
 800467a:	f7ff fce7 	bl	800404c <RCCEx_PLL2_Config>
 800467e:	4605      	mov	r5, r0
 8004680:	e7b9      	b.n	80045f6 <HAL_RCCEx_PeriphCLKConfig+0x4d6>
 8004682:	462e      	mov	r6, r5
 8004684:	e7c3      	b.n	800460e <HAL_RCCEx_PeriphCLKConfig+0x4ee>
 8004686:	4a0c      	ldr	r2, [pc, #48]	@ (80046b8 <HAL_RCCEx_PeriphCLKConfig+0x598>)
 8004688:	6a93      	ldr	r3, [r2, #40]	@ 0x28
 800468a:	f443 3300 	orr.w	r3, r3, #131072	@ 0x20000
 800468e:	6293      	str	r3, [r2, #40]	@ 0x28
 8004690:	2d00      	cmp	r5, #0
 8004692:	d1c9      	bne.n	8004628 <HAL_RCCEx_PeriphCLKConfig+0x508>
 8004694:	4a08      	ldr	r2, [pc, #32]	@ (80046b8 <HAL_RCCEx_PeriphCLKConfig+0x598>)
 8004696:	f8d4 1084 	ldr.w	r1, [r4, #132]	@ 0x84
 800469a:	f8d2 30e0 	ldr.w	r3, [r2, #224]	@ 0xe0
 800469e:	f023 7340 	bic.w	r3, r3, #50331648	@ 0x3000000
 80046a2:	430b      	orrs	r3, r1
 80046a4:	f8c2 30e0 	str.w	r3, [r2, #224]	@ 0xe0
 80046a8:	4635      	mov	r5, r6
 80046aa:	e7bd      	b.n	8004628 <HAL_RCCEx_PeriphCLKConfig+0x508>
 80046ac:	f104 0008 	add.w	r0, r4, #8
 80046b0:	f7ff fccc 	bl	800404c <RCCEx_PLL2_Config>
 80046b4:	4605      	mov	r5, r0
 80046b6:	e7eb      	b.n	8004690 <HAL_RCCEx_PeriphCLKConfig+0x570>
 80046b8:	46020c00 	.word	0x46020c00
 80046bc:	46020800 	.word	0x46020800

080046c0 <HAL_SPI_Init>:
 80046c0:	b5f8      	push	{r3, r4, r5, r6, r7, lr}
 80046c2:	4604      	mov	r4, r0
 80046c4:	b908      	cbnz	r0, 80046ca <HAL_SPI_Init+0xa>
 80046c6:	2001      	movs	r0, #1
 80046c8:	bdf8      	pop	{r3, r4, r5, r6, r7, pc}
 80046ca:	2300      	movs	r3, #0
 80046cc:	6802      	ldr	r2, [r0, #0]
 80046ce:	6283      	str	r3, [r0, #40]	@ 0x28
 80046d0:	4b48      	ldr	r3, [pc, #288]	@ (80047f4 <HAL_SPI_Init+0x134>)
 80046d2:	429a      	cmp	r2, r3
 80046d4:	68c3      	ldr	r3, [r0, #12]
 80046d6:	d002      	beq.n	80046de <HAL_SPI_Init+0x1e>
 80046d8:	4947      	ldr	r1, [pc, #284]	@ (80047f8 <HAL_SPI_Init+0x138>)
 80046da:	428a      	cmp	r2, r1
 80046dc:	d101      	bne.n	80046e2 <HAL_SPI_Init+0x22>
 80046de:	2b0f      	cmp	r3, #15
 80046e0:	d8f1      	bhi.n	80046c6 <HAL_SPI_Init+0x6>
 80046e2:	6be1      	ldr	r1, [r4, #60]	@ 0x3c
 80046e4:	3308      	adds	r3, #8
 80046e6:	0949      	lsrs	r1, r1, #5
 80046e8:	08db      	lsrs	r3, r3, #3
 80046ea:	fb01 3303 	mla	r3, r1, r3, r3
 80046ee:	4941      	ldr	r1, [pc, #260]	@ (80047f4 <HAL_SPI_Init+0x134>)
 80046f0:	428a      	cmp	r2, r1
 80046f2:	d003      	beq.n	80046fc <HAL_SPI_Init+0x3c>
 80046f4:	f101 5180 	add.w	r1, r1, #268435456	@ 0x10000000
 80046f8:	428a      	cmp	r2, r1
 80046fa:	d15e      	bne.n	80047ba <HAL_SPI_Init+0xfa>
 80046fc:	2b08      	cmp	r3, #8
 80046fe:	d8e2      	bhi.n	80046c6 <HAL_SPI_Init+0x6>
 8004700:	f894 3089 	ldrb.w	r3, [r4, #137]	@ 0x89
 8004704:	f003 02ff 	and.w	r2, r3, #255	@ 0xff
 8004708:	b923      	cbnz	r3, 8004714 <HAL_SPI_Init+0x54>
 800470a:	4620      	mov	r0, r4
 800470c:	f884 2088 	strb.w	r2, [r4, #136]	@ 0x88
 8004710:	f7fc fba4 	bl	8000e5c <HAL_SPI_MspInit>
 8004714:	2302      	movs	r3, #2
 8004716:	6822      	ldr	r2, [r4, #0]
 8004718:	f884 3089 	strb.w	r3, [r4, #137]	@ 0x89
 800471c:	6813      	ldr	r3, [r2, #0]
 800471e:	6865      	ldr	r5, [r4, #4]
 8004720:	f023 0301 	bic.w	r3, r3, #1
 8004724:	6013      	str	r3, [r2, #0]
 8004726:	6893      	ldr	r3, [r2, #8]
 8004728:	6ba6      	ldr	r6, [r4, #56]	@ 0x38
 800472a:	f403 1cf8 	and.w	ip, r3, #2031616	@ 0x1f0000
 800472e:	69a3      	ldr	r3, [r4, #24]
 8004730:	f1b3 6f80 	cmp.w	r3, #67108864	@ 0x4000000
 8004734:	d104      	bne.n	8004740 <HAL_SPI_Init+0x80>
 8004736:	f5b5 0f80 	cmp.w	r5, #4194304	@ 0x400000
 800473a:	d14e      	bne.n	80047da <HAL_SPI_Init+0x11a>
 800473c:	2e00      	cmp	r6, #0
 800473e:	d051      	beq.n	80047e4 <HAL_SPI_Init+0x124>
 8004740:	f415 0180 	ands.w	r1, r5, #4194304	@ 0x400000
 8004744:	68e0      	ldr	r0, [r4, #12]
 8004746:	6817      	ldr	r7, [r2, #0]
 8004748:	d051      	beq.n	80047ee <HAL_SPI_Init+0x12e>
 800474a:	2806      	cmp	r0, #6
 800474c:	d94f      	bls.n	80047ee <HAL_SPI_Init+0x12e>
 800474e:	f427 7e80 	bic.w	lr, r7, #256	@ 0x100
 8004752:	6d27      	ldr	r7, [r4, #80]	@ 0x50
 8004754:	ea4e 0707 	orr.w	r7, lr, r7
 8004758:	6017      	str	r7, [r2, #0]
 800475a:	69e7      	ldr	r7, [r4, #28]
 800475c:	432b      	orrs	r3, r5
 800475e:	4338      	orrs	r0, r7
 8004760:	6aa7      	ldr	r7, [r4, #40]	@ 0x28
 8004762:	4333      	orrs	r3, r6
 8004764:	4338      	orrs	r0, r7
 8004766:	6be7      	ldr	r7, [r4, #60]	@ 0x3c
 8004768:	4338      	orrs	r0, r7
 800476a:	ea40 000c 	orr.w	r0, r0, ip
 800476e:	6090      	str	r0, [r2, #8]
 8004770:	6b60      	ldr	r0, [r4, #52]	@ 0x34
 8004772:	4303      	orrs	r3, r0
 8004774:	6a60      	ldr	r0, [r4, #36]	@ 0x24
 8004776:	4303      	orrs	r3, r0
 8004778:	6920      	ldr	r0, [r4, #16]
 800477a:	4303      	orrs	r3, r0
 800477c:	6960      	ldr	r0, [r4, #20]
 800477e:	4303      	orrs	r3, r0
 8004780:	6a20      	ldr	r0, [r4, #32]
 8004782:	4303      	orrs	r3, r0
 8004784:	6ce0      	ldr	r0, [r4, #76]	@ 0x4c
 8004786:	4303      	orrs	r3, r0
 8004788:	68a0      	ldr	r0, [r4, #8]
 800478a:	4303      	orrs	r3, r0
 800478c:	6ca0      	ldr	r0, [r4, #72]	@ 0x48
 800478e:	4303      	orrs	r3, r0
 8004790:	6da0      	ldr	r0, [r4, #88]	@ 0x58
 8004792:	4303      	orrs	r3, r0
 8004794:	6de0      	ldr	r0, [r4, #92]	@ 0x5c
 8004796:	4303      	orrs	r3, r0
 8004798:	6e20      	ldr	r0, [r4, #96]	@ 0x60
 800479a:	4303      	orrs	r3, r0
 800479c:	60d3      	str	r3, [r2, #12]
 800479e:	b129      	cbz	r1, 80047ac <HAL_SPI_Init+0xec>
 80047a0:	68d3      	ldr	r3, [r2, #12]
 80047a2:	6d61      	ldr	r1, [r4, #84]	@ 0x54
 80047a4:	f023 4300 	bic.w	r3, r3, #2147483648	@ 0x80000000
 80047a8:	430b      	orrs	r3, r1
 80047aa:	60d3      	str	r3, [r2, #12]
 80047ac:	2000      	movs	r0, #0
 80047ae:	2301      	movs	r3, #1
 80047b0:	f8c4 008c 	str.w	r0, [r4, #140]	@ 0x8c
 80047b4:	f884 3089 	strb.w	r3, [r4, #137]	@ 0x89
 80047b8:	e786      	b.n	80046c8 <HAL_SPI_Init+0x8>
 80047ba:	4910      	ldr	r1, [pc, #64]	@ (80047fc <HAL_SPI_Init+0x13c>)
 80047bc:	428a      	cmp	r2, r1
 80047be:	d00a      	beq.n	80047d6 <HAL_SPI_Init+0x116>
 80047c0:	f101 5180 	add.w	r1, r1, #268435456	@ 0x10000000
 80047c4:	428a      	cmp	r2, r1
 80047c6:	d006      	beq.n	80047d6 <HAL_SPI_Init+0x116>
 80047c8:	490d      	ldr	r1, [pc, #52]	@ (8004800 <HAL_SPI_Init+0x140>)
 80047ca:	428a      	cmp	r2, r1
 80047cc:	d003      	beq.n	80047d6 <HAL_SPI_Init+0x116>
 80047ce:	f101 5180 	add.w	r1, r1, #268435456	@ 0x10000000
 80047d2:	428a      	cmp	r2, r1
 80047d4:	d194      	bne.n	8004700 <HAL_SPI_Init+0x40>
 80047d6:	2b10      	cmp	r3, #16
 80047d8:	e791      	b.n	80046fe <HAL_SPI_Init+0x3e>
 80047da:	2d00      	cmp	r5, #0
 80047dc:	d1b0      	bne.n	8004740 <HAL_SPI_Init+0x80>
 80047de:	f1b6 5f80 	cmp.w	r6, #268435456	@ 0x10000000
 80047e2:	d1ad      	bne.n	8004740 <HAL_SPI_Init+0x80>
 80047e4:	6811      	ldr	r1, [r2, #0]
 80047e6:	f441 5180 	orr.w	r1, r1, #4096	@ 0x1000
 80047ea:	6011      	str	r1, [r2, #0]
 80047ec:	e7a8      	b.n	8004740 <HAL_SPI_Init+0x80>
 80047ee:	f427 7780 	bic.w	r7, r7, #256	@ 0x100
 80047f2:	e7b1      	b.n	8004758 <HAL_SPI_Init+0x98>
 80047f4:	46002000 	.word	0x46002000
 80047f8:	56002000 	.word	0x56002000
 80047fc:	40013000 	.word	0x40013000
 8004800:	40003800 	.word	0x40003800

08004804 <HAL_SPIEx_SetConfigAutonomousMode>:
 8004804:	b530      	push	{r4, r5, lr}
 8004806:	f890 2089 	ldrb.w	r2, [r0, #137]	@ 0x89
 800480a:	4603      	mov	r3, r0
 800480c:	2a01      	cmp	r2, #1
 800480e:	b2d4      	uxtb	r4, r2
 8004810:	d119      	bne.n	8004846 <HAL_SPIEx_SetConfigAutonomousMode+0x42>
 8004812:	f890 2088 	ldrb.w	r2, [r0, #136]	@ 0x88
 8004816:	2002      	movs	r0, #2
 8004818:	2a01      	cmp	r2, #1
 800481a:	d013      	beq.n	8004844 <HAL_SPIEx_SetConfigAutonomousMode+0x40>
 800481c:	f883 0089 	strb.w	r0, [r3, #137]	@ 0x89
 8004820:	6818      	ldr	r0, [r3, #0]
 8004822:	688d      	ldr	r5, [r1, #8]
 8004824:	6802      	ldr	r2, [r0, #0]
 8004826:	f022 0201 	bic.w	r2, r2, #1
 800482a:	6002      	str	r2, [r0, #0]
 800482c:	680a      	ldr	r2, [r1, #0]
 800482e:	6849      	ldr	r1, [r1, #4]
 8004830:	432a      	orrs	r2, r5
 8004832:	f401 2170 	and.w	r1, r1, #983040	@ 0xf0000
 8004836:	430a      	orrs	r2, r1
 8004838:	61c2      	str	r2, [r0, #28]
 800483a:	2000      	movs	r0, #0
 800483c:	f883 4089 	strb.w	r4, [r3, #137]	@ 0x89
 8004840:	f883 0088 	strb.w	r0, [r3, #136]	@ 0x88
 8004844:	bd30      	pop	{r4, r5, pc}
 8004846:	2001      	movs	r0, #1
 8004848:	e7fc      	b.n	8004844 <HAL_SPIEx_SetConfigAutonomousMode+0x40>

0800484a <HAL_TIM_Base_MspInit>:
 800484a:	4770      	bx	lr

0800484c <HAL_TIM_Base_Start_IT>:
 800484c:	f890 303d 	ldrb.w	r3, [r0, #61]	@ 0x3d
 8004850:	2b01      	cmp	r3, #1
 8004852:	d145      	bne.n	80048e0 <HAL_TIM_Base_Start_IT+0x94>
 8004854:	2302      	movs	r3, #2
 8004856:	f880 303d 	strb.w	r3, [r0, #61]	@ 0x3d
 800485a:	6803      	ldr	r3, [r0, #0]
 800485c:	68da      	ldr	r2, [r3, #12]
 800485e:	f042 0201 	orr.w	r2, r2, #1
 8004862:	60da      	str	r2, [r3, #12]
 8004864:	4a1f      	ldr	r2, [pc, #124]	@ (80048e4 <HAL_TIM_Base_Start_IT+0x98>)
 8004866:	4293      	cmp	r3, r2
 8004868:	d02c      	beq.n	80048c4 <HAL_TIM_Base_Start_IT+0x78>
 800486a:	f102 5280 	add.w	r2, r2, #268435456	@ 0x10000000
 800486e:	4293      	cmp	r3, r2
 8004870:	d028      	beq.n	80048c4 <HAL_TIM_Base_Start_IT+0x78>
 8004872:	f1b3 4f80 	cmp.w	r3, #1073741824	@ 0x40000000
 8004876:	d025      	beq.n	80048c4 <HAL_TIM_Base_Start_IT+0x78>
 8004878:	f1b3 4fa0 	cmp.w	r3, #1342177280	@ 0x50000000
 800487c:	d022      	beq.n	80048c4 <HAL_TIM_Base_Start_IT+0x78>
 800487e:	4a1a      	ldr	r2, [pc, #104]	@ (80048e8 <HAL_TIM_Base_Start_IT+0x9c>)
 8004880:	4293      	cmp	r3, r2
 8004882:	d01f      	beq.n	80048c4 <HAL_TIM_Base_Start_IT+0x78>
 8004884:	f102 5280 	add.w	r2, r2, #268435456	@ 0x10000000
 8004888:	4293      	cmp	r3, r2
 800488a:	d01b      	beq.n	80048c4 <HAL_TIM_Base_Start_IT+0x78>
 800488c:	4a17      	ldr	r2, [pc, #92]	@ (80048ec <HAL_TIM_Base_Start_IT+0xa0>)
 800488e:	4293      	cmp	r3, r2
 8004890:	d018      	beq.n	80048c4 <HAL_TIM_Base_Start_IT+0x78>
 8004892:	f102 5280 	add.w	r2, r2, #268435456	@ 0x10000000
 8004896:	4293      	cmp	r3, r2
 8004898:	d014      	beq.n	80048c4 <HAL_TIM_Base_Start_IT+0x78>
 800489a:	4a15      	ldr	r2, [pc, #84]	@ (80048f0 <HAL_TIM_Base_Start_IT+0xa4>)
 800489c:	4293      	cmp	r3, r2
 800489e:	d011      	beq.n	80048c4 <HAL_TIM_Base_Start_IT+0x78>
 80048a0:	f102 5280 	add.w	r2, r2, #268435456	@ 0x10000000
 80048a4:	4293      	cmp	r3, r2
 80048a6:	d00d      	beq.n	80048c4 <HAL_TIM_Base_Start_IT+0x78>
 80048a8:	4a12      	ldr	r2, [pc, #72]	@ (80048f4 <HAL_TIM_Base_Start_IT+0xa8>)
 80048aa:	4293      	cmp	r3, r2
 80048ac:	d00a      	beq.n	80048c4 <HAL_TIM_Base_Start_IT+0x78>
 80048ae:	f102 5280 	add.w	r2, r2, #268435456	@ 0x10000000
 80048b2:	4293      	cmp	r3, r2
 80048b4:	d006      	beq.n	80048c4 <HAL_TIM_Base_Start_IT+0x78>
 80048b6:	4a10      	ldr	r2, [pc, #64]	@ (80048f8 <HAL_TIM_Base_Start_IT+0xac>)
 80048b8:	4293      	cmp	r3, r2
 80048ba:	d003      	beq.n	80048c4 <HAL_TIM_Base_Start_IT+0x78>
 80048bc:	f102 5280 	add.w	r2, r2, #268435456	@ 0x10000000
 80048c0:	4293      	cmp	r3, r2
 80048c2:	d107      	bne.n	80048d4 <HAL_TIM_Base_Start_IT+0x88>
 80048c4:	6899      	ldr	r1, [r3, #8]
 80048c6:	4a0d      	ldr	r2, [pc, #52]	@ (80048fc <HAL_TIM_Base_Start_IT+0xb0>)
 80048c8:	400a      	ands	r2, r1
 80048ca:	2a06      	cmp	r2, #6
 80048cc:	d006      	beq.n	80048dc <HAL_TIM_Base_Start_IT+0x90>
 80048ce:	f5b2 3f80 	cmp.w	r2, #65536	@ 0x10000
 80048d2:	d003      	beq.n	80048dc <HAL_TIM_Base_Start_IT+0x90>
 80048d4:	681a      	ldr	r2, [r3, #0]
 80048d6:	f042 0201 	orr.w	r2, r2, #1
 80048da:	601a      	str	r2, [r3, #0]
 80048dc:	2000      	movs	r0, #0
 80048de:	4770      	bx	lr
 80048e0:	2001      	movs	r0, #1
 80048e2:	4770      	bx	lr
 80048e4:	40012c00 	.word	0x40012c00
 80048e8:	40000400 	.word	0x40000400
 80048ec:	40000800 	.word	0x40000800
 80048f0:	40000c00 	.word	0x40000c00
 80048f4:	40013400 	.word	0x40013400
 80048f8:	40014000 	.word	0x40014000
 80048fc:	00010007 	.word	0x00010007

08004900 <HAL_TIM_OC_DelayElapsedCallback>:
 8004900:	4770      	bx	lr

08004902 <HAL_TIM_IC_CaptureCallback>:
 8004902:	4770      	bx	lr

08004904 <HAL_TIM_PWM_PulseFinishedCallback>:
 8004904:	4770      	bx	lr

08004906 <HAL_TIM_TriggerCallback>:
 8004906:	4770      	bx	lr

08004908 <HAL_TIM_IRQHandler>:
 8004908:	6803      	ldr	r3, [r0, #0]
 800490a:	b570      	push	{r4, r5, r6, lr}
 800490c:	68dd      	ldr	r5, [r3, #12]
 800490e:	691e      	ldr	r6, [r3, #16]
 8004910:	4604      	mov	r4, r0
 8004912:	07b2      	lsls	r2, r6, #30
 8004914:	d50e      	bpl.n	8004934 <HAL_TIM_IRQHandler+0x2c>
 8004916:	07a9      	lsls	r1, r5, #30
 8004918:	d50c      	bpl.n	8004934 <HAL_TIM_IRQHandler+0x2c>
 800491a:	f06f 0202 	mvn.w	r2, #2
 800491e:	611a      	str	r2, [r3, #16]
 8004920:	2201      	movs	r2, #1
 8004922:	7702      	strb	r2, [r0, #28]
 8004924:	699b      	ldr	r3, [r3, #24]
 8004926:	079a      	lsls	r2, r3, #30
 8004928:	f000 80a4 	beq.w	8004a74 <HAL_TIM_IRQHandler+0x16c>
 800492c:	f7ff ffe9 	bl	8004902 <HAL_TIM_IC_CaptureCallback>
 8004930:	2300      	movs	r3, #0
 8004932:	7723      	strb	r3, [r4, #28]
 8004934:	0773      	lsls	r3, r6, #29
 8004936:	d511      	bpl.n	800495c <HAL_TIM_IRQHandler+0x54>
 8004938:	0768      	lsls	r0, r5, #29
 800493a:	d50f      	bpl.n	800495c <HAL_TIM_IRQHandler+0x54>
 800493c:	f06f 0204 	mvn.w	r2, #4
 8004940:	6823      	ldr	r3, [r4, #0]
 8004942:	4620      	mov	r0, r4
 8004944:	611a      	str	r2, [r3, #16]
 8004946:	2202      	movs	r2, #2
 8004948:	7722      	strb	r2, [r4, #28]
 800494a:	699b      	ldr	r3, [r3, #24]
 800494c:	f413 7f40 	tst.w	r3, #768	@ 0x300
 8004950:	f000 8096 	beq.w	8004a80 <HAL_TIM_IRQHandler+0x178>
 8004954:	f7ff ffd5 	bl	8004902 <HAL_TIM_IC_CaptureCallback>
 8004958:	2300      	movs	r3, #0
 800495a:	7723      	strb	r3, [r4, #28]
 800495c:	0731      	lsls	r1, r6, #28
 800495e:	d510      	bpl.n	8004982 <HAL_TIM_IRQHandler+0x7a>
 8004960:	072a      	lsls	r2, r5, #28
 8004962:	d50e      	bpl.n	8004982 <HAL_TIM_IRQHandler+0x7a>
 8004964:	f06f 0208 	mvn.w	r2, #8
 8004968:	6823      	ldr	r3, [r4, #0]
 800496a:	4620      	mov	r0, r4
 800496c:	611a      	str	r2, [r3, #16]
 800496e:	2204      	movs	r2, #4
 8004970:	7722      	strb	r2, [r4, #28]
 8004972:	69db      	ldr	r3, [r3, #28]
 8004974:	079b      	lsls	r3, r3, #30
 8004976:	f000 8089 	beq.w	8004a8c <HAL_TIM_IRQHandler+0x184>
 800497a:	f7ff ffc2 	bl	8004902 <HAL_TIM_IC_CaptureCallback>
 800497e:	2300      	movs	r3, #0
 8004980:	7723      	strb	r3, [r4, #28]
 8004982:	06f1      	lsls	r1, r6, #27
 8004984:	d510      	bpl.n	80049a8 <HAL_TIM_IRQHandler+0xa0>
 8004986:	06ea      	lsls	r2, r5, #27
 8004988:	d50e      	bpl.n	80049a8 <HAL_TIM_IRQHandler+0xa0>
 800498a:	f06f 0210 	mvn.w	r2, #16
 800498e:	6823      	ldr	r3, [r4, #0]
 8004990:	4620      	mov	r0, r4
 8004992:	611a      	str	r2, [r3, #16]
 8004994:	2208      	movs	r2, #8
 8004996:	7722      	strb	r2, [r4, #28]
 8004998:	69db      	ldr	r3, [r3, #28]
 800499a:	f413 7f40 	tst.w	r3, #768	@ 0x300
 800499e:	d07b      	beq.n	8004a98 <HAL_TIM_IRQHandler+0x190>
 80049a0:	f7ff ffaf 	bl	8004902 <HAL_TIM_IC_CaptureCallback>
 80049a4:	2300      	movs	r3, #0
 80049a6:	7723      	strb	r3, [r4, #28]
 80049a8:	07f3      	lsls	r3, r6, #31
 80049aa:	d508      	bpl.n	80049be <HAL_TIM_IRQHandler+0xb6>
 80049ac:	07e8      	lsls	r0, r5, #31
 80049ae:	d506      	bpl.n	80049be <HAL_TIM_IRQHandler+0xb6>
 80049b0:	f06f 0201 	mvn.w	r2, #1
 80049b4:	6823      	ldr	r3, [r4, #0]
 80049b6:	4620      	mov	r0, r4
 80049b8:	611a      	str	r2, [r3, #16]
 80049ba:	f7fc fa0f 	bl	8000ddc <HAL_TIM_PeriodElapsedCallback>
 80049be:	f416 5f02 	tst.w	r6, #8320	@ 0x2080
 80049c2:	d008      	beq.n	80049d6 <HAL_TIM_IRQHandler+0xce>
 80049c4:	0629      	lsls	r1, r5, #24
 80049c6:	d506      	bpl.n	80049d6 <HAL_TIM_IRQHandler+0xce>
 80049c8:	f46f 5202 	mvn.w	r2, #8320	@ 0x2080
 80049cc:	6823      	ldr	r3, [r4, #0]
 80049ce:	4620      	mov	r0, r4
 80049d0:	611a      	str	r2, [r3, #16]
 80049d2:	f000 f928 	bl	8004c26 <HAL_TIMEx_BreakCallback>
 80049d6:	05f2      	lsls	r2, r6, #23
 80049d8:	d508      	bpl.n	80049ec <HAL_TIM_IRQHandler+0xe4>
 80049da:	062b      	lsls	r3, r5, #24
 80049dc:	d506      	bpl.n	80049ec <HAL_TIM_IRQHandler+0xe4>
 80049de:	f46f 7280 	mvn.w	r2, #256	@ 0x100
 80049e2:	6823      	ldr	r3, [r4, #0]
 80049e4:	4620      	mov	r0, r4
 80049e6:	611a      	str	r2, [r3, #16]
 80049e8:	f000 f91e 	bl	8004c28 <HAL_TIMEx_Break2Callback>
 80049ec:	0670      	lsls	r0, r6, #25
 80049ee:	d508      	bpl.n	8004a02 <HAL_TIM_IRQHandler+0xfa>
 80049f0:	0669      	lsls	r1, r5, #25
 80049f2:	d506      	bpl.n	8004a02 <HAL_TIM_IRQHandler+0xfa>
 80049f4:	f06f 0240 	mvn.w	r2, #64	@ 0x40
 80049f8:	6823      	ldr	r3, [r4, #0]
 80049fa:	4620      	mov	r0, r4
 80049fc:	611a      	str	r2, [r3, #16]
 80049fe:	f7ff ff82 	bl	8004906 <HAL_TIM_TriggerCallback>
 8004a02:	06b2      	lsls	r2, r6, #26
 8004a04:	d508      	bpl.n	8004a18 <HAL_TIM_IRQHandler+0x110>
 8004a06:	06ab      	lsls	r3, r5, #26
 8004a08:	d506      	bpl.n	8004a18 <HAL_TIM_IRQHandler+0x110>
 8004a0a:	f06f 0220 	mvn.w	r2, #32
 8004a0e:	6823      	ldr	r3, [r4, #0]
 8004a10:	4620      	mov	r0, r4
 8004a12:	611a      	str	r2, [r3, #16]
 8004a14:	f000 f906 	bl	8004c24 <HAL_TIMEx_CommutCallback>
 8004a18:	02f0      	lsls	r0, r6, #11
 8004a1a:	d508      	bpl.n	8004a2e <HAL_TIM_IRQHandler+0x126>
 8004a1c:	02e9      	lsls	r1, r5, #11
 8004a1e:	d506      	bpl.n	8004a2e <HAL_TIM_IRQHandler+0x126>
 8004a20:	f46f 1280 	mvn.w	r2, #1048576	@ 0x100000
 8004a24:	6823      	ldr	r3, [r4, #0]
 8004a26:	4620      	mov	r0, r4
 8004a28:	611a      	str	r2, [r3, #16]
 8004a2a:	f000 f8fe 	bl	8004c2a <HAL_TIMEx_EncoderIndexCallback>
 8004a2e:	02b2      	lsls	r2, r6, #10
 8004a30:	d508      	bpl.n	8004a44 <HAL_TIM_IRQHandler+0x13c>
 8004a32:	02ab      	lsls	r3, r5, #10
 8004a34:	d506      	bpl.n	8004a44 <HAL_TIM_IRQHandler+0x13c>
 8004a36:	f46f 1200 	mvn.w	r2, #2097152	@ 0x200000
 8004a3a:	6823      	ldr	r3, [r4, #0]
 8004a3c:	4620      	mov	r0, r4
 8004a3e:	611a      	str	r2, [r3, #16]
 8004a40:	f000 f8f4 	bl	8004c2c <HAL_TIMEx_DirectionChangeCallback>
 8004a44:	0270      	lsls	r0, r6, #9
 8004a46:	d508      	bpl.n	8004a5a <HAL_TIM_IRQHandler+0x152>
 8004a48:	0269      	lsls	r1, r5, #9
 8004a4a:	d506      	bpl.n	8004a5a <HAL_TIM_IRQHandler+0x152>
 8004a4c:	f46f 0280 	mvn.w	r2, #4194304	@ 0x400000
 8004a50:	6823      	ldr	r3, [r4, #0]
 8004a52:	4620      	mov	r0, r4
 8004a54:	611a      	str	r2, [r3, #16]
 8004a56:	f000 f8ea 	bl	8004c2e <HAL_TIMEx_IndexErrorCallback>
 8004a5a:	0232      	lsls	r2, r6, #8
 8004a5c:	d522      	bpl.n	8004aa4 <HAL_TIM_IRQHandler+0x19c>
 8004a5e:	022b      	lsls	r3, r5, #8
 8004a60:	d520      	bpl.n	8004aa4 <HAL_TIM_IRQHandler+0x19c>
 8004a62:	f46f 0200 	mvn.w	r2, #8388608	@ 0x800000
 8004a66:	6823      	ldr	r3, [r4, #0]
 8004a68:	4620      	mov	r0, r4
 8004a6a:	e8bd 4070 	ldmia.w	sp!, {r4, r5, r6, lr}
 8004a6e:	611a      	str	r2, [r3, #16]
 8004a70:	f000 b8de 	b.w	8004c30 <HAL_TIMEx_TransitionErrorCallback>
 8004a74:	f7ff ff44 	bl	8004900 <HAL_TIM_OC_DelayElapsedCallback>
 8004a78:	4620      	mov	r0, r4
 8004a7a:	f7ff ff43 	bl	8004904 <HAL_TIM_PWM_PulseFinishedCallback>
 8004a7e:	e757      	b.n	8004930 <HAL_TIM_IRQHandler+0x28>
 8004a80:	f7ff ff3e 	bl	8004900 <HAL_TIM_OC_DelayElapsedCallback>
 8004a84:	4620      	mov	r0, r4
 8004a86:	f7ff ff3d 	bl	8004904 <HAL_TIM_PWM_PulseFinishedCallback>
 8004a8a:	e765      	b.n	8004958 <HAL_TIM_IRQHandler+0x50>
 8004a8c:	f7ff ff38 	bl	8004900 <HAL_TIM_OC_DelayElapsedCallback>
 8004a90:	4620      	mov	r0, r4
 8004a92:	f7ff ff37 	bl	8004904 <HAL_TIM_PWM_PulseFinishedCallback>
 8004a96:	e772      	b.n	800497e <HAL_TIM_IRQHandler+0x76>
 8004a98:	f7ff ff32 	bl	8004900 <HAL_TIM_OC_DelayElapsedCallback>
 8004a9c:	4620      	mov	r0, r4
 8004a9e:	f7ff ff31 	bl	8004904 <HAL_TIM_PWM_PulseFinishedCallback>
 8004aa2:	e77f      	b.n	80049a4 <HAL_TIM_IRQHandler+0x9c>
 8004aa4:	bd70      	pop	{r4, r5, r6, pc}
	...

08004aa8 <TIM_Base_SetConfig>:
 8004aa8:	4a3e      	ldr	r2, [pc, #248]	@ (8004ba4 <TIM_Base_SetConfig+0xfc>)
 8004aaa:	6803      	ldr	r3, [r0, #0]
 8004aac:	4290      	cmp	r0, r2
 8004aae:	d025      	beq.n	8004afc <TIM_Base_SetConfig+0x54>
 8004ab0:	f102 5280 	add.w	r2, r2, #268435456	@ 0x10000000
 8004ab4:	4290      	cmp	r0, r2
 8004ab6:	d021      	beq.n	8004afc <TIM_Base_SetConfig+0x54>
 8004ab8:	f1b0 4f80 	cmp.w	r0, #1073741824	@ 0x40000000
 8004abc:	d01e      	beq.n	8004afc <TIM_Base_SetConfig+0x54>
 8004abe:	f1b0 4fa0 	cmp.w	r0, #1342177280	@ 0x50000000
 8004ac2:	d01b      	beq.n	8004afc <TIM_Base_SetConfig+0x54>
 8004ac4:	4a38      	ldr	r2, [pc, #224]	@ (8004ba8 <TIM_Base_SetConfig+0x100>)
 8004ac6:	4290      	cmp	r0, r2
 8004ac8:	d018      	beq.n	8004afc <TIM_Base_SetConfig+0x54>
 8004aca:	f102 5280 	add.w	r2, r2, #268435456	@ 0x10000000
 8004ace:	4290      	cmp	r0, r2
 8004ad0:	d014      	beq.n	8004afc <TIM_Base_SetConfig+0x54>
 8004ad2:	4a36      	ldr	r2, [pc, #216]	@ (8004bac <TIM_Base_SetConfig+0x104>)
 8004ad4:	4290      	cmp	r0, r2
 8004ad6:	d011      	beq.n	8004afc <TIM_Base_SetConfig+0x54>
 8004ad8:	f102 5280 	add.w	r2, r2, #268435456	@ 0x10000000
 8004adc:	4290      	cmp	r0, r2
 8004ade:	d00d      	beq.n	8004afc <TIM_Base_SetConfig+0x54>
 8004ae0:	4a33      	ldr	r2, [pc, #204]	@ (8004bb0 <TIM_Base_SetConfig+0x108>)
 8004ae2:	4290      	cmp	r0, r2
 8004ae4:	d00a      	beq.n	8004afc <TIM_Base_SetConfig+0x54>
 8004ae6:	f102 5280 	add.w	r2, r2, #268435456	@ 0x10000000
 8004aea:	4290      	cmp	r0, r2
 8004aec:	d006      	beq.n	8004afc <TIM_Base_SetConfig+0x54>
 8004aee:	4a31      	ldr	r2, [pc, #196]	@ (8004bb4 <TIM_Base_SetConfig+0x10c>)
 8004af0:	4290      	cmp	r0, r2
 8004af2:	d003      	beq.n	8004afc <TIM_Base_SetConfig+0x54>
 8004af4:	f102 5280 	add.w	r2, r2, #268435456	@ 0x10000000
 8004af8:	4290      	cmp	r0, r2
 8004afa:	d108      	bne.n	8004b0e <TIM_Base_SetConfig+0x66>
 8004afc:	684a      	ldr	r2, [r1, #4]
 8004afe:	f023 0370 	bic.w	r3, r3, #112	@ 0x70
 8004b02:	4313      	orrs	r3, r2
 8004b04:	68ca      	ldr	r2, [r1, #12]
 8004b06:	f423 7340 	bic.w	r3, r3, #768	@ 0x300
 8004b0a:	4313      	orrs	r3, r2
 8004b0c:	e014      	b.n	8004b38 <TIM_Base_SetConfig+0x90>
 8004b0e:	4a2a      	ldr	r2, [pc, #168]	@ (8004bb8 <TIM_Base_SetConfig+0x110>)
 8004b10:	4290      	cmp	r0, r2
 8004b12:	d0f7      	beq.n	8004b04 <TIM_Base_SetConfig+0x5c>
 8004b14:	f102 5280 	add.w	r2, r2, #268435456	@ 0x10000000
 8004b18:	4290      	cmp	r0, r2
 8004b1a:	d0f3      	beq.n	8004b04 <TIM_Base_SetConfig+0x5c>
 8004b1c:	4a27      	ldr	r2, [pc, #156]	@ (8004bbc <TIM_Base_SetConfig+0x114>)
 8004b1e:	4290      	cmp	r0, r2
 8004b20:	d0f0      	beq.n	8004b04 <TIM_Base_SetConfig+0x5c>
 8004b22:	f102 5280 	add.w	r2, r2, #268435456	@ 0x10000000
 8004b26:	4290      	cmp	r0, r2
 8004b28:	d0ec      	beq.n	8004b04 <TIM_Base_SetConfig+0x5c>
 8004b2a:	4a25      	ldr	r2, [pc, #148]	@ (8004bc0 <TIM_Base_SetConfig+0x118>)
 8004b2c:	4290      	cmp	r0, r2
 8004b2e:	d0e9      	beq.n	8004b04 <TIM_Base_SetConfig+0x5c>
 8004b30:	f102 5280 	add.w	r2, r2, #268435456	@ 0x10000000
 8004b34:	4290      	cmp	r0, r2
 8004b36:	d0e5      	beq.n	8004b04 <TIM_Base_SetConfig+0x5c>
 8004b38:	694a      	ldr	r2, [r1, #20]
 8004b3a:	f023 0380 	bic.w	r3, r3, #128	@ 0x80
 8004b3e:	4313      	orrs	r3, r2
 8004b40:	688a      	ldr	r2, [r1, #8]
 8004b42:	62c2      	str	r2, [r0, #44]	@ 0x2c
 8004b44:	680a      	ldr	r2, [r1, #0]
 8004b46:	6282      	str	r2, [r0, #40]	@ 0x28
 8004b48:	4a16      	ldr	r2, [pc, #88]	@ (8004ba4 <TIM_Base_SetConfig+0xfc>)
 8004b4a:	4290      	cmp	r0, r2
 8004b4c:	d01f      	beq.n	8004b8e <TIM_Base_SetConfig+0xe6>
 8004b4e:	f102 5280 	add.w	r2, r2, #268435456	@ 0x10000000
 8004b52:	4290      	cmp	r0, r2
 8004b54:	d01b      	beq.n	8004b8e <TIM_Base_SetConfig+0xe6>
 8004b56:	4a17      	ldr	r2, [pc, #92]	@ (8004bb4 <TIM_Base_SetConfig+0x10c>)
 8004b58:	4290      	cmp	r0, r2
 8004b5a:	d018      	beq.n	8004b8e <TIM_Base_SetConfig+0xe6>
 8004b5c:	f102 5280 	add.w	r2, r2, #268435456	@ 0x10000000
 8004b60:	4290      	cmp	r0, r2
 8004b62:	d014      	beq.n	8004b8e <TIM_Base_SetConfig+0xe6>
 8004b64:	4a14      	ldr	r2, [pc, #80]	@ (8004bb8 <TIM_Base_SetConfig+0x110>)
 8004b66:	4290      	cmp	r0, r2
 8004b68:	d011      	beq.n	8004b8e <TIM_Base_SetConfig+0xe6>
 8004b6a:	f102 5280 	add.w	r2, r2, #268435456	@ 0x10000000
 8004b6e:	4290      	cmp	r0, r2
 8004b70:	d00d      	beq.n	8004b8e <TIM_Base_SetConfig+0xe6>
 8004b72:	4a12      	ldr	r2, [pc, #72]	@ (8004bbc <TIM_Base_SetConfig+0x114>)
 8004b74:	4290      	cmp	r0, r2
 8004b76:	d00a      	beq.n	8004b8e <TIM_Base_SetConfig+0xe6>
 8004b78:	f102 5280 	add.w	r2, r2, #268435456	@ 0x10000000
 8004b7c:	4290      	cmp	r0, r2
 8004b7e:	d006      	beq.n	8004b8e <TIM_Base_SetConfig+0xe6>
 8004b80:	4a0f      	ldr	r2, [pc, #60]	@ (8004bc0 <TIM_Base_SetConfig+0x118>)
 8004b82:	4290      	cmp	r0, r2
 8004b84:	d003      	beq.n	8004b8e <TIM_Base_SetConfig+0xe6>
 8004b86:	f102 5280 	add.w	r2, r2, #268435456	@ 0x10000000
 8004b8a:	4290      	cmp	r0, r2
 8004b8c:	d101      	bne.n	8004b92 <TIM_Base_SetConfig+0xea>
 8004b8e:	690a      	ldr	r2, [r1, #16]
 8004b90:	6302      	str	r2, [r0, #48]	@ 0x30
 8004b92:	6802      	ldr	r2, [r0, #0]
 8004b94:	f042 0204 	orr.w	r2, r2, #4
 8004b98:	6002      	str	r2, [r0, #0]
 8004b9a:	2201      	movs	r2, #1
 8004b9c:	6142      	str	r2, [r0, #20]
 8004b9e:	6003      	str	r3, [r0, #0]
 8004ba0:	4770      	bx	lr
 8004ba2:	bf00      	nop
 8004ba4:	40012c00 	.word	0x40012c00
 8004ba8:	40000400 	.word	0x40000400
 8004bac:	40000800 	.word	0x40000800
 8004bb0:	40000c00 	.word	0x40000c00
 8004bb4:	40013400 	.word	0x40013400
 8004bb8:	40014000 	.word	0x40014000
 8004bbc:	40014400 	.word	0x40014400
 8004bc0:	40014800 	.word	0x40014800

08004bc4 <HAL_TIM_Base_Init>:
 8004bc4:	b510      	push	{r4, lr}
 8004bc6:	4604      	mov	r4, r0
 8004bc8:	b350      	cbz	r0, 8004c20 <HAL_TIM_Base_Init+0x5c>
 8004bca:	f890 303d 	ldrb.w	r3, [r0, #61]	@ 0x3d
 8004bce:	f003 02ff 	and.w	r2, r3, #255	@ 0xff
 8004bd2:	b91b      	cbnz	r3, 8004bdc <HAL_TIM_Base_Init+0x18>
 8004bd4:	f880 203c 	strb.w	r2, [r0, #60]	@ 0x3c
 8004bd8:	f7ff fe37 	bl	800484a <HAL_TIM_Base_MspInit>
 8004bdc:	2302      	movs	r3, #2
 8004bde:	6820      	ldr	r0, [r4, #0]
 8004be0:	f884 303d 	strb.w	r3, [r4, #61]	@ 0x3d
 8004be4:	1d21      	adds	r1, r4, #4
 8004be6:	f7ff ff5f 	bl	8004aa8 <TIM_Base_SetConfig>
 8004bea:	2301      	movs	r3, #1
 8004bec:	2000      	movs	r0, #0
 8004bee:	f884 3048 	strb.w	r3, [r4, #72]	@ 0x48
 8004bf2:	f884 303e 	strb.w	r3, [r4, #62]	@ 0x3e
 8004bf6:	f884 303f 	strb.w	r3, [r4, #63]	@ 0x3f
 8004bfa:	f884 3040 	strb.w	r3, [r4, #64]	@ 0x40
 8004bfe:	f884 3041 	strb.w	r3, [r4, #65]	@ 0x41
 8004c02:	f884 3042 	strb.w	r3, [r4, #66]	@ 0x42
 8004c06:	f884 3043 	strb.w	r3, [r4, #67]	@ 0x43
 8004c0a:	f884 3044 	strb.w	r3, [r4, #68]	@ 0x44
 8004c0e:	f884 3045 	strb.w	r3, [r4, #69]	@ 0x45
 8004c12:	f884 3046 	strb.w	r3, [r4, #70]	@ 0x46
 8004c16:	f884 3047 	strb.w	r3, [r4, #71]	@ 0x47
 8004c1a:	f884 303d 	strb.w	r3, [r4, #61]	@ 0x3d
 8004c1e:	bd10      	pop	{r4, pc}
 8004c20:	2001      	movs	r0, #1
 8004c22:	e7fc      	b.n	8004c1e <HAL_TIM_Base_Init+0x5a>

08004c24 <HAL_TIMEx_CommutCallback>:
 8004c24:	4770      	bx	lr

08004c26 <HAL_TIMEx_BreakCallback>:
 8004c26:	4770      	bx	lr

08004c28 <HAL_TIMEx_Break2Callback>:
 8004c28:	4770      	bx	lr

08004c2a <HAL_TIMEx_EncoderIndexCallback>:
 8004c2a:	4770      	bx	lr

08004c2c <HAL_TIMEx_DirectionChangeCallback>:
 8004c2c:	4770      	bx	lr

08004c2e <HAL_TIMEx_IndexErrorCallback>:
 8004c2e:	4770      	bx	lr

08004c30 <HAL_TIMEx_TransitionErrorCallback>:
 8004c30:	4770      	bx	lr

08004c32 <USB_CoreInit>:
 8004c32:	b084      	sub	sp, #16
 8004c34:	b513      	push	{r0, r1, r4, lr}
 8004c36:	4604      	mov	r4, r0
 8004c38:	a805      	add	r0, sp, #20
 8004c3a:	e880 000e 	stmia.w	r0, {r1, r2, r3}
 8004c3e:	68e3      	ldr	r3, [r4, #12]
 8004c40:	f043 0340 	orr.w	r3, r3, #64	@ 0x40
 8004c44:	60e3      	str	r3, [r4, #12]
 8004c46:	2300      	movs	r3, #0
 8004c48:	9301      	str	r3, [sp, #4]
 8004c4a:	9b01      	ldr	r3, [sp, #4]
 8004c4c:	3301      	adds	r3, #1
 8004c4e:	9301      	str	r3, [sp, #4]
 8004c50:	9b01      	ldr	r3, [sp, #4]
 8004c52:	f1b3 6f70 	cmp.w	r3, #251658240	@ 0xf000000
 8004c56:	d81f      	bhi.n	8004c98 <USB_CoreInit+0x66>
 8004c58:	6923      	ldr	r3, [r4, #16]
 8004c5a:	2b00      	cmp	r3, #0
 8004c5c:	daf5      	bge.n	8004c4a <USB_CoreInit+0x18>
 8004c5e:	2300      	movs	r3, #0
 8004c60:	9301      	str	r3, [sp, #4]
 8004c62:	6923      	ldr	r3, [r4, #16]
 8004c64:	f043 0301 	orr.w	r3, r3, #1
 8004c68:	6123      	str	r3, [r4, #16]
 8004c6a:	9b01      	ldr	r3, [sp, #4]
 8004c6c:	3301      	adds	r3, #1
 8004c6e:	9301      	str	r3, [sp, #4]
 8004c70:	9b01      	ldr	r3, [sp, #4]
 8004c72:	f1b3 6f70 	cmp.w	r3, #251658240	@ 0xf000000
 8004c76:	d80f      	bhi.n	8004c98 <USB_CoreInit+0x66>
 8004c78:	6920      	ldr	r0, [r4, #16]
 8004c7a:	f010 0001 	ands.w	r0, r0, #1
 8004c7e:	d1f4      	bne.n	8004c6a <USB_CoreInit+0x38>
 8004c80:	f89d 301d 	ldrb.w	r3, [sp, #29]
 8004c84:	b953      	cbnz	r3, 8004c9c <USB_CoreInit+0x6a>
 8004c86:	6ba3      	ldr	r3, [r4, #56]	@ 0x38
 8004c88:	f443 3380 	orr.w	r3, r3, #65536	@ 0x10000
 8004c8c:	63a3      	str	r3, [r4, #56]	@ 0x38
 8004c8e:	b002      	add	sp, #8
 8004c90:	e8bd 4010 	ldmia.w	sp!, {r4, lr}
 8004c94:	b004      	add	sp, #16
 8004c96:	4770      	bx	lr
 8004c98:	2003      	movs	r0, #3
 8004c9a:	e7f1      	b.n	8004c80 <USB_CoreInit+0x4e>
 8004c9c:	6ba3      	ldr	r3, [r4, #56]	@ 0x38
 8004c9e:	f423 3380 	bic.w	r3, r3, #65536	@ 0x10000
 8004ca2:	e7f3      	b.n	8004c8c <USB_CoreInit+0x5a>

08004ca4 <USB_SetTurnaroundTime>:
 8004ca4:	2a02      	cmp	r2, #2
 8004ca6:	d14a      	bne.n	8004d3e <USB_SetTurnaroundTime+0x9a>
 8004ca8:	4b27      	ldr	r3, [pc, #156]	@ (8004d48 <USB_SetTurnaroundTime+0xa4>)
 8004caa:	4a28      	ldr	r2, [pc, #160]	@ (8004d4c <USB_SetTurnaroundTime+0xa8>)
 8004cac:	440b      	add	r3, r1
 8004cae:	4293      	cmp	r3, r2
 8004cb0:	d939      	bls.n	8004d26 <USB_SetTurnaroundTime+0x82>
 8004cb2:	4b27      	ldr	r3, [pc, #156]	@ (8004d50 <USB_SetTurnaroundTime+0xac>)
 8004cb4:	4a27      	ldr	r2, [pc, #156]	@ (8004d54 <USB_SetTurnaroundTime+0xb0>)
 8004cb6:	440b      	add	r3, r1
 8004cb8:	4293      	cmp	r3, r2
 8004cba:	d936      	bls.n	8004d2a <USB_SetTurnaroundTime+0x86>
 8004cbc:	4a26      	ldr	r2, [pc, #152]	@ (8004d58 <USB_SetTurnaroundTime+0xb4>)
 8004cbe:	f5a1 0374 	sub.w	r3, r1, #15990784	@ 0xf40000
 8004cc2:	f5a3 5310 	sub.w	r3, r3, #9216	@ 0x2400
 8004cc6:	4293      	cmp	r3, r2
 8004cc8:	d931      	bls.n	8004d2e <USB_SetTurnaroundTime+0x8a>
 8004cca:	4a24      	ldr	r2, [pc, #144]	@ (8004d5c <USB_SetTurnaroundTime+0xb8>)
 8004ccc:	f1a1 7383 	sub.w	r3, r1, #17170432	@ 0x1060000
 8004cd0:	f5a3 43e7 	sub.w	r3, r3, #29568	@ 0x7380
 8004cd4:	4293      	cmp	r3, r2
 8004cd6:	d32c      	bcc.n	8004d32 <USB_SetTurnaroundTime+0x8e>
 8004cd8:	4b21      	ldr	r3, [pc, #132]	@ (8004d60 <USB_SetTurnaroundTime+0xbc>)
 8004cda:	4a22      	ldr	r2, [pc, #136]	@ (8004d64 <USB_SetTurnaroundTime+0xc0>)
 8004cdc:	440b      	add	r3, r1
 8004cde:	4293      	cmp	r3, r2
 8004ce0:	d929      	bls.n	8004d36 <USB_SetTurnaroundTime+0x92>
 8004ce2:	4b21      	ldr	r3, [pc, #132]	@ (8004d68 <USB_SetTurnaroundTime+0xc4>)
 8004ce4:	4a21      	ldr	r2, [pc, #132]	@ (8004d6c <USB_SetTurnaroundTime+0xc8>)
 8004ce6:	440b      	add	r3, r1
 8004ce8:	4293      	cmp	r3, r2
 8004cea:	d326      	bcc.n	8004d3a <USB_SetTurnaroundTime+0x96>
 8004cec:	4b20      	ldr	r3, [pc, #128]	@ (8004d70 <USB_SetTurnaroundTime+0xcc>)
 8004cee:	4a21      	ldr	r2, [pc, #132]	@ (8004d74 <USB_SetTurnaroundTime+0xd0>)
 8004cf0:	440b      	add	r3, r1
 8004cf2:	4293      	cmp	r3, r2
 8004cf4:	d323      	bcc.n	8004d3e <USB_SetTurnaroundTime+0x9a>
 8004cf6:	4a20      	ldr	r2, [pc, #128]	@ (8004d78 <USB_SetTurnaroundTime+0xd4>)
 8004cf8:	f1a1 73b7 	sub.w	r3, r1, #23986176	@ 0x16e0000
 8004cfc:	f5a3 5358 	sub.w	r3, r3, #13824	@ 0x3600
 8004d00:	4293      	cmp	r3, r2
 8004d02:	d31e      	bcc.n	8004d42 <USB_SetTurnaroundTime+0x9e>
 8004d04:	4b1d      	ldr	r3, [pc, #116]	@ (8004d7c <USB_SetTurnaroundTime+0xd8>)
 8004d06:	4a1e      	ldr	r2, [pc, #120]	@ (8004d80 <USB_SetTurnaroundTime+0xdc>)
 8004d08:	440b      	add	r3, r1
 8004d0a:	4293      	cmp	r3, r2
 8004d0c:	bf2c      	ite	cs
 8004d0e:	2306      	movcs	r3, #6
 8004d10:	2307      	movcc	r3, #7
 8004d12:	68c2      	ldr	r2, [r0, #12]
 8004d14:	f422 5270 	bic.w	r2, r2, #15360	@ 0x3c00
 8004d18:	60c2      	str	r2, [r0, #12]
 8004d1a:	68c2      	ldr	r2, [r0, #12]
 8004d1c:	ea42 2383 	orr.w	r3, r2, r3, lsl #10
 8004d20:	60c3      	str	r3, [r0, #12]
 8004d22:	2000      	movs	r0, #0
 8004d24:	4770      	bx	lr
 8004d26:	230f      	movs	r3, #15
 8004d28:	e7f3      	b.n	8004d12 <USB_SetTurnaroundTime+0x6e>
 8004d2a:	230e      	movs	r3, #14
 8004d2c:	e7f1      	b.n	8004d12 <USB_SetTurnaroundTime+0x6e>
 8004d2e:	230d      	movs	r3, #13
 8004d30:	e7ef      	b.n	8004d12 <USB_SetTurnaroundTime+0x6e>
 8004d32:	230c      	movs	r3, #12
 8004d34:	e7ed      	b.n	8004d12 <USB_SetTurnaroundTime+0x6e>
 8004d36:	230b      	movs	r3, #11
 8004d38:	e7eb      	b.n	8004d12 <USB_SetTurnaroundTime+0x6e>
 8004d3a:	230a      	movs	r3, #10
 8004d3c:	e7e9      	b.n	8004d12 <USB_SetTurnaroundTime+0x6e>
 8004d3e:	2309      	movs	r3, #9
 8004d40:	e7e7      	b.n	8004d12 <USB_SetTurnaroundTime+0x6e>
 8004d42:	2308      	movs	r3, #8
 8004d44:	e7e5      	b.n	8004d12 <USB_SetTurnaroundTime+0x6e>
 8004d46:	bf00      	nop
 8004d48:	ff275340 	.word	0xff275340
 8004d4c:	000c34ff 	.word	0x000c34ff
 8004d50:	ff1b1e40 	.word	0xff1b1e40
 8004d54:	000f423f 	.word	0x000f423f
 8004d58:	00124f7f 	.word	0x00124f7f
 8004d5c:	0013d620 	.word	0x0013d620
 8004d60:	fee5b660 	.word	0xfee5b660
 8004d64:	0016e35f 	.word	0x0016e35f
 8004d68:	feced300 	.word	0xfeced300
 8004d6c:	001b7740 	.word	0x001b7740
 8004d70:	feb35bc0 	.word	0xfeb35bc0
 8004d74:	002191c0 	.word	0x002191c0
 8004d78:	00387520 	.word	0x00387520
 8004d7c:	fe5954e0 	.word	0xfe5954e0
 8004d80:	00419ce0 	.word	0x00419ce0

08004d84 <USB_EnableGlobalInt>:
 8004d84:	6883      	ldr	r3, [r0, #8]
 8004d86:	f043 0301 	orr.w	r3, r3, #1
 8004d8a:	6083      	str	r3, [r0, #8]
 8004d8c:	2000      	movs	r0, #0
 8004d8e:	4770      	bx	lr

08004d90 <USB_DisableGlobalInt>:
 8004d90:	6883      	ldr	r3, [r0, #8]
 8004d92:	f023 0301 	bic.w	r3, r3, #1
 8004d96:	6083      	str	r3, [r0, #8]
 8004d98:	2000      	movs	r0, #0
 8004d9a:	4770      	bx	lr

08004d9c <USB_SetCurrentMode>:
 8004d9c:	b538      	push	{r3, r4, r5, lr}
 8004d9e:	68c3      	ldr	r3, [r0, #12]
 8004da0:	2901      	cmp	r1, #1
 8004da2:	f023 43c0 	bic.w	r3, r3, #1610612736	@ 0x60000000
 8004da6:	4605      	mov	r5, r0
 8004da8:	460c      	mov	r4, r1
 8004daa:	60c3      	str	r3, [r0, #12]
 8004dac:	d113      	bne.n	8004dd6 <USB_SetCurrentMode+0x3a>
 8004dae:	2400      	movs	r4, #0
 8004db0:	68c3      	ldr	r3, [r0, #12]
 8004db2:	f043 5300 	orr.w	r3, r3, #536870912	@ 0x20000000
 8004db6:	60c3      	str	r3, [r0, #12]
 8004db8:	200a      	movs	r0, #10
 8004dba:	f7fc fa3f 	bl	800123c <HAL_Delay>
 8004dbe:	696b      	ldr	r3, [r5, #20]
 8004dc0:	340a      	adds	r4, #10
 8004dc2:	07d9      	lsls	r1, r3, #31
 8004dc4:	d402      	bmi.n	8004dcc <USB_SetCurrentMode+0x30>
 8004dc6:	2cc8      	cmp	r4, #200	@ 0xc8
 8004dc8:	d1f6      	bne.n	8004db8 <USB_SetCurrentMode+0x1c>
 8004dca:	24c8      	movs	r4, #200	@ 0xc8
 8004dcc:	f1a4 03c8 	sub.w	r3, r4, #200	@ 0xc8
 8004dd0:	4258      	negs	r0, r3
 8004dd2:	4158      	adcs	r0, r3
 8004dd4:	bd38      	pop	{r3, r4, r5, pc}
 8004dd6:	b969      	cbnz	r1, 8004df4 <USB_SetCurrentMode+0x58>
 8004dd8:	68c3      	ldr	r3, [r0, #12]
 8004dda:	f043 4380 	orr.w	r3, r3, #1073741824	@ 0x40000000
 8004dde:	60c3      	str	r3, [r0, #12]
 8004de0:	200a      	movs	r0, #10
 8004de2:	f7fc fa2b 	bl	800123c <HAL_Delay>
 8004de6:	696b      	ldr	r3, [r5, #20]
 8004de8:	340a      	adds	r4, #10
 8004dea:	07da      	lsls	r2, r3, #31
 8004dec:	d5ee      	bpl.n	8004dcc <USB_SetCurrentMode+0x30>
 8004dee:	2cc8      	cmp	r4, #200	@ 0xc8
 8004df0:	d1f6      	bne.n	8004de0 <USB_SetCurrentMode+0x44>
 8004df2:	e7ea      	b.n	8004dca <USB_SetCurrentMode+0x2e>
 8004df4:	2001      	movs	r0, #1
 8004df6:	e7ed      	b.n	8004dd4 <USB_SetCurrentMode+0x38>

08004df8 <USB_FlushTxFifo>:
 8004df8:	2300      	movs	r3, #0
 8004dfa:	4602      	mov	r2, r0
 8004dfc:	b082      	sub	sp, #8
 8004dfe:	9301      	str	r3, [sp, #4]
 8004e00:	9b01      	ldr	r3, [sp, #4]
 8004e02:	3301      	adds	r3, #1
 8004e04:	9301      	str	r3, [sp, #4]
 8004e06:	9b01      	ldr	r3, [sp, #4]
 8004e08:	f1b3 6f70 	cmp.w	r3, #251658240	@ 0xf000000
 8004e0c:	d815      	bhi.n	8004e3a <USB_FlushTxFifo+0x42>
 8004e0e:	6913      	ldr	r3, [r2, #16]
 8004e10:	2b00      	cmp	r3, #0
 8004e12:	daf5      	bge.n	8004e00 <USB_FlushTxFifo+0x8>
 8004e14:	2300      	movs	r3, #0
 8004e16:	0189      	lsls	r1, r1, #6
 8004e18:	f041 0120 	orr.w	r1, r1, #32
 8004e1c:	9301      	str	r3, [sp, #4]
 8004e1e:	6111      	str	r1, [r2, #16]
 8004e20:	9b01      	ldr	r3, [sp, #4]
 8004e22:	3301      	adds	r3, #1
 8004e24:	9301      	str	r3, [sp, #4]
 8004e26:	9b01      	ldr	r3, [sp, #4]
 8004e28:	f1b3 6f70 	cmp.w	r3, #251658240	@ 0xf000000
 8004e2c:	d805      	bhi.n	8004e3a <USB_FlushTxFifo+0x42>
 8004e2e:	6910      	ldr	r0, [r2, #16]
 8004e30:	f010 0020 	ands.w	r0, r0, #32
 8004e34:	d1f4      	bne.n	8004e20 <USB_FlushTxFifo+0x28>
 8004e36:	b002      	add	sp, #8
 8004e38:	4770      	bx	lr
 8004e3a:	2003      	movs	r0, #3
 8004e3c:	e7fb      	b.n	8004e36 <USB_FlushTxFifo+0x3e>

08004e3e <USB_FlushRxFifo>:
 8004e3e:	2300      	movs	r3, #0
 8004e40:	4602      	mov	r2, r0
 8004e42:	b082      	sub	sp, #8
 8004e44:	9301      	str	r3, [sp, #4]
 8004e46:	9b01      	ldr	r3, [sp, #4]
 8004e48:	3301      	adds	r3, #1
 8004e4a:	9301      	str	r3, [sp, #4]
 8004e4c:	9b01      	ldr	r3, [sp, #4]
 8004e4e:	f1b3 6f70 	cmp.w	r3, #251658240	@ 0xf000000
 8004e52:	d813      	bhi.n	8004e7c <USB_FlushRxFifo+0x3e>
 8004e54:	6913      	ldr	r3, [r2, #16]
 8004e56:	2b00      	cmp	r3, #0
 8004e58:	daf5      	bge.n	8004e46 <USB_FlushRxFifo+0x8>
 8004e5a:	2300      	movs	r3, #0
 8004e5c:	9301      	str	r3, [sp, #4]
 8004e5e:	2310      	movs	r3, #16
 8004e60:	6113      	str	r3, [r2, #16]
 8004e62:	9b01      	ldr	r3, [sp, #4]
 8004e64:	3301      	adds	r3, #1
 8004e66:	9301      	str	r3, [sp, #4]
 8004e68:	9b01      	ldr	r3, [sp, #4]
 8004e6a:	f1b3 6f70 	cmp.w	r3, #251658240	@ 0xf000000
 8004e6e:	d805      	bhi.n	8004e7c <USB_FlushRxFifo+0x3e>
 8004e70:	6910      	ldr	r0, [r2, #16]
 8004e72:	f010 0010 	ands.w	r0, r0, #16
 8004e76:	d1f4      	bne.n	8004e62 <USB_FlushRxFifo+0x24>
 8004e78:	b002      	add	sp, #8
 8004e7a:	4770      	bx	lr
 8004e7c:	2003      	movs	r0, #3
 8004e7e:	e7fb      	b.n	8004e78 <USB_FlushRxFifo+0x3a>

08004e80 <USB_SetDevSpeed>:
 8004e80:	f8d0 3800 	ldr.w	r3, [r0, #2048]	@ 0x800
 8004e84:	4319      	orrs	r1, r3
 8004e86:	f8c0 1800 	str.w	r1, [r0, #2048]	@ 0x800
 8004e8a:	2000      	movs	r0, #0
 8004e8c:	4770      	bx	lr
	...

08004e90 <USB_DevInit>:
 8004e90:	b084      	sub	sp, #16
 8004e92:	e92d 43f8 	stmdb	sp!, {r3, r4, r5, r6, r7, r8, r9, lr}
 8004e96:	4604      	mov	r4, r0
 8004e98:	a809      	add	r0, sp, #36	@ 0x24
 8004e9a:	e880 000e 	stmia.w	r0, {r1, r2, r3}
 8004e9e:	2300      	movs	r3, #0
 8004ea0:	4619      	mov	r1, r3
 8004ea2:	f89d 8024 	ldrb.w	r8, [sp, #36]	@ 0x24
 8004ea6:	f89d 702e 	ldrb.w	r7, [sp, #46]	@ 0x2e
 8004eaa:	f103 0240 	add.w	r2, r3, #64	@ 0x40
 8004eae:	3301      	adds	r3, #1
 8004eb0:	eb04 0282 	add.w	r2, r4, r2, lsl #2
 8004eb4:	2b0f      	cmp	r3, #15
 8004eb6:	6051      	str	r1, [r2, #4]
 8004eb8:	d1f7      	bne.n	8004eaa <USB_DevInit+0x1a>
 8004eba:	f504 6600 	add.w	r6, r4, #2048	@ 0x800
 8004ebe:	2f00      	cmp	r7, #0
 8004ec0:	d164      	bne.n	8004f8c <USB_DevInit+0xfc>
 8004ec2:	6873      	ldr	r3, [r6, #4]
 8004ec4:	f043 0302 	orr.w	r3, r3, #2
 8004ec8:	6073      	str	r3, [r6, #4]
 8004eca:	6ba3      	ldr	r3, [r4, #56]	@ 0x38
 8004ecc:	f423 1300 	bic.w	r3, r3, #2097152	@ 0x200000
 8004ed0:	63a3      	str	r3, [r4, #56]	@ 0x38
 8004ed2:	6823      	ldr	r3, [r4, #0]
 8004ed4:	f043 0340 	orr.w	r3, r3, #64	@ 0x40
 8004ed8:	6023      	str	r3, [r4, #0]
 8004eda:	6823      	ldr	r3, [r4, #0]
 8004edc:	f043 0380 	orr.w	r3, r3, #128	@ 0x80
 8004ee0:	6023      	str	r3, [r4, #0]
 8004ee2:	2500      	movs	r5, #0
 8004ee4:	2103      	movs	r1, #3
 8004ee6:	4620      	mov	r0, r4
 8004ee8:	f8c4 5e00 	str.w	r5, [r4, #3584]	@ 0xe00
 8004eec:	f7ff ffc8 	bl	8004e80 <USB_SetDevSpeed>
 8004ef0:	2110      	movs	r1, #16
 8004ef2:	4620      	mov	r0, r4
 8004ef4:	f7ff ff80 	bl	8004df8 <USB_FlushTxFifo>
 8004ef8:	4601      	mov	r1, r0
 8004efa:	4620      	mov	r0, r4
 8004efc:	f7ff ff9f 	bl	8004e3e <USB_FlushRxFifo>
 8004f00:	4308      	orrs	r0, r1
 8004f02:	b2c0      	uxtb	r0, r0
 8004f04:	1b40      	subs	r0, r0, r5
 8004f06:	bf18      	it	ne
 8004f08:	2001      	movne	r0, #1
 8004f0a:	462a      	mov	r2, r5
 8004f0c:	f04f 4190 	mov.w	r1, #1207959552	@ 0x48000000
 8004f10:	f04f 6c00 	mov.w	ip, #134217728	@ 0x8000000
 8004f14:	f64f 3e7f 	movw	lr, #64383	@ 0xfb7f
 8004f18:	6135      	str	r5, [r6, #16]
 8004f1a:	f504 6310 	add.w	r3, r4, #2304	@ 0x900
 8004f1e:	6175      	str	r5, [r6, #20]
 8004f20:	61f5      	str	r5, [r6, #28]
 8004f22:	45a8      	cmp	r8, r5
 8004f24:	d837      	bhi.n	8004f96 <USB_DevInit+0x106>
 8004f26:	2200      	movs	r2, #0
 8004f28:	f04f 4590 	mov.w	r5, #1207959552	@ 0x48000000
 8004f2c:	4611      	mov	r1, r2
 8004f2e:	f04f 6c00 	mov.w	ip, #134217728	@ 0x8000000
 8004f32:	f64f 3e7f 	movw	lr, #64383	@ 0xfb7f
 8004f36:	f504 6330 	add.w	r3, r4, #2816	@ 0xb00
 8004f3a:	4590      	cmp	r8, r2
 8004f3c:	d83d      	bhi.n	8004fba <USB_DevInit+0x12a>
 8004f3e:	6933      	ldr	r3, [r6, #16]
 8004f40:	f423 7380 	bic.w	r3, r3, #256	@ 0x100
 8004f44:	6133      	str	r3, [r6, #16]
 8004f46:	2300      	movs	r3, #0
 8004f48:	61a3      	str	r3, [r4, #24]
 8004f4a:	f06f 4380 	mvn.w	r3, #1073741824	@ 0x40000000
 8004f4e:	6163      	str	r3, [r4, #20]
 8004f50:	f89d 3026 	ldrb.w	r3, [sp, #38]	@ 0x26
 8004f54:	b91b      	cbnz	r3, 8004f5e <USB_DevInit+0xce>
 8004f56:	69a3      	ldr	r3, [r4, #24]
 8004f58:	f043 0310 	orr.w	r3, r3, #16
 8004f5c:	61a3      	str	r3, [r4, #24]
 8004f5e:	69a2      	ldr	r2, [r4, #24]
 8004f60:	4b1f      	ldr	r3, [pc, #124]	@ (8004fe0 <USB_DevInit+0x150>)
 8004f62:	4313      	orrs	r3, r2
 8004f64:	61a3      	str	r3, [r4, #24]
 8004f66:	f89d 302a 	ldrb.w	r3, [sp, #42]	@ 0x2a
 8004f6a:	b11b      	cbz	r3, 8004f74 <USB_DevInit+0xe4>
 8004f6c:	69a3      	ldr	r3, [r4, #24]
 8004f6e:	f043 0308 	orr.w	r3, r3, #8
 8004f72:	61a3      	str	r3, [r4, #24]
 8004f74:	2f01      	cmp	r7, #1
 8004f76:	bf01      	itttt	eq
 8004f78:	69a3      	ldreq	r3, [r4, #24]
 8004f7a:	f043 4380 	orreq.w	r3, r3, #1073741824	@ 0x40000000
 8004f7e:	f043 0304 	orreq.w	r3, r3, #4
 8004f82:	61a3      	streq	r3, [r4, #24]
 8004f84:	e8bd 43f8 	ldmia.w	sp!, {r3, r4, r5, r6, r7, r8, r9, lr}
 8004f88:	b004      	add	sp, #16
 8004f8a:	4770      	bx	lr
 8004f8c:	6ba3      	ldr	r3, [r4, #56]	@ 0x38
 8004f8e:	f443 1300 	orr.w	r3, r3, #2097152	@ 0x200000
 8004f92:	63a3      	str	r3, [r4, #56]	@ 0x38
 8004f94:	e7a5      	b.n	8004ee2 <USB_DevInit+0x52>
 8004f96:	f8d3 9000 	ldr.w	r9, [r3]
 8004f9a:	f1b9 0f00 	cmp.w	r9, #0
 8004f9e:	da0a      	bge.n	8004fb6 <USB_DevInit+0x126>
 8004fa0:	b93d      	cbnz	r5, 8004fb2 <USB_DevInit+0x122>
 8004fa2:	f8c3 c000 	str.w	ip, [r3]
 8004fa6:	611a      	str	r2, [r3, #16]
 8004fa8:	3501      	adds	r5, #1
 8004faa:	f8c3 e008 	str.w	lr, [r3, #8]
 8004fae:	3320      	adds	r3, #32
 8004fb0:	e7b7      	b.n	8004f22 <USB_DevInit+0x92>
 8004fb2:	6019      	str	r1, [r3, #0]
 8004fb4:	e7f7      	b.n	8004fa6 <USB_DevInit+0x116>
 8004fb6:	601a      	str	r2, [r3, #0]
 8004fb8:	e7f5      	b.n	8004fa6 <USB_DevInit+0x116>
 8004fba:	f8d3 9000 	ldr.w	r9, [r3]
 8004fbe:	f1b9 0f00 	cmp.w	r9, #0
 8004fc2:	da0a      	bge.n	8004fda <USB_DevInit+0x14a>
 8004fc4:	b93a      	cbnz	r2, 8004fd6 <USB_DevInit+0x146>
 8004fc6:	f8c3 c000 	str.w	ip, [r3]
 8004fca:	6119      	str	r1, [r3, #16]
 8004fcc:	3201      	adds	r2, #1
 8004fce:	f8c3 e008 	str.w	lr, [r3, #8]
 8004fd2:	3320      	adds	r3, #32
 8004fd4:	e7b1      	b.n	8004f3a <USB_DevInit+0xaa>
 8004fd6:	601d      	str	r5, [r3, #0]
 8004fd8:	e7f7      	b.n	8004fca <USB_DevInit+0x13a>
 8004fda:	6019      	str	r1, [r3, #0]
 8004fdc:	e7f5      	b.n	8004fca <USB_DevInit+0x13a>
 8004fde:	bf00      	nop
 8004fe0:	803c3800 	.word	0x803c3800

08004fe4 <USB_GetDevSpeed>:
 8004fe4:	f8d0 3808 	ldr.w	r3, [r0, #2056]	@ 0x808
 8004fe8:	f013 0006 	ands.w	r0, r3, #6
 8004fec:	d004      	beq.n	8004ff8 <USB_GetDevSpeed+0x14>
 8004fee:	f013 0f02 	tst.w	r3, #2
 8004ff2:	bf14      	ite	ne
 8004ff4:	2002      	movne	r0, #2
 8004ff6:	200f      	moveq	r0, #15
 8004ff8:	4770      	bx	lr

08004ffa <USB_ActivateEndpoint>:
 8004ffa:	2201      	movs	r2, #1
 8004ffc:	b530      	push	{r4, r5, lr}
 8004ffe:	780c      	ldrb	r4, [r1, #0]
 8005000:	f500 6300 	add.w	r3, r0, #2048	@ 0x800
 8005004:	f004 050f 	and.w	r5, r4, #15
 8005008:	40aa      	lsls	r2, r5
 800500a:	784d      	ldrb	r5, [r1, #1]
 800500c:	eb00 1044 	add.w	r0, r0, r4, lsl #5
 8005010:	2d01      	cmp	r5, #1
 8005012:	d119      	bne.n	8005048 <USB_ActivateEndpoint+0x4e>
 8005014:	69dd      	ldr	r5, [r3, #28]
 8005016:	432a      	orrs	r2, r5
 8005018:	61da      	str	r2, [r3, #28]
 800501a:	f8d0 3900 	ldr.w	r3, [r0, #2304]	@ 0x900
 800501e:	041a      	lsls	r2, r3, #16
 8005020:	d410      	bmi.n	8005044 <USB_ActivateEndpoint+0x4a>
 8005022:	688a      	ldr	r2, [r1, #8]
 8005024:	f8d0 5900 	ldr.w	r5, [r0, #2304]	@ 0x900
 8005028:	f3c2 030a 	ubfx	r3, r2, #0, #11
 800502c:	790a      	ldrb	r2, [r1, #4]
 800502e:	432b      	orrs	r3, r5
 8005030:	ea43 4382 	orr.w	r3, r3, r2, lsl #18
 8005034:	ea43 5384 	orr.w	r3, r3, r4, lsl #22
 8005038:	f043 5380 	orr.w	r3, r3, #268435456	@ 0x10000000
 800503c:	f443 4300 	orr.w	r3, r3, #32768	@ 0x8000
 8005040:	f8c0 3900 	str.w	r3, [r0, #2304]	@ 0x900
 8005044:	2000      	movs	r0, #0
 8005046:	bd30      	pop	{r4, r5, pc}
 8005048:	69dc      	ldr	r4, [r3, #28]
 800504a:	ea44 4202 	orr.w	r2, r4, r2, lsl #16
 800504e:	61da      	str	r2, [r3, #28]
 8005050:	f8d0 3b00 	ldr.w	r3, [r0, #2816]	@ 0xb00
 8005054:	041b      	lsls	r3, r3, #16
 8005056:	d4f5      	bmi.n	8005044 <USB_ActivateEndpoint+0x4a>
 8005058:	688b      	ldr	r3, [r1, #8]
 800505a:	f8d0 2b00 	ldr.w	r2, [r0, #2816]	@ 0xb00
 800505e:	f3c3 030a 	ubfx	r3, r3, #0, #11
 8005062:	4313      	orrs	r3, r2
 8005064:	790a      	ldrb	r2, [r1, #4]
 8005066:	ea43 4382 	orr.w	r3, r3, r2, lsl #18
 800506a:	f043 5380 	orr.w	r3, r3, #268435456	@ 0x10000000
 800506e:	f443 4300 	orr.w	r3, r3, #32768	@ 0x8000
 8005072:	f8c0 3b00 	str.w	r3, [r0, #2816]	@ 0xb00
 8005076:	e7e5      	b.n	8005044 <USB_ActivateEndpoint+0x4a>

08005078 <USB_DeactivateEndpoint>:
 8005078:	b510      	push	{r4, lr}
 800507a:	780a      	ldrb	r2, [r1, #0]
 800507c:	7849      	ldrb	r1, [r1, #1]
 800507e:	eb00 1342 	add.w	r3, r0, r2, lsl #5
 8005082:	2901      	cmp	r1, #1
 8005084:	f500 6000 	add.w	r0, r0, #2048	@ 0x800
 8005088:	f002 020f 	and.w	r2, r2, #15
 800508c:	d122      	bne.n	80050d4 <USB_DeactivateEndpoint+0x5c>
 800508e:	f8d3 1900 	ldr.w	r1, [r3, #2304]	@ 0x900
 8005092:	2900      	cmp	r1, #0
 8005094:	da0b      	bge.n	80050ae <USB_DeactivateEndpoint+0x36>
 8005096:	f8d3 1900 	ldr.w	r1, [r3, #2304]	@ 0x900
 800509a:	f041 6100 	orr.w	r1, r1, #134217728	@ 0x8000000
 800509e:	f8c3 1900 	str.w	r1, [r3, #2304]	@ 0x900
 80050a2:	f8d3 1900 	ldr.w	r1, [r3, #2304]	@ 0x900
 80050a6:	f041 4180 	orr.w	r1, r1, #1073741824	@ 0x40000000
 80050aa:	f8c3 1900 	str.w	r1, [r3, #2304]	@ 0x900
 80050ae:	2101      	movs	r1, #1
 80050b0:	6bc4      	ldr	r4, [r0, #60]	@ 0x3c
 80050b2:	fa01 f202 	lsl.w	r2, r1, r2
 80050b6:	ea24 0402 	bic.w	r4, r4, r2
 80050ba:	63c4      	str	r4, [r0, #60]	@ 0x3c
 80050bc:	69c1      	ldr	r1, [r0, #28]
 80050be:	ea21 0202 	bic.w	r2, r1, r2
 80050c2:	61c2      	str	r2, [r0, #28]
 80050c4:	f8d3 1900 	ldr.w	r1, [r3, #2304]	@ 0x900
 80050c8:	4a14      	ldr	r2, [pc, #80]	@ (800511c <USB_DeactivateEndpoint+0xa4>)
 80050ca:	400a      	ands	r2, r1
 80050cc:	f8c3 2900 	str.w	r2, [r3, #2304]	@ 0x900
 80050d0:	2000      	movs	r0, #0
 80050d2:	bd10      	pop	{r4, pc}
 80050d4:	f8d3 1b00 	ldr.w	r1, [r3, #2816]	@ 0xb00
 80050d8:	2900      	cmp	r1, #0
 80050da:	da0b      	bge.n	80050f4 <USB_DeactivateEndpoint+0x7c>
 80050dc:	f8d3 1b00 	ldr.w	r1, [r3, #2816]	@ 0xb00
 80050e0:	f041 6100 	orr.w	r1, r1, #134217728	@ 0x8000000
 80050e4:	f8c3 1b00 	str.w	r1, [r3, #2816]	@ 0xb00
 80050e8:	f8d3 1b00 	ldr.w	r1, [r3, #2816]	@ 0xb00
 80050ec:	f041 4180 	orr.w	r1, r1, #1073741824	@ 0x40000000
 80050f0:	f8c3 1b00 	str.w	r1, [r3, #2816]	@ 0xb00
 80050f4:	f44f 3180 	mov.w	r1, #65536	@ 0x10000
 80050f8:	6bc4      	ldr	r4, [r0, #60]	@ 0x3c
 80050fa:	fa01 f202 	lsl.w	r2, r1, r2
 80050fe:	ea24 0402 	bic.w	r4, r4, r2
 8005102:	63c4      	str	r4, [r0, #60]	@ 0x3c
 8005104:	69c1      	ldr	r1, [r0, #28]
 8005106:	ea21 0202 	bic.w	r2, r1, r2
 800510a:	61c2      	str	r2, [r0, #28]
 800510c:	f8d3 1b00 	ldr.w	r1, [r3, #2816]	@ 0xb00
 8005110:	4a03      	ldr	r2, [pc, #12]	@ (8005120 <USB_DeactivateEndpoint+0xa8>)
 8005112:	400a      	ands	r2, r1
 8005114:	f8c3 2b00 	str.w	r2, [r3, #2816]	@ 0xb00
 8005118:	e7da      	b.n	80050d0 <USB_DeactivateEndpoint+0x58>
 800511a:	bf00      	nop
 800511c:	ec337800 	.word	0xec337800
 8005120:	eff37800 	.word	0xeff37800

08005124 <USB_EPStopXfer>:
 8005124:	2300      	movs	r3, #0
 8005126:	784a      	ldrb	r2, [r1, #1]
 8005128:	b082      	sub	sp, #8
 800512a:	9301      	str	r3, [sp, #4]
 800512c:	780b      	ldrb	r3, [r1, #0]
 800512e:	2a01      	cmp	r2, #1
 8005130:	ea4f 1343 	mov.w	r3, r3, lsl #5
 8005134:	d11e      	bne.n	8005174 <USB_EPStopXfer+0x50>
 8005136:	f500 6010 	add.w	r0, r0, #2304	@ 0x900
 800513a:	58c2      	ldr	r2, [r0, r3]
 800513c:	18c1      	adds	r1, r0, r3
 800513e:	2a00      	cmp	r2, #0
 8005140:	db02      	blt.n	8005148 <USB_EPStopXfer+0x24>
 8005142:	2000      	movs	r0, #0
 8005144:	b002      	add	sp, #8
 8005146:	4770      	bx	lr
 8005148:	58c2      	ldr	r2, [r0, r3]
 800514a:	f042 6200 	orr.w	r2, r2, #134217728	@ 0x8000000
 800514e:	50c2      	str	r2, [r0, r3]
 8005150:	58c2      	ldr	r2, [r0, r3]
 8005152:	f042 4280 	orr.w	r2, r2, #1073741824	@ 0x40000000
 8005156:	50c2      	str	r2, [r0, r3]
 8005158:	f242 7210 	movw	r2, #10000	@ 0x2710
 800515c:	9b01      	ldr	r3, [sp, #4]
 800515e:	3301      	adds	r3, #1
 8005160:	9301      	str	r3, [sp, #4]
 8005162:	9b01      	ldr	r3, [sp, #4]
 8005164:	4293      	cmp	r3, r2
 8005166:	d901      	bls.n	800516c <USB_EPStopXfer+0x48>
 8005168:	2001      	movs	r0, #1
 800516a:	e7eb      	b.n	8005144 <USB_EPStopXfer+0x20>
 800516c:	680b      	ldr	r3, [r1, #0]
 800516e:	2b00      	cmp	r3, #0
 8005170:	dbf4      	blt.n	800515c <USB_EPStopXfer+0x38>
 8005172:	e7e6      	b.n	8005142 <USB_EPStopXfer+0x1e>
 8005174:	f500 6030 	add.w	r0, r0, #2816	@ 0xb00
 8005178:	58c2      	ldr	r2, [r0, r3]
 800517a:	18c1      	adds	r1, r0, r3
 800517c:	2a00      	cmp	r2, #0
 800517e:	dae0      	bge.n	8005142 <USB_EPStopXfer+0x1e>
 8005180:	58c2      	ldr	r2, [r0, r3]
 8005182:	f042 6200 	orr.w	r2, r2, #134217728	@ 0x8000000
 8005186:	50c2      	str	r2, [r0, r3]
 8005188:	58c2      	ldr	r2, [r0, r3]
 800518a:	f042 4280 	orr.w	r2, r2, #1073741824	@ 0x40000000
 800518e:	50c2      	str	r2, [r0, r3]
 8005190:	f242 7210 	movw	r2, #10000	@ 0x2710
 8005194:	9b01      	ldr	r3, [sp, #4]
 8005196:	3301      	adds	r3, #1
 8005198:	9301      	str	r3, [sp, #4]
 800519a:	9b01      	ldr	r3, [sp, #4]
 800519c:	4293      	cmp	r3, r2
 800519e:	d8e3      	bhi.n	8005168 <USB_EPStopXfer+0x44>
 80051a0:	680b      	ldr	r3, [r1, #0]
 80051a2:	2b00      	cmp	r3, #0
 80051a4:	dbf6      	blt.n	8005194 <USB_EPStopXfer+0x70>
 80051a6:	e7cc      	b.n	8005142 <USB_EPStopXfer+0x1e>

080051a8 <USB_WritePacket>:
 80051a8:	b510      	push	{r4, lr}
 80051aa:	f89d 4008 	ldrb.w	r4, [sp, #8]
 80051ae:	b944      	cbnz	r4, 80051c2 <USB_WritePacket+0x1a>
 80051b0:	3303      	adds	r3, #3
 80051b2:	3201      	adds	r2, #1
 80051b4:	089b      	lsrs	r3, r3, #2
 80051b6:	eb00 3002 	add.w	r0, r0, r2, lsl #12
 80051ba:	eb01 0383 	add.w	r3, r1, r3, lsl #2
 80051be:	4299      	cmp	r1, r3
 80051c0:	d101      	bne.n	80051c6 <USB_WritePacket+0x1e>
 80051c2:	2000      	movs	r0, #0
 80051c4:	bd10      	pop	{r4, pc}
 80051c6:	f851 2b04 	ldr.w	r2, [r1], #4
 80051ca:	6002      	str	r2, [r0, #0]
 80051cc:	e7f7      	b.n	80051be <USB_WritePacket+0x16>
	...

080051d0 <USB_EPStartXfer>:
 80051d0:	e92d 41f3 	stmdb	sp!, {r0, r1, r4, r5, r6, r7, r8, lr}
 80051d4:	784b      	ldrb	r3, [r1, #1]
 80051d6:	4616      	mov	r6, r2
 80051d8:	780a      	ldrb	r2, [r1, #0]
 80051da:	2b01      	cmp	r3, #1
 80051dc:	690c      	ldr	r4, [r1, #16]
 80051de:	790f      	ldrb	r7, [r1, #4]
 80051e0:	f8df e1e8 	ldr.w	lr, [pc, #488]	@ 80053cc <USB_EPStartXfer+0x1fc>
 80051e4:	f8df 81e8 	ldr.w	r8, [pc, #488]	@ 80053d0 <USB_EPStartXfer+0x200>
 80051e8:	eb00 1542 	add.w	r5, r0, r2, lsl #5
 80051ec:	f040 8097 	bne.w	800531e <USB_EPStartXfer+0x14e>
 80051f0:	f505 6c10 	add.w	ip, r5, #2304	@ 0x900
 80051f4:	f8dc 3010 	ldr.w	r3, [ip, #16]
 80051f8:	bb74      	cbnz	r4, 8005258 <USB_EPStartXfer+0x88>
 80051fa:	ea03 030e 	and.w	r3, r3, lr
 80051fe:	f8cc 3010 	str.w	r3, [ip, #16]
 8005202:	f8dc 3010 	ldr.w	r3, [ip, #16]
 8005206:	f443 2300 	orr.w	r3, r3, #524288	@ 0x80000
 800520a:	f8cc 3010 	str.w	r3, [ip, #16]
 800520e:	f8dc 3010 	ldr.w	r3, [ip, #16]
 8005212:	ea03 0308 	and.w	r3, r3, r8
 8005216:	2e01      	cmp	r6, #1
 8005218:	f8cc 3010 	str.w	r3, [ip, #16]
 800521c:	d157      	bne.n	80052ce <USB_EPStartXfer+0xfe>
 800521e:	69cb      	ldr	r3, [r1, #28]
 8005220:	b10b      	cbz	r3, 8005226 <USB_EPStartXfer+0x56>
 8005222:	f8cc 3014 	str.w	r3, [ip, #20]
 8005226:	2f01      	cmp	r7, #1
 8005228:	d10c      	bne.n	8005244 <USB_EPStartXfer+0x74>
 800522a:	f8d0 3808 	ldr.w	r3, [r0, #2056]	@ 0x808
 800522e:	f413 7f80 	tst.w	r3, #256	@ 0x100
 8005232:	f8d5 3900 	ldr.w	r3, [r5, #2304]	@ 0x900
 8005236:	bf0c      	ite	eq
 8005238:	f043 5300 	orreq.w	r3, r3, #536870912	@ 0x20000000
 800523c:	f043 5380 	orrne.w	r3, r3, #268435456	@ 0x10000000
 8005240:	f8c5 3900 	str.w	r3, [r5, #2304]	@ 0x900
 8005244:	f8d5 3900 	ldr.w	r3, [r5, #2304]	@ 0x900
 8005248:	f043 4304 	orr.w	r3, r3, #2214592512	@ 0x84000000
 800524c:	f8c5 3900 	str.w	r3, [r5, #2304]	@ 0x900
 8005250:	2000      	movs	r0, #0
 8005252:	b002      	add	sp, #8
 8005254:	e8bd 81f0 	ldmia.w	sp!, {r4, r5, r6, r7, r8, pc}
 8005258:	ea03 0308 	and.w	r3, r3, r8
 800525c:	f8cc 3010 	str.w	r3, [ip, #16]
 8005260:	f8dc 3010 	ldr.w	r3, [ip, #16]
 8005264:	ea03 030e 	and.w	r3, r3, lr
 8005268:	f8cc 3010 	str.w	r3, [ip, #16]
 800526c:	688b      	ldr	r3, [r1, #8]
 800526e:	b97a      	cbnz	r2, 8005290 <USB_EPStartXfer+0xc0>
 8005270:	42a3      	cmp	r3, r4
 8005272:	bf38      	it	cc
 8005274:	610b      	strcc	r3, [r1, #16]
 8005276:	f8dc 3010 	ldr.w	r3, [ip, #16]
 800527a:	f443 2300 	orr.w	r3, r3, #524288	@ 0x80000
 800527e:	f8cc 3010 	str.w	r3, [ip, #16]
 8005282:	690b      	ldr	r3, [r1, #16]
 8005284:	f8dc 4010 	ldr.w	r4, [ip, #16]
 8005288:	f3c3 0312 	ubfx	r3, r3, #0, #19
 800528c:	4323      	orrs	r3, r4
 800528e:	e7c2      	b.n	8005216 <USB_EPStartXfer+0x46>
 8005290:	441c      	add	r4, r3
 8005292:	3c01      	subs	r4, #1
 8005294:	fbb4 f4f3 	udiv	r4, r4, r3
 8005298:	4b4b      	ldr	r3, [pc, #300]	@ (80053c8 <USB_EPStartXfer+0x1f8>)
 800529a:	f8dc e010 	ldr.w	lr, [ip, #16]
 800529e:	fa1f f884 	uxth.w	r8, r4
 80052a2:	ea03 44c4 	and.w	r4, r3, r4, lsl #19
 80052a6:	ea44 040e 	orr.w	r4, r4, lr
 80052aa:	2f01      	cmp	r7, #1
 80052ac:	f8cc 4010 	str.w	r4, [ip, #16]
 80052b0:	d1e7      	bne.n	8005282 <USB_EPStartXfer+0xb2>
 80052b2:	f8dc 3010 	ldr.w	r3, [ip, #16]
 80052b6:	f023 43c0 	bic.w	r3, r3, #1610612736	@ 0x60000000
 80052ba:	f8cc 3010 	str.w	r3, [ip, #16]
 80052be:	f8dc 4010 	ldr.w	r4, [ip, #16]
 80052c2:	ea4f 7348 	mov.w	r3, r8, lsl #29
 80052c6:	f003 43c0 	and.w	r3, r3, #1610612736	@ 0x60000000
 80052ca:	4323      	orrs	r3, r4
 80052cc:	e7d7      	b.n	800527e <USB_EPStartXfer+0xae>
 80052ce:	f8d5 3900 	ldr.w	r3, [r5, #2304]	@ 0x900
 80052d2:	2f01      	cmp	r7, #1
 80052d4:	f043 4304 	orr.w	r3, r3, #2214592512	@ 0x84000000
 80052d8:	f8c5 3900 	str.w	r3, [r5, #2304]	@ 0x900
 80052dc:	690b      	ldr	r3, [r1, #16]
 80052de:	d00b      	beq.n	80052f8 <USB_EPStartXfer+0x128>
 80052e0:	2b00      	cmp	r3, #0
 80052e2:	d0b5      	beq.n	8005250 <USB_EPStartXfer+0x80>
 80052e4:	2301      	movs	r3, #1
 80052e6:	f8d0 1834 	ldr.w	r1, [r0, #2100]	@ 0x834
 80052ea:	f002 020f 	and.w	r2, r2, #15
 80052ee:	4093      	lsls	r3, r2
 80052f0:	430b      	orrs	r3, r1
 80052f2:	f8c0 3834 	str.w	r3, [r0, #2100]	@ 0x834
 80052f6:	e7ab      	b.n	8005250 <USB_EPStartXfer+0x80>
 80052f8:	f8d0 4808 	ldr.w	r4, [r0, #2056]	@ 0x808
 80052fc:	b29b      	uxth	r3, r3
 80052fe:	f414 7f80 	tst.w	r4, #256	@ 0x100
 8005302:	f8d5 4900 	ldr.w	r4, [r5, #2304]	@ 0x900
 8005306:	bf0c      	ite	eq
 8005308:	f044 5400 	orreq.w	r4, r4, #536870912	@ 0x20000000
 800530c:	f044 5480 	orrne.w	r4, r4, #268435456	@ 0x10000000
 8005310:	f8c5 4900 	str.w	r4, [r5, #2304]	@ 0x900
 8005314:	9600      	str	r6, [sp, #0]
 8005316:	68c9      	ldr	r1, [r1, #12]
 8005318:	f7ff ff46 	bl	80051a8 <USB_WritePacket>
 800531c:	e798      	b.n	8005250 <USB_EPStartXfer+0x80>
 800531e:	f8d5 3b10 	ldr.w	r3, [r5, #2832]	@ 0xb10
 8005322:	f505 6c30 	add.w	ip, r5, #2816	@ 0xb00
 8005326:	ea03 0308 	and.w	r3, r3, r8
 800532a:	f8cc 3010 	str.w	r3, [ip, #16]
 800532e:	f8dc 3010 	ldr.w	r3, [ip, #16]
 8005332:	ea03 030e 	and.w	r3, r3, lr
 8005336:	f8cc 3010 	str.w	r3, [ip, #16]
 800533a:	688b      	ldr	r3, [r1, #8]
 800533c:	bb5a      	cbnz	r2, 8005396 <USB_EPStartXfer+0x1c6>
 800533e:	b104      	cbz	r4, 8005342 <USB_EPStartXfer+0x172>
 8005340:	610b      	str	r3, [r1, #16]
 8005342:	620b      	str	r3, [r1, #32]
 8005344:	f8dc 2010 	ldr.w	r2, [ip, #16]
 8005348:	f3c3 0312 	ubfx	r3, r3, #0, #19
 800534c:	4313      	orrs	r3, r2
 800534e:	f8cc 3010 	str.w	r3, [ip, #16]
 8005352:	f8dc 3010 	ldr.w	r3, [ip, #16]
 8005356:	f443 2300 	orr.w	r3, r3, #524288	@ 0x80000
 800535a:	2e01      	cmp	r6, #1
 800535c:	f8cc 3010 	str.w	r3, [ip, #16]
 8005360:	d103      	bne.n	800536a <USB_EPStartXfer+0x19a>
 8005362:	68cb      	ldr	r3, [r1, #12]
 8005364:	b10b      	cbz	r3, 800536a <USB_EPStartXfer+0x19a>
 8005366:	f8cc 3014 	str.w	r3, [ip, #20]
 800536a:	2f01      	cmp	r7, #1
 800536c:	d10c      	bne.n	8005388 <USB_EPStartXfer+0x1b8>
 800536e:	f8d0 3808 	ldr.w	r3, [r0, #2056]	@ 0x808
 8005372:	f413 7f80 	tst.w	r3, #256	@ 0x100
 8005376:	f8d5 3b00 	ldr.w	r3, [r5, #2816]	@ 0xb00
 800537a:	bf0c      	ite	eq
 800537c:	f043 5300 	orreq.w	r3, r3, #536870912	@ 0x20000000
 8005380:	f043 5380 	orrne.w	r3, r3, #268435456	@ 0x10000000
 8005384:	f8c5 3b00 	str.w	r3, [r5, #2816]	@ 0xb00
 8005388:	f8d5 3b00 	ldr.w	r3, [r5, #2816]	@ 0xb00
 800538c:	f043 4304 	orr.w	r3, r3, #2214592512	@ 0x84000000
 8005390:	f8c5 3b00 	str.w	r3, [r5, #2816]	@ 0xb00
 8005394:	e75c      	b.n	8005250 <USB_EPStartXfer+0x80>
 8005396:	2c00      	cmp	r4, #0
 8005398:	d0d4      	beq.n	8005344 <USB_EPStartXfer+0x174>
 800539a:	441c      	add	r4, r3
 800539c:	3c01      	subs	r4, #1
 800539e:	fbb4 f4f3 	udiv	r4, r4, r3
 80053a2:	b2a4      	uxth	r4, r4
 80053a4:	4363      	muls	r3, r4
 80053a6:	4a08      	ldr	r2, [pc, #32]	@ (80053c8 <USB_EPStartXfer+0x1f8>)
 80053a8:	f8dc e010 	ldr.w	lr, [ip, #16]
 80053ac:	ea02 42c4 	and.w	r2, r2, r4, lsl #19
 80053b0:	ea42 020e 	orr.w	r2, r2, lr
 80053b4:	620b      	str	r3, [r1, #32]
 80053b6:	f8cc 2010 	str.w	r2, [ip, #16]
 80053ba:	f8dc 2010 	ldr.w	r2, [ip, #16]
 80053be:	f3c3 0312 	ubfx	r3, r3, #0, #19
 80053c2:	4313      	orrs	r3, r2
 80053c4:	e7c9      	b.n	800535a <USB_EPStartXfer+0x18a>
 80053c6:	bf00      	nop
 80053c8:	1ff80000 	.word	0x1ff80000
 80053cc:	e007ffff 	.word	0xe007ffff
 80053d0:	fff80000 	.word	0xfff80000

080053d4 <USB_ReadPacket>:
 80053d4:	4603      	mov	r3, r0
 80053d6:	2000      	movs	r0, #0
 80053d8:	b570      	push	{r4, r5, r6, lr}
 80053da:	0894      	lsrs	r4, r2, #2
 80053dc:	f503 5580 	add.w	r5, r3, #4096	@ 0x1000
 80053e0:	f002 0203 	and.w	r2, r2, #3
 80053e4:	42a0      	cmp	r0, r4
 80053e6:	d310      	bcc.n	800540a <USB_ReadPacket+0x36>
 80053e8:	eb01 0084 	add.w	r0, r1, r4, lsl #2
 80053ec:	b162      	cbz	r2, 8005408 <USB_ReadPacket+0x34>
 80053ee:	f503 5380 	add.w	r3, r3, #4096	@ 0x1000
 80053f2:	681c      	ldr	r4, [r3, #0]
 80053f4:	2300      	movs	r3, #0
 80053f6:	00d9      	lsls	r1, r3, #3
 80053f8:	fa24 f101 	lsr.w	r1, r4, r1
 80053fc:	54c1      	strb	r1, [r0, r3]
 80053fe:	3301      	adds	r3, #1
 8005400:	b299      	uxth	r1, r3
 8005402:	428a      	cmp	r2, r1
 8005404:	d1f7      	bne.n	80053f6 <USB_ReadPacket+0x22>
 8005406:	4410      	add	r0, r2
 8005408:	bd70      	pop	{r4, r5, r6, pc}
 800540a:	682e      	ldr	r6, [r5, #0]
 800540c:	f841 6020 	str.w	r6, [r1, r0, lsl #2]
 8005410:	3001      	adds	r0, #1
 8005412:	e7e7      	b.n	80053e4 <USB_ReadPacket+0x10>

08005414 <USB_EPSetStall>:
 8005414:	784a      	ldrb	r2, [r1, #1]
 8005416:	780b      	ldrb	r3, [r1, #0]
 8005418:	2a01      	cmp	r2, #1
 800541a:	eb00 1043 	add.w	r0, r0, r3, lsl #5
 800541e:	d112      	bne.n	8005446 <USB_EPSetStall+0x32>
 8005420:	f8d0 2900 	ldr.w	r2, [r0, #2304]	@ 0x900
 8005424:	2a00      	cmp	r2, #0
 8005426:	db06      	blt.n	8005436 <USB_EPSetStall+0x22>
 8005428:	b12b      	cbz	r3, 8005436 <USB_EPSetStall+0x22>
 800542a:	f8d0 3900 	ldr.w	r3, [r0, #2304]	@ 0x900
 800542e:	f023 4380 	bic.w	r3, r3, #1073741824	@ 0x40000000
 8005432:	f8c0 3900 	str.w	r3, [r0, #2304]	@ 0x900
 8005436:	f8d0 3900 	ldr.w	r3, [r0, #2304]	@ 0x900
 800543a:	f443 1300 	orr.w	r3, r3, #2097152	@ 0x200000
 800543e:	f8c0 3900 	str.w	r3, [r0, #2304]	@ 0x900
 8005442:	2000      	movs	r0, #0
 8005444:	4770      	bx	lr
 8005446:	f8d0 2b00 	ldr.w	r2, [r0, #2816]	@ 0xb00
 800544a:	2a00      	cmp	r2, #0
 800544c:	db06      	blt.n	800545c <USB_EPSetStall+0x48>
 800544e:	b12b      	cbz	r3, 800545c <USB_EPSetStall+0x48>
 8005450:	f8d0 3b00 	ldr.w	r3, [r0, #2816]	@ 0xb00
 8005454:	f023 4380 	bic.w	r3, r3, #1073741824	@ 0x40000000
 8005458:	f8c0 3b00 	str.w	r3, [r0, #2816]	@ 0xb00
 800545c:	f8d0 3b00 	ldr.w	r3, [r0, #2816]	@ 0xb00
 8005460:	f443 1300 	orr.w	r3, r3, #2097152	@ 0x200000
 8005464:	f8c0 3b00 	str.w	r3, [r0, #2816]	@ 0xb00
 8005468:	e7eb      	b.n	8005442 <USB_EPSetStall+0x2e>

0800546a <USB_EPClearStall>:
 800546a:	780b      	ldrb	r3, [r1, #0]
 800546c:	784a      	ldrb	r2, [r1, #1]
 800546e:	eb00 1043 	add.w	r0, r0, r3, lsl #5
 8005472:	790b      	ldrb	r3, [r1, #4]
 8005474:	2a01      	cmp	r2, #1
 8005476:	f1a3 0302 	sub.w	r3, r3, #2
 800547a:	b2db      	uxtb	r3, r3
 800547c:	d10f      	bne.n	800549e <USB_EPClearStall+0x34>
 800547e:	f8d0 2900 	ldr.w	r2, [r0, #2304]	@ 0x900
 8005482:	2b01      	cmp	r3, #1
 8005484:	f422 1200 	bic.w	r2, r2, #2097152	@ 0x200000
 8005488:	f8c0 2900 	str.w	r2, [r0, #2304]	@ 0x900
 800548c:	d805      	bhi.n	800549a <USB_EPClearStall+0x30>
 800548e:	f8d0 3900 	ldr.w	r3, [r0, #2304]	@ 0x900
 8005492:	f043 5380 	orr.w	r3, r3, #268435456	@ 0x10000000
 8005496:	f8c0 3900 	str.w	r3, [r0, #2304]	@ 0x900
 800549a:	2000      	movs	r0, #0
 800549c:	4770      	bx	lr
 800549e:	f8d0 2b00 	ldr.w	r2, [r0, #2816]	@ 0xb00
 80054a2:	2b01      	cmp	r3, #1
 80054a4:	f422 1200 	bic.w	r2, r2, #2097152	@ 0x200000
 80054a8:	f8c0 2b00 	str.w	r2, [r0, #2816]	@ 0xb00
 80054ac:	bf9e      	ittt	ls
 80054ae:	f8d0 3b00 	ldrls.w	r3, [r0, #2816]	@ 0xb00
 80054b2:	f043 5380 	orrls.w	r3, r3, #268435456	@ 0x10000000
 80054b6:	f8c0 3b00 	strls.w	r3, [r0, #2816]	@ 0xb00
 80054ba:	e7ee      	b.n	800549a <USB_EPClearStall+0x30>

080054bc <USB_SetDevAddress>:
 80054bc:	f8d0 3800 	ldr.w	r3, [r0, #2048]	@ 0x800
 80054c0:	0109      	lsls	r1, r1, #4
 80054c2:	f423 63fe 	bic.w	r3, r3, #2032	@ 0x7f0
 80054c6:	f8c0 3800 	str.w	r3, [r0, #2048]	@ 0x800
 80054ca:	f8d0 3800 	ldr.w	r3, [r0, #2048]	@ 0x800
 80054ce:	f401 61fe 	and.w	r1, r1, #2032	@ 0x7f0
 80054d2:	4319      	orrs	r1, r3
 80054d4:	f8c0 1800 	str.w	r1, [r0, #2048]	@ 0x800
 80054d8:	2000      	movs	r0, #0
 80054da:	4770      	bx	lr

080054dc <USB_DevConnect>:
 80054dc:	f8d0 3e00 	ldr.w	r3, [r0, #3584]	@ 0xe00
 80054e0:	f023 0303 	bic.w	r3, r3, #3
 80054e4:	f8c0 3e00 	str.w	r3, [r0, #3584]	@ 0xe00
 80054e8:	f8d0 3804 	ldr.w	r3, [r0, #2052]	@ 0x804
 80054ec:	f023 0302 	bic.w	r3, r3, #2
 80054f0:	f8c0 3804 	str.w	r3, [r0, #2052]	@ 0x804
 80054f4:	2000      	movs	r0, #0
 80054f6:	4770      	bx	lr

080054f8 <USB_DevDisconnect>:
 80054f8:	f8d0 3e00 	ldr.w	r3, [r0, #3584]	@ 0xe00
 80054fc:	f023 0303 	bic.w	r3, r3, #3
 8005500:	f8c0 3e00 	str.w	r3, [r0, #3584]	@ 0xe00
 8005504:	f8d0 3804 	ldr.w	r3, [r0, #2052]	@ 0x804
 8005508:	f043 0302 	orr.w	r3, r3, #2
 800550c:	f8c0 3804 	str.w	r3, [r0, #2052]	@ 0x804
 8005510:	2000      	movs	r0, #0
 8005512:	4770      	bx	lr

08005514 <USB_ReadInterrupts>:
 8005514:	6942      	ldr	r2, [r0, #20]
 8005516:	6980      	ldr	r0, [r0, #24]
 8005518:	4010      	ands	r0, r2
 800551a:	4770      	bx	lr

0800551c <USB_ReadDevAllOutEpInterrupt>:
 800551c:	f8d0 3818 	ldr.w	r3, [r0, #2072]	@ 0x818
 8005520:	f500 6000 	add.w	r0, r0, #2048	@ 0x800
 8005524:	69c0      	ldr	r0, [r0, #28]
 8005526:	4018      	ands	r0, r3
 8005528:	0c00      	lsrs	r0, r0, #16
 800552a:	4770      	bx	lr

0800552c <USB_ReadDevAllInEpInterrupt>:
 800552c:	f8d0 3818 	ldr.w	r3, [r0, #2072]	@ 0x818
 8005530:	f500 6000 	add.w	r0, r0, #2048	@ 0x800
 8005534:	69c0      	ldr	r0, [r0, #28]
 8005536:	4018      	ands	r0, r3
 8005538:	b280      	uxth	r0, r0
 800553a:	4770      	bx	lr

0800553c <USB_ReadDevOutEPInterrupt>:
 800553c:	eb00 1141 	add.w	r1, r0, r1, lsl #5
 8005540:	f500 6000 	add.w	r0, r0, #2048	@ 0x800
 8005544:	f8d1 2b08 	ldr.w	r2, [r1, #2824]	@ 0xb08
 8005548:	6940      	ldr	r0, [r0, #20]
 800554a:	4010      	ands	r0, r2
 800554c:	4770      	bx	lr

0800554e <USB_ReadDevInEPInterrupt>:
 800554e:	f8d0 2810 	ldr.w	r2, [r0, #2064]	@ 0x810
 8005552:	f8d0 3834 	ldr.w	r3, [r0, #2100]	@ 0x834
 8005556:	eb00 1041 	add.w	r0, r0, r1, lsl #5
 800555a:	f001 010f 	and.w	r1, r1, #15
 800555e:	40cb      	lsrs	r3, r1
 8005560:	f500 6010 	add.w	r0, r0, #2304	@ 0x900
 8005564:	01db      	lsls	r3, r3, #7
 8005566:	6880      	ldr	r0, [r0, #8]
 8005568:	b2db      	uxtb	r3, r3
 800556a:	4313      	orrs	r3, r2
 800556c:	4018      	ands	r0, r3
 800556e:	4770      	bx	lr

08005570 <USB_GetMode>:
 8005570:	6940      	ldr	r0, [r0, #20]
 8005572:	f000 0001 	and.w	r0, r0, #1
 8005576:	4770      	bx	lr

08005578 <USB_ActivateSetup>:
 8005578:	f8d0 3900 	ldr.w	r3, [r0, #2304]	@ 0x900
 800557c:	f36f 030a 	bfc	r3, #0, #11
 8005580:	f8c0 3900 	str.w	r3, [r0, #2304]	@ 0x900
 8005584:	f8d0 3804 	ldr.w	r3, [r0, #2052]	@ 0x804
 8005588:	f443 7380 	orr.w	r3, r3, #256	@ 0x100
 800558c:	f8c0 3804 	str.w	r3, [r0, #2052]	@ 0x804
 8005590:	2000      	movs	r0, #0
 8005592:	4770      	bx	lr

08005594 <USB_EP0_OutStart>:
 8005594:	b530      	push	{r4, r5, lr}
 8005596:	6c05      	ldr	r5, [r0, #64]	@ 0x40
 8005598:	4c10      	ldr	r4, [pc, #64]	@ (80055dc <USB_EP0_OutStart+0x48>)
 800559a:	f500 6330 	add.w	r3, r0, #2816	@ 0xb00
 800559e:	42a5      	cmp	r5, r4
 80055a0:	d903      	bls.n	80055aa <USB_EP0_OutStart+0x16>
 80055a2:	f8d0 4b00 	ldr.w	r4, [r0, #2816]	@ 0xb00
 80055a6:	2c00      	cmp	r4, #0
 80055a8:	db16      	blt.n	80055d8 <USB_EP0_OutStart+0x44>
 80055aa:	2400      	movs	r4, #0
 80055ac:	611c      	str	r4, [r3, #16]
 80055ae:	691c      	ldr	r4, [r3, #16]
 80055b0:	2901      	cmp	r1, #1
 80055b2:	f444 2400 	orr.w	r4, r4, #524288	@ 0x80000
 80055b6:	611c      	str	r4, [r3, #16]
 80055b8:	691c      	ldr	r4, [r3, #16]
 80055ba:	f044 0418 	orr.w	r4, r4, #24
 80055be:	611c      	str	r4, [r3, #16]
 80055c0:	691c      	ldr	r4, [r3, #16]
 80055c2:	f044 44c0 	orr.w	r4, r4, #1610612736	@ 0x60000000
 80055c6:	611c      	str	r4, [r3, #16]
 80055c8:	bf01      	itttt	eq
 80055ca:	615a      	streq	r2, [r3, #20]
 80055cc:	f8d0 3b00 	ldreq.w	r3, [r0, #2816]	@ 0xb00
 80055d0:	f043 2380 	orreq.w	r3, r3, #2147516416	@ 0x80008000
 80055d4:	f8c0 3b00 	streq.w	r3, [r0, #2816]	@ 0xb00
 80055d8:	2000      	movs	r0, #0
 80055da:	bd30      	pop	{r4, r5, pc}
 80055dc:	4f54300a 	.word	0x4f54300a

080055e0 <_tx_byte_allocate>:
 80055e0:	3203      	adds	r2, #3
 80055e2:	e92d 41f0 	stmdb	sp!, {r4, r5, r6, r7, r8, lr}
 80055e6:	4605      	mov	r5, r0
 80055e8:	460f      	mov	r7, r1
 80055ea:	4698      	mov	r8, r3
 80055ec:	f022 0603 	bic.w	r6, r2, #3
 80055f0:	f3ef 8210 	mrs	r2, PRIMASK
 80055f4:	b672      	cpsid	i
 80055f6:	4b25      	ldr	r3, [pc, #148]	@ (800568c <_tx_byte_allocate+0xac>)
 80055f8:	681c      	ldr	r4, [r3, #0]
 80055fa:	622c      	str	r4, [r5, #32]
 80055fc:	f382 8810 	msr	PRIMASK, r2
 8005600:	4631      	mov	r1, r6
 8005602:	4628      	mov	r0, r5
 8005604:	f000 f8c4 	bl	8005790 <_tx_byte_pool_search>
 8005608:	f3ef 8210 	mrs	r2, PRIMASK
 800560c:	b672      	cpsid	i
 800560e:	b128      	cbz	r0, 800561c <_tx_byte_allocate+0x3c>
 8005610:	6038      	str	r0, [r7, #0]
 8005612:	f382 8810 	msr	PRIMASK, r2
 8005616:	2000      	movs	r0, #0
 8005618:	e8bd 81f0 	ldmia.w	sp!, {r4, r5, r6, r7, r8, pc}
 800561c:	6a2b      	ldr	r3, [r5, #32]
 800561e:	42a3      	cmp	r3, r4
 8005620:	d1eb      	bne.n	80055fa <_tx_byte_allocate+0x1a>
 8005622:	6038      	str	r0, [r7, #0]
 8005624:	f1b8 0f00 	cmp.w	r8, #0
 8005628:	d103      	bne.n	8005632 <_tx_byte_allocate+0x52>
 800562a:	f382 8810 	msr	PRIMASK, r2
 800562e:	2010      	movs	r0, #16
 8005630:	e7f2      	b.n	8005618 <_tx_byte_allocate+0x38>
 8005632:	4917      	ldr	r1, [pc, #92]	@ (8005690 <_tx_byte_allocate+0xb0>)
 8005634:	680b      	ldr	r3, [r1, #0]
 8005636:	2b00      	cmp	r3, #0
 8005638:	d1f7      	bne.n	800562a <_tx_byte_allocate+0x4a>
 800563a:	4b16      	ldr	r3, [pc, #88]	@ (8005694 <_tx_byte_allocate+0xb4>)
 800563c:	e9c4 671e 	strd	r6, r7, [r4, #120]	@ 0x78
 8005640:	e9c4 351a 	strd	r3, r5, [r4, #104]	@ 0x68
 8005644:	f8d4 30ac 	ldr.w	r3, [r4, #172]	@ 0xac
 8005648:	3301      	adds	r3, #1
 800564a:	f8c4 30ac 	str.w	r3, [r4, #172]	@ 0xac
 800564e:	6aab      	ldr	r3, [r5, #40]	@ 0x28
 8005650:	1c58      	adds	r0, r3, #1
 8005652:	62a8      	str	r0, [r5, #40]	@ 0x28
 8005654:	b99b      	cbnz	r3, 800567e <_tx_byte_allocate+0x9e>
 8005656:	626c      	str	r4, [r5, #36]	@ 0x24
 8005658:	e9c4 441c 	strd	r4, r4, [r4, #112]	@ 0x70
 800565c:	2309      	movs	r3, #9
 800565e:	6323      	str	r3, [r4, #48]	@ 0x30
 8005660:	2301      	movs	r3, #1
 8005662:	63a3      	str	r3, [r4, #56]	@ 0x38
 8005664:	680b      	ldr	r3, [r1, #0]
 8005666:	f8c4 804c 	str.w	r8, [r4, #76]	@ 0x4c
 800566a:	3301      	adds	r3, #1
 800566c:	600b      	str	r3, [r1, #0]
 800566e:	f382 8810 	msr	PRIMASK, r2
 8005672:	4620      	mov	r0, r4
 8005674:	f000 ff46 	bl	8006504 <_tx_thread_system_suspend>
 8005678:	f8d4 0084 	ldr.w	r0, [r4, #132]	@ 0x84
 800567c:	e7cc      	b.n	8005618 <_tx_byte_allocate+0x38>
 800567e:	6a6b      	ldr	r3, [r5, #36]	@ 0x24
 8005680:	6f58      	ldr	r0, [r3, #116]	@ 0x74
 8005682:	6723      	str	r3, [r4, #112]	@ 0x70
 8005684:	6760      	str	r0, [r4, #116]	@ 0x74
 8005686:	6704      	str	r4, [r0, #112]	@ 0x70
 8005688:	675c      	str	r4, [r3, #116]	@ 0x74
 800568a:	e7e7      	b.n	800565c <_tx_byte_allocate+0x7c>
 800568c:	2000312c 	.word	0x2000312c
 8005690:	20003094 	.word	0x20003094
 8005694:	08005699 	.word	0x08005699

08005698 <_tx_byte_pool_cleanup>:
 8005698:	b510      	push	{r4, lr}
 800569a:	f3ef 8410 	mrs	r4, PRIMASK
 800569e:	b672      	cpsid	i
 80056a0:	4b18      	ldr	r3, [pc, #96]	@ (8005704 <_tx_byte_pool_cleanup+0x6c>)
 80056a2:	6e82      	ldr	r2, [r0, #104]	@ 0x68
 80056a4:	429a      	cmp	r2, r3
 80056a6:	d12a      	bne.n	80056fe <_tx_byte_pool_cleanup+0x66>
 80056a8:	f8d0 30ac 	ldr.w	r3, [r0, #172]	@ 0xac
 80056ac:	428b      	cmp	r3, r1
 80056ae:	d126      	bne.n	80056fe <_tx_byte_pool_cleanup+0x66>
 80056b0:	6ec3      	ldr	r3, [r0, #108]	@ 0x6c
 80056b2:	b323      	cbz	r3, 80056fe <_tx_byte_pool_cleanup+0x66>
 80056b4:	6819      	ldr	r1, [r3, #0]
 80056b6:	4a14      	ldr	r2, [pc, #80]	@ (8005708 <_tx_byte_pool_cleanup+0x70>)
 80056b8:	4291      	cmp	r1, r2
 80056ba:	d120      	bne.n	80056fe <_tx_byte_pool_cleanup+0x66>
 80056bc:	6a9a      	ldr	r2, [r3, #40]	@ 0x28
 80056be:	b1f2      	cbz	r2, 80056fe <_tx_byte_pool_cleanup+0x66>
 80056c0:	2100      	movs	r1, #0
 80056c2:	3a01      	subs	r2, #1
 80056c4:	6681      	str	r1, [r0, #104]	@ 0x68
 80056c6:	629a      	str	r2, [r3, #40]	@ 0x28
 80056c8:	b90a      	cbnz	r2, 80056ce <_tx_byte_pool_cleanup+0x36>
 80056ca:	625a      	str	r2, [r3, #36]	@ 0x24
 80056cc:	e006      	b.n	80056dc <_tx_byte_pool_cleanup+0x44>
 80056ce:	e9d0 211c 	ldrd	r2, r1, [r0, #112]	@ 0x70
 80056d2:	6751      	str	r1, [r2, #116]	@ 0x74
 80056d4:	670a      	str	r2, [r1, #112]	@ 0x70
 80056d6:	6a59      	ldr	r1, [r3, #36]	@ 0x24
 80056d8:	4281      	cmp	r1, r0
 80056da:	d0f6      	beq.n	80056ca <_tx_byte_pool_cleanup+0x32>
 80056dc:	6b03      	ldr	r3, [r0, #48]	@ 0x30
 80056de:	2b09      	cmp	r3, #9
 80056e0:	d10d      	bne.n	80056fe <_tx_byte_pool_cleanup+0x66>
 80056e2:	2310      	movs	r3, #16
 80056e4:	4a09      	ldr	r2, [pc, #36]	@ (800570c <_tx_byte_pool_cleanup+0x74>)
 80056e6:	f8c0 3084 	str.w	r3, [r0, #132]	@ 0x84
 80056ea:	6813      	ldr	r3, [r2, #0]
 80056ec:	3301      	adds	r3, #1
 80056ee:	6013      	str	r3, [r2, #0]
 80056f0:	f384 8810 	msr	PRIMASK, r4
 80056f4:	f000 fe92 	bl	800641c <_tx_thread_system_resume>
 80056f8:	f3ef 8410 	mrs	r4, PRIMASK
 80056fc:	b672      	cpsid	i
 80056fe:	f384 8810 	msr	PRIMASK, r4
 8005702:	bd10      	pop	{r4, pc}
 8005704:	08005699 	.word	0x08005699
 8005708:	42595445 	.word	0x42595445
 800570c:	20003094 	.word	0x20003094

08005710 <_tx_byte_pool_create>:
 8005710:	b5f8      	push	{r3, r4, r5, r6, r7, lr}
 8005712:	461d      	mov	r5, r3
 8005714:	4604      	mov	r4, r0
 8005716:	4616      	mov	r6, r2
 8005718:	460f      	mov	r7, r1
 800571a:	2234      	movs	r2, #52	@ 0x34
 800571c:	2100      	movs	r1, #0
 800571e:	f003 fccb 	bl	80090b8 <memset>
 8005722:	f025 0303 	bic.w	r3, r5, #3
 8005726:	f1a3 0208 	sub.w	r2, r3, #8
 800572a:	60a2      	str	r2, [r4, #8]
 800572c:	2202      	movs	r2, #2
 800572e:	e9c4 6306 	strd	r6, r3, [r4, #24]
 8005732:	4433      	add	r3, r6
 8005734:	e9c4 6604 	strd	r6, r6, [r4, #16]
 8005738:	6067      	str	r7, [r4, #4]
 800573a:	60e2      	str	r2, [r4, #12]
 800573c:	f843 4c04 	str.w	r4, [r3, #-4]
 8005740:	f843 6d08 	str.w	r6, [r3, #-8]!
 8005744:	6033      	str	r3, [r6, #0]
 8005746:	4b0e      	ldr	r3, [pc, #56]	@ (8005780 <_tx_byte_pool_create+0x70>)
 8005748:	6073      	str	r3, [r6, #4]
 800574a:	2300      	movs	r3, #0
 800574c:	6223      	str	r3, [r4, #32]
 800574e:	f3ef 8510 	mrs	r5, PRIMASK
 8005752:	b672      	cpsid	i
 8005754:	4b0b      	ldr	r3, [pc, #44]	@ (8005784 <_tx_byte_pool_create+0x74>)
 8005756:	490c      	ldr	r1, [pc, #48]	@ (8005788 <_tx_byte_pool_create+0x78>)
 8005758:	6023      	str	r3, [r4, #0]
 800575a:	680b      	ldr	r3, [r1, #0]
 800575c:	4a0b      	ldr	r2, [pc, #44]	@ (800578c <_tx_byte_pool_create+0x7c>)
 800575e:	b943      	cbnz	r3, 8005772 <_tx_byte_pool_create+0x62>
 8005760:	e9c4 440b 	strd	r4, r4, [r4, #44]	@ 0x2c
 8005764:	6014      	str	r4, [r2, #0]
 8005766:	3301      	adds	r3, #1
 8005768:	600b      	str	r3, [r1, #0]
 800576a:	f385 8810 	msr	PRIMASK, r5
 800576e:	2000      	movs	r0, #0
 8005770:	bdf8      	pop	{r3, r4, r5, r6, r7, pc}
 8005772:	6812      	ldr	r2, [r2, #0]
 8005774:	6b10      	ldr	r0, [r2, #48]	@ 0x30
 8005776:	6314      	str	r4, [r2, #48]	@ 0x30
 8005778:	62c4      	str	r4, [r0, #44]	@ 0x2c
 800577a:	e9c4 200b 	strd	r2, r0, [r4, #44]	@ 0x2c
 800577e:	e7f2      	b.n	8005766 <_tx_byte_pool_create+0x56>
 8005780:	ffffeeee 	.word	0xffffeeee
 8005784:	42595445 	.word	0x42595445
 8005788:	2000305c 	.word	0x2000305c
 800578c:	20003060 	.word	0x20003060

08005790 <_tx_byte_pool_search>:
 8005790:	b5f0      	push	{r4, r5, r6, r7, lr}
 8005792:	f3ef 8510 	mrs	r5, PRIMASK
 8005796:	b672      	cpsid	i
 8005798:	68c2      	ldr	r2, [r0, #12]
 800579a:	6883      	ldr	r3, [r0, #8]
 800579c:	1e94      	subs	r4, r2, #2
 800579e:	eb03 03c4 	add.w	r3, r3, r4, lsl #3
 80057a2:	428b      	cmp	r3, r1
 80057a4:	d803      	bhi.n	80057ae <_tx_byte_pool_search+0x1e>
 80057a6:	f385 8810 	msr	PRIMASK, r5
 80057aa:	2000      	movs	r0, #0
 80057ac:	e057      	b.n	800585e <_tx_byte_pool_search+0xce>
 80057ae:	2600      	movs	r6, #0
 80057b0:	4b2b      	ldr	r3, [pc, #172]	@ (8005860 <_tx_byte_pool_search+0xd0>)
 80057b2:	f8df c0b0 	ldr.w	ip, [pc, #176]	@ 8005864 <_tx_byte_pool_search+0xd4>
 80057b6:	681f      	ldr	r7, [r3, #0]
 80057b8:	6943      	ldr	r3, [r0, #20]
 80057ba:	6207      	str	r7, [r0, #32]
 80057bc:	3201      	adds	r2, #1
 80057be:	685c      	ldr	r4, [r3, #4]
 80057c0:	4564      	cmp	r4, ip
 80057c2:	d129      	bne.n	8005818 <_tx_byte_pool_search+0x88>
 80057c4:	b906      	cbnz	r6, 80057c8 <_tx_byte_pool_search+0x38>
 80057c6:	6143      	str	r3, [r0, #20]
 80057c8:	681e      	ldr	r6, [r3, #0]
 80057ca:	1af4      	subs	r4, r6, r3
 80057cc:	3c08      	subs	r4, #8
 80057ce:	42a1      	cmp	r1, r4
 80057d0:	d927      	bls.n	8005822 <_tx_byte_pool_search+0x92>
 80057d2:	e9d6 e400 	ldrd	lr, r4, [r6]
 80057d6:	4564      	cmp	r4, ip
 80057d8:	d11a      	bne.n	8005810 <_tx_byte_pool_search+0x80>
 80057da:	68c4      	ldr	r4, [r0, #12]
 80057dc:	f8c3 e000 	str.w	lr, [r3]
 80057e0:	3c01      	subs	r4, #1
 80057e2:	60c4      	str	r4, [r0, #12]
 80057e4:	6944      	ldr	r4, [r0, #20]
 80057e6:	42b4      	cmp	r4, r6
 80057e8:	bf08      	it	eq
 80057ea:	6143      	streq	r3, [r0, #20]
 80057ec:	2601      	movs	r6, #1
 80057ee:	b102      	cbz	r2, 80057f2 <_tx_byte_pool_search+0x62>
 80057f0:	3a01      	subs	r2, #1
 80057f2:	f385 8810 	msr	PRIMASK, r5
 80057f6:	f3ef 8510 	mrs	r5, PRIMASK
 80057fa:	b672      	cpsid	i
 80057fc:	6a04      	ldr	r4, [r0, #32]
 80057fe:	42bc      	cmp	r4, r7
 8005800:	bf1f      	itttt	ne
 8005802:	68c2      	ldrne	r2, [r0, #12]
 8005804:	6943      	ldrne	r3, [r0, #20]
 8005806:	3201      	addne	r2, #1
 8005808:	6207      	strne	r7, [r0, #32]
 800580a:	2a00      	cmp	r2, #0
 800580c:	d1d7      	bne.n	80057be <_tx_byte_pool_search+0x2e>
 800580e:	e7ca      	b.n	80057a6 <_tx_byte_pool_search+0x16>
 8005810:	b122      	cbz	r2, 800581c <_tx_byte_pool_search+0x8c>
 8005812:	4673      	mov	r3, lr
 8005814:	3a01      	subs	r2, #1
 8005816:	e7e9      	b.n	80057ec <_tx_byte_pool_search+0x5c>
 8005818:	681b      	ldr	r3, [r3, #0]
 800581a:	e7e8      	b.n	80057ee <_tx_byte_pool_search+0x5e>
 800581c:	4673      	mov	r3, lr
 800581e:	2601      	movs	r6, #1
 8005820:	e7e7      	b.n	80057f2 <_tx_byte_pool_search+0x62>
 8005822:	2c00      	cmp	r4, #0
 8005824:	d0bf      	beq.n	80057a6 <_tx_byte_pool_search+0x16>
 8005826:	1a62      	subs	r2, r4, r1
 8005828:	2a13      	cmp	r2, #19
 800582a:	d90a      	bls.n	8005842 <_tx_byte_pool_search+0xb2>
 800582c:	f101 0208 	add.w	r2, r1, #8
 8005830:	189c      	adds	r4, r3, r2
 8005832:	509e      	str	r6, [r3, r2]
 8005834:	4a0b      	ldr	r2, [pc, #44]	@ (8005864 <_tx_byte_pool_search+0xd4>)
 8005836:	6062      	str	r2, [r4, #4]
 8005838:	68c2      	ldr	r2, [r0, #12]
 800583a:	3201      	adds	r2, #1
 800583c:	60c2      	str	r2, [r0, #12]
 800583e:	601c      	str	r4, [r3, #0]
 8005840:	460c      	mov	r4, r1
 8005842:	6882      	ldr	r2, [r0, #8]
 8005844:	6058      	str	r0, [r3, #4]
 8005846:	3a08      	subs	r2, #8
 8005848:	1b12      	subs	r2, r2, r4
 800584a:	6082      	str	r2, [r0, #8]
 800584c:	6942      	ldr	r2, [r0, #20]
 800584e:	429a      	cmp	r2, r3
 8005850:	bf04      	itt	eq
 8005852:	681a      	ldreq	r2, [r3, #0]
 8005854:	6142      	streq	r2, [r0, #20]
 8005856:	f385 8810 	msr	PRIMASK, r5
 800585a:	f103 0008 	add.w	r0, r3, #8
 800585e:	bdf0      	pop	{r4, r5, r6, r7, pc}
 8005860:	2000312c 	.word	0x2000312c
 8005864:	ffffeeee 	.word	0xffffeeee

08005868 <_tx_initialize_high_level>:
 8005868:	b508      	push	{r3, lr}
 800586a:	f000 fd27 	bl	80062bc <_tx_thread_initialize>
 800586e:	f000 ff1f 	bl	80066b0 <_tx_timer_initialize>
 8005872:	2300      	movs	r3, #0
 8005874:	4a0c      	ldr	r2, [pc, #48]	@ (80058a8 <_tx_initialize_high_level+0x40>)
 8005876:	6013      	str	r3, [r2, #0]
 8005878:	4a0c      	ldr	r2, [pc, #48]	@ (80058ac <_tx_initialize_high_level+0x44>)
 800587a:	6013      	str	r3, [r2, #0]
 800587c:	4a0c      	ldr	r2, [pc, #48]	@ (80058b0 <_tx_initialize_high_level+0x48>)
 800587e:	6013      	str	r3, [r2, #0]
 8005880:	4a0c      	ldr	r2, [pc, #48]	@ (80058b4 <_tx_initialize_high_level+0x4c>)
 8005882:	6013      	str	r3, [r2, #0]
 8005884:	4a0c      	ldr	r2, [pc, #48]	@ (80058b8 <_tx_initialize_high_level+0x50>)
 8005886:	6013      	str	r3, [r2, #0]
 8005888:	4a0c      	ldr	r2, [pc, #48]	@ (80058bc <_tx_initialize_high_level+0x54>)
 800588a:	6013      	str	r3, [r2, #0]
 800588c:	4a0c      	ldr	r2, [pc, #48]	@ (80058c0 <_tx_initialize_high_level+0x58>)
 800588e:	6013      	str	r3, [r2, #0]
 8005890:	4a0c      	ldr	r2, [pc, #48]	@ (80058c4 <_tx_initialize_high_level+0x5c>)
 8005892:	6013      	str	r3, [r2, #0]
 8005894:	4a0c      	ldr	r2, [pc, #48]	@ (80058c8 <_tx_initialize_high_level+0x60>)
 8005896:	6013      	str	r3, [r2, #0]
 8005898:	4a0c      	ldr	r2, [pc, #48]	@ (80058cc <_tx_initialize_high_level+0x64>)
 800589a:	6013      	str	r3, [r2, #0]
 800589c:	4a0c      	ldr	r2, [pc, #48]	@ (80058d0 <_tx_initialize_high_level+0x68>)
 800589e:	6013      	str	r3, [r2, #0]
 80058a0:	4a0c      	ldr	r2, [pc, #48]	@ (80058d4 <_tx_initialize_high_level+0x6c>)
 80058a2:	6013      	str	r3, [r2, #0]
 80058a4:	bd08      	pop	{r3, pc}
 80058a6:	bf00      	nop
 80058a8:	20003088 	.word	0x20003088
 80058ac:	20003084 	.word	0x20003084
 80058b0:	20003080 	.word	0x20003080
 80058b4:	2000307c 	.word	0x2000307c
 80058b8:	20003078 	.word	0x20003078
 80058bc:	20003074 	.word	0x20003074
 80058c0:	20003068 	.word	0x20003068
 80058c4:	20003064 	.word	0x20003064
 80058c8:	20003060 	.word	0x20003060
 80058cc:	2000305c 	.word	0x2000305c
 80058d0:	20003070 	.word	0x20003070
 80058d4:	2000306c 	.word	0x2000306c

080058d8 <_tx_initialize_kernel_enter>:
 80058d8:	b510      	push	{r4, lr}
 80058da:	4c0e      	ldr	r4, [pc, #56]	@ (8005914 <_tx_initialize_kernel_enter+0x3c>)
 80058dc:	6823      	ldr	r3, [r4, #0]
 80058de:	f113 3f0f 	cmn.w	r3, #252645135	@ 0xf0f0f0f
 80058e2:	d00a      	beq.n	80058fa <_tx_initialize_kernel_enter+0x22>
 80058e4:	f04f 33f0 	mov.w	r3, #4042322160	@ 0xf0f0f0f0
 80058e8:	6023      	str	r3, [r4, #0]
 80058ea:	f7fa fcc5 	bl	8000278 <_tx_initialize_low_level>
 80058ee:	f7ff ffbb 	bl	8005868 <_tx_initialize_high_level>
 80058f2:	4a09      	ldr	r2, [pc, #36]	@ (8005918 <_tx_initialize_kernel_enter+0x40>)
 80058f4:	6813      	ldr	r3, [r2, #0]
 80058f6:	3301      	adds	r3, #1
 80058f8:	6013      	str	r3, [r2, #0]
 80058fa:	f04f 33f0 	mov.w	r3, #4042322160	@ 0xf0f0f0f0
 80058fe:	6023      	str	r3, [r4, #0]
 8005900:	4b06      	ldr	r3, [pc, #24]	@ (800591c <_tx_initialize_kernel_enter+0x44>)
 8005902:	6818      	ldr	r0, [r3, #0]
 8005904:	f7fa fdde 	bl	80004c4 <tx_application_define>
 8005908:	2300      	movs	r3, #0
 800590a:	6023      	str	r3, [r4, #0]
 800590c:	e8bd 4010 	ldmia.w	sp!, {r4, lr}
 8005910:	f7fa bcee 	b.w	80002f0 <_tx_thread_schedule>
 8005914:	2000000c 	.word	0x2000000c
 8005918:	20003094 	.word	0x20003094
 800591c:	20003058 	.word	0x20003058

08005920 <_tx_mutex_cleanup>:
 8005920:	b510      	push	{r4, lr}
 8005922:	f3ef 8410 	mrs	r4, PRIMASK
 8005926:	b672      	cpsid	i
 8005928:	4b18      	ldr	r3, [pc, #96]	@ (800598c <_tx_mutex_cleanup+0x6c>)
 800592a:	6e82      	ldr	r2, [r0, #104]	@ 0x68
 800592c:	429a      	cmp	r2, r3
 800592e:	d12a      	bne.n	8005986 <_tx_mutex_cleanup+0x66>
 8005930:	f8d0 30ac 	ldr.w	r3, [r0, #172]	@ 0xac
 8005934:	428b      	cmp	r3, r1
 8005936:	d126      	bne.n	8005986 <_tx_mutex_cleanup+0x66>
 8005938:	6ec3      	ldr	r3, [r0, #108]	@ 0x6c
 800593a:	b323      	cbz	r3, 8005986 <_tx_mutex_cleanup+0x66>
 800593c:	6819      	ldr	r1, [r3, #0]
 800593e:	4a14      	ldr	r2, [pc, #80]	@ (8005990 <_tx_mutex_cleanup+0x70>)
 8005940:	4291      	cmp	r1, r2
 8005942:	d120      	bne.n	8005986 <_tx_mutex_cleanup+0x66>
 8005944:	69da      	ldr	r2, [r3, #28]
 8005946:	b1f2      	cbz	r2, 8005986 <_tx_mutex_cleanup+0x66>
 8005948:	2100      	movs	r1, #0
 800594a:	3a01      	subs	r2, #1
 800594c:	6681      	str	r1, [r0, #104]	@ 0x68
 800594e:	61da      	str	r2, [r3, #28]
 8005950:	b90a      	cbnz	r2, 8005956 <_tx_mutex_cleanup+0x36>
 8005952:	619a      	str	r2, [r3, #24]
 8005954:	e006      	b.n	8005964 <_tx_mutex_cleanup+0x44>
 8005956:	e9d0 211c 	ldrd	r2, r1, [r0, #112]	@ 0x70
 800595a:	6751      	str	r1, [r2, #116]	@ 0x74
 800595c:	670a      	str	r2, [r1, #112]	@ 0x70
 800595e:	6999      	ldr	r1, [r3, #24]
 8005960:	4281      	cmp	r1, r0
 8005962:	d0f6      	beq.n	8005952 <_tx_mutex_cleanup+0x32>
 8005964:	6b03      	ldr	r3, [r0, #48]	@ 0x30
 8005966:	2b0d      	cmp	r3, #13
 8005968:	d10d      	bne.n	8005986 <_tx_mutex_cleanup+0x66>
 800596a:	231d      	movs	r3, #29
 800596c:	4a09      	ldr	r2, [pc, #36]	@ (8005994 <_tx_mutex_cleanup+0x74>)
 800596e:	f8c0 3084 	str.w	r3, [r0, #132]	@ 0x84
 8005972:	6813      	ldr	r3, [r2, #0]
 8005974:	3301      	adds	r3, #1
 8005976:	6013      	str	r3, [r2, #0]
 8005978:	f384 8810 	msr	PRIMASK, r4
 800597c:	f000 fd4e 	bl	800641c <_tx_thread_system_resume>
 8005980:	f3ef 8410 	mrs	r4, PRIMASK
 8005984:	b672      	cpsid	i
 8005986:	f384 8810 	msr	PRIMASK, r4
 800598a:	bd10      	pop	{r4, pc}
 800598c:	08005921 	.word	0x08005921
 8005990:	4d555445 	.word	0x4d555445
 8005994:	20003094 	.word	0x20003094

08005998 <_tx_mutex_thread_release>:
 8005998:	b570      	push	{r4, r5, r6, lr}
 800599a:	4605      	mov	r5, r0
 800599c:	f3ef 8310 	mrs	r3, PRIMASK
 80059a0:	b672      	cpsid	i
 80059a2:	2601      	movs	r6, #1
 80059a4:	4c0c      	ldr	r4, [pc, #48]	@ (80059d8 <_tx_mutex_thread_release+0x40>)
 80059a6:	6822      	ldr	r2, [r4, #0]
 80059a8:	3201      	adds	r2, #1
 80059aa:	6022      	str	r2, [r4, #0]
 80059ac:	f8d5 00a4 	ldr.w	r0, [r5, #164]	@ 0xa4
 80059b0:	b158      	cbz	r0, 80059ca <_tx_mutex_thread_release+0x32>
 80059b2:	6086      	str	r6, [r0, #8]
 80059b4:	f383 8810 	msr	PRIMASK, r3
 80059b8:	f000 f9b6 	bl	8005d28 <_tx_mutex_put>
 80059bc:	f3ef 8310 	mrs	r3, PRIMASK
 80059c0:	b672      	cpsid	i
 80059c2:	f8d5 20a4 	ldr.w	r2, [r5, #164]	@ 0xa4
 80059c6:	2a00      	cmp	r2, #0
 80059c8:	d1f0      	bne.n	80059ac <_tx_mutex_thread_release+0x14>
 80059ca:	6822      	ldr	r2, [r4, #0]
 80059cc:	3a01      	subs	r2, #1
 80059ce:	6022      	str	r2, [r4, #0]
 80059d0:	f383 8810 	msr	PRIMASK, r3
 80059d4:	bd70      	pop	{r4, r5, r6, pc}
 80059d6:	bf00      	nop
 80059d8:	20003094 	.word	0x20003094

080059dc <_tx_mutex_create>:
 80059dc:	b570      	push	{r4, r5, r6, lr}
 80059de:	4604      	mov	r4, r0
 80059e0:	460e      	mov	r6, r1
 80059e2:	4615      	mov	r5, r2
 80059e4:	2100      	movs	r1, #0
 80059e6:	2234      	movs	r2, #52	@ 0x34
 80059e8:	f003 fb66 	bl	80090b8 <memset>
 80059ec:	6066      	str	r6, [r4, #4]
 80059ee:	6125      	str	r5, [r4, #16]
 80059f0:	f3ef 8510 	mrs	r5, PRIMASK
 80059f4:	b672      	cpsid	i
 80059f6:	4b0c      	ldr	r3, [pc, #48]	@ (8005a28 <_tx_mutex_create+0x4c>)
 80059f8:	4a0c      	ldr	r2, [pc, #48]	@ (8005a2c <_tx_mutex_create+0x50>)
 80059fa:	6023      	str	r3, [r4, #0]
 80059fc:	490c      	ldr	r1, [pc, #48]	@ (8005a30 <_tx_mutex_create+0x54>)
 80059fe:	4b0d      	ldr	r3, [pc, #52]	@ (8005a34 <_tx_mutex_create+0x58>)
 8005a00:	601a      	str	r2, [r3, #0]
 8005a02:	680b      	ldr	r3, [r1, #0]
 8005a04:	4a0c      	ldr	r2, [pc, #48]	@ (8005a38 <_tx_mutex_create+0x5c>)
 8005a06:	b943      	cbnz	r3, 8005a1a <_tx_mutex_create+0x3e>
 8005a08:	e9c4 4408 	strd	r4, r4, [r4, #32]
 8005a0c:	6014      	str	r4, [r2, #0]
 8005a0e:	3301      	adds	r3, #1
 8005a10:	600b      	str	r3, [r1, #0]
 8005a12:	f385 8810 	msr	PRIMASK, r5
 8005a16:	2000      	movs	r0, #0
 8005a18:	bd70      	pop	{r4, r5, r6, pc}
 8005a1a:	6812      	ldr	r2, [r2, #0]
 8005a1c:	6a50      	ldr	r0, [r2, #36]	@ 0x24
 8005a1e:	6254      	str	r4, [r2, #36]	@ 0x24
 8005a20:	6204      	str	r4, [r0, #32]
 8005a22:	e9c4 2008 	strd	r2, r0, [r4, #32]
 8005a26:	e7f2      	b.n	8005a0e <_tx_mutex_create+0x32>
 8005a28:	4d555445 	.word	0x4d555445
 8005a2c:	08005999 	.word	0x08005999
 8005a30:	2000306c 	.word	0x2000306c
 8005a34:	20003090 	.word	0x20003090
 8005a38:	20003070 	.word	0x20003070

08005a3c <_tx_mutex_delete>:
 8005a3c:	e92d 43f8 	stmdb	sp!, {r3, r4, r5, r6, r7, r8, r9, lr}
 8005a40:	f3ef 8210 	mrs	r2, PRIMASK
 8005a44:	b672      	cpsid	i
 8005a46:	2300      	movs	r3, #0
 8005a48:	4924      	ldr	r1, [pc, #144]	@ (8005adc <_tx_mutex_delete+0xa0>)
 8005a4a:	6003      	str	r3, [r0, #0]
 8005a4c:	680b      	ldr	r3, [r1, #0]
 8005a4e:	3b01      	subs	r3, #1
 8005a50:	600b      	str	r3, [r1, #0]
 8005a52:	4923      	ldr	r1, [pc, #140]	@ (8005ae0 <_tx_mutex_delete+0xa4>)
 8005a54:	b90b      	cbnz	r3, 8005a5a <_tx_mutex_delete+0x1e>
 8005a56:	600b      	str	r3, [r1, #0]
 8005a58:	e006      	b.n	8005a68 <_tx_mutex_delete+0x2c>
 8005a5a:	e9d0 3408 	ldrd	r3, r4, [r0, #32]
 8005a5e:	625c      	str	r4, [r3, #36]	@ 0x24
 8005a60:	6223      	str	r3, [r4, #32]
 8005a62:	680c      	ldr	r4, [r1, #0]
 8005a64:	4284      	cmp	r4, r0
 8005a66:	d0f6      	beq.n	8005a56 <_tx_mutex_delete+0x1a>
 8005a68:	4c1e      	ldr	r4, [pc, #120]	@ (8005ae4 <_tx_mutex_delete+0xa8>)
 8005a6a:	6985      	ldr	r5, [r0, #24]
 8005a6c:	6823      	ldr	r3, [r4, #0]
 8005a6e:	69c6      	ldr	r6, [r0, #28]
 8005a70:	3301      	adds	r3, #1
 8005a72:	6023      	str	r3, [r4, #0]
 8005a74:	2300      	movs	r3, #0
 8005a76:	6183      	str	r3, [r0, #24]
 8005a78:	61c3      	str	r3, [r0, #28]
 8005a7a:	68c3      	ldr	r3, [r0, #12]
 8005a7c:	b143      	cbz	r3, 8005a90 <_tx_mutex_delete+0x54>
 8005a7e:	2301      	movs	r3, #1
 8005a80:	6083      	str	r3, [r0, #8]
 8005a82:	f382 8810 	msr	PRIMASK, r2
 8005a86:	f000 f94f 	bl	8005d28 <_tx_mutex_put>
 8005a8a:	f3ef 8210 	mrs	r2, PRIMASK
 8005a8e:	b672      	cpsid	i
 8005a90:	f382 8810 	msr	PRIMASK, r2
 8005a94:	2700      	movs	r7, #0
 8005a96:	f04f 0801 	mov.w	r8, #1
 8005a9a:	b966      	cbnz	r6, 8005ab6 <_tx_mutex_delete+0x7a>
 8005a9c:	f3ef 8210 	mrs	r2, PRIMASK
 8005aa0:	b672      	cpsid	i
 8005aa2:	6823      	ldr	r3, [r4, #0]
 8005aa4:	3b01      	subs	r3, #1
 8005aa6:	6023      	str	r3, [r4, #0]
 8005aa8:	f382 8810 	msr	PRIMASK, r2
 8005aac:	f000 fc98 	bl	80063e0 <_tx_thread_system_preempt_check>
 8005ab0:	4630      	mov	r0, r6
 8005ab2:	e8bd 83f8 	ldmia.w	sp!, {r3, r4, r5, r6, r7, r8, r9, pc}
 8005ab6:	3e01      	subs	r6, #1
 8005ab8:	f3ef 8210 	mrs	r2, PRIMASK
 8005abc:	b672      	cpsid	i
 8005abe:	6823      	ldr	r3, [r4, #0]
 8005ac0:	f8d5 9070 	ldr.w	r9, [r5, #112]	@ 0x70
 8005ac4:	3301      	adds	r3, #1
 8005ac6:	66af      	str	r7, [r5, #104]	@ 0x68
 8005ac8:	f8c5 8084 	str.w	r8, [r5, #132]	@ 0x84
 8005acc:	6023      	str	r3, [r4, #0]
 8005ace:	f382 8810 	msr	PRIMASK, r2
 8005ad2:	4628      	mov	r0, r5
 8005ad4:	f000 fca2 	bl	800641c <_tx_thread_system_resume>
 8005ad8:	464d      	mov	r5, r9
 8005ada:	e7de      	b.n	8005a9a <_tx_mutex_delete+0x5e>
 8005adc:	2000306c 	.word	0x2000306c
 8005ae0:	20003070 	.word	0x20003070
 8005ae4:	20003094 	.word	0x20003094

08005ae8 <_tx_mutex_get>:
 8005ae8:	b5f8      	push	{r3, r4, r5, r6, r7, lr}
 8005aea:	4603      	mov	r3, r0
 8005aec:	f3ef 8210 	mrs	r2, PRIMASK
 8005af0:	b672      	cpsid	i
 8005af2:	4837      	ldr	r0, [pc, #220]	@ (8005bd0 <_tx_mutex_get+0xe8>)
 8005af4:	689d      	ldr	r5, [r3, #8]
 8005af6:	6804      	ldr	r4, [r0, #0]
 8005af8:	bb05      	cbnz	r5, 8005b3c <_tx_mutex_get+0x54>
 8005afa:	2101      	movs	r1, #1
 8005afc:	e9c3 1402 	strd	r1, r4, [r3, #8]
 8005b00:	b19c      	cbz	r4, 8005b2a <_tx_mutex_get+0x42>
 8005b02:	6919      	ldr	r1, [r3, #16]
 8005b04:	2901      	cmp	r1, #1
 8005b06:	bf01      	itttt	eq
 8005b08:	6ae1      	ldreq	r1, [r4, #44]	@ 0x2c
 8005b0a:	6159      	streq	r1, [r3, #20]
 8005b0c:	2120      	moveq	r1, #32
 8005b0e:	6299      	streq	r1, [r3, #40]	@ 0x28
 8005b10:	f8d4 10a4 	ldr.w	r1, [r4, #164]	@ 0xa4
 8005b14:	b169      	cbz	r1, 8005b32 <_tx_mutex_get+0x4a>
 8005b16:	6b08      	ldr	r0, [r1, #48]	@ 0x30
 8005b18:	630b      	str	r3, [r1, #48]	@ 0x30
 8005b1a:	62c3      	str	r3, [r0, #44]	@ 0x2c
 8005b1c:	e9c3 100b 	strd	r1, r0, [r3, #44]	@ 0x2c
 8005b20:	f8d4 30a0 	ldr.w	r3, [r4, #160]	@ 0xa0
 8005b24:	3301      	adds	r3, #1
 8005b26:	f8c4 30a0 	str.w	r3, [r4, #160]	@ 0xa0
 8005b2a:	f382 8810 	msr	PRIMASK, r2
 8005b2e:	2000      	movs	r0, #0
 8005b30:	bdf8      	pop	{r3, r4, r5, r6, r7, pc}
 8005b32:	f8c4 30a4 	str.w	r3, [r4, #164]	@ 0xa4
 8005b36:	e9c3 330b 	strd	r3, r3, [r3, #44]	@ 0x2c
 8005b3a:	e7f1      	b.n	8005b20 <_tx_mutex_get+0x38>
 8005b3c:	68d8      	ldr	r0, [r3, #12]
 8005b3e:	42a0      	cmp	r0, r4
 8005b40:	d102      	bne.n	8005b48 <_tx_mutex_get+0x60>
 8005b42:	3501      	adds	r5, #1
 8005b44:	609d      	str	r5, [r3, #8]
 8005b46:	e7f0      	b.n	8005b2a <_tx_mutex_get+0x42>
 8005b48:	b111      	cbz	r1, 8005b50 <_tx_mutex_get+0x68>
 8005b4a:	4e22      	ldr	r6, [pc, #136]	@ (8005bd4 <_tx_mutex_get+0xec>)
 8005b4c:	6835      	ldr	r5, [r6, #0]
 8005b4e:	b11d      	cbz	r5, 8005b58 <_tx_mutex_get+0x70>
 8005b50:	f382 8810 	msr	PRIMASK, r2
 8005b54:	201d      	movs	r0, #29
 8005b56:	e7eb      	b.n	8005b30 <_tx_mutex_get+0x48>
 8005b58:	4d1f      	ldr	r5, [pc, #124]	@ (8005bd8 <_tx_mutex_get+0xf0>)
 8005b5a:	e9c4 531a 	strd	r5, r3, [r4, #104]	@ 0x68
 8005b5e:	f8d4 50ac 	ldr.w	r5, [r4, #172]	@ 0xac
 8005b62:	3501      	adds	r5, #1
 8005b64:	f8c4 50ac 	str.w	r5, [r4, #172]	@ 0xac
 8005b68:	69dd      	ldr	r5, [r3, #28]
 8005b6a:	bb3d      	cbnz	r5, 8005bbc <_tx_mutex_get+0xd4>
 8005b6c:	619c      	str	r4, [r3, #24]
 8005b6e:	e9c4 441c 	strd	r4, r4, [r4, #112]	@ 0x70
 8005b72:	3501      	adds	r5, #1
 8005b74:	61dd      	str	r5, [r3, #28]
 8005b76:	250d      	movs	r5, #13
 8005b78:	6325      	str	r5, [r4, #48]	@ 0x30
 8005b7a:	2501      	movs	r5, #1
 8005b7c:	64e1      	str	r1, [r4, #76]	@ 0x4c
 8005b7e:	6831      	ldr	r1, [r6, #0]
 8005b80:	63a5      	str	r5, [r4, #56]	@ 0x38
 8005b82:	4429      	add	r1, r5
 8005b84:	6031      	str	r1, [r6, #0]
 8005b86:	f382 8810 	msr	PRIMASK, r2
 8005b8a:	691a      	ldr	r2, [r3, #16]
 8005b8c:	42aa      	cmp	r2, r5
 8005b8e:	d10f      	bne.n	8005bb0 <_tx_mutex_get+0xc8>
 8005b90:	6ae1      	ldr	r1, [r4, #44]	@ 0x2c
 8005b92:	6a9a      	ldr	r2, [r3, #40]	@ 0x28
 8005b94:	428a      	cmp	r2, r1
 8005b96:	bf88      	it	hi
 8005b98:	6299      	strhi	r1, [r3, #40]	@ 0x28
 8005b9a:	f8d0 309c 	ldr.w	r3, [r0, #156]	@ 0x9c
 8005b9e:	4299      	cmp	r1, r3
 8005ba0:	6ac3      	ldr	r3, [r0, #44]	@ 0x2c
 8005ba2:	bf38      	it	cc
 8005ba4:	f8c0 109c 	strcc.w	r1, [r0, #156]	@ 0x9c
 8005ba8:	4299      	cmp	r1, r3
 8005baa:	d201      	bcs.n	8005bb0 <_tx_mutex_get+0xc8>
 8005bac:	f000 f860 	bl	8005c70 <_tx_mutex_priority_change>
 8005bb0:	4620      	mov	r0, r4
 8005bb2:	f000 fca7 	bl	8006504 <_tx_thread_system_suspend>
 8005bb6:	f8d4 0084 	ldr.w	r0, [r4, #132]	@ 0x84
 8005bba:	e7b9      	b.n	8005b30 <_tx_mutex_get+0x48>
 8005bbc:	699f      	ldr	r7, [r3, #24]
 8005bbe:	f8d7 c074 	ldr.w	ip, [r7, #116]	@ 0x74
 8005bc2:	6727      	str	r7, [r4, #112]	@ 0x70
 8005bc4:	f8c4 c074 	str.w	ip, [r4, #116]	@ 0x74
 8005bc8:	f8cc 4070 	str.w	r4, [ip, #112]	@ 0x70
 8005bcc:	677c      	str	r4, [r7, #116]	@ 0x74
 8005bce:	e7d0      	b.n	8005b72 <_tx_mutex_get+0x8a>
 8005bd0:	2000312c 	.word	0x2000312c
 8005bd4:	20003094 	.word	0x20003094
 8005bd8:	08005921 	.word	0x08005921

08005bdc <_tx_mutex_prioritize>:
 8005bdc:	b5f8      	push	{r3, r4, r5, r6, r7, lr}
 8005bde:	f3ef 8410 	mrs	r4, PRIMASK
 8005be2:	b672      	cpsid	i
 8005be4:	69c6      	ldr	r6, [r0, #28]
 8005be6:	2e01      	cmp	r6, #1
 8005be8:	d803      	bhi.n	8005bf2 <_tx_mutex_prioritize+0x16>
 8005bea:	f384 8810 	msr	PRIMASK, r4
 8005bee:	2000      	movs	r0, #0
 8005bf0:	bdf8      	pop	{r3, r4, r5, r6, r7, pc}
 8005bf2:	6983      	ldr	r3, [r0, #24]
 8005bf4:	2e02      	cmp	r6, #2
 8005bf6:	6f19      	ldr	r1, [r3, #112]	@ 0x70
 8005bf8:	6ada      	ldr	r2, [r3, #44]	@ 0x2c
 8005bfa:	6acd      	ldr	r5, [r1, #44]	@ 0x2c
 8005bfc:	d103      	bne.n	8005c06 <_tx_mutex_prioritize+0x2a>
 8005bfe:	4295      	cmp	r5, r2
 8005c00:	bf38      	it	cc
 8005c02:	6181      	strcc	r1, [r0, #24]
 8005c04:	e7f1      	b.n	8005bea <_tx_mutex_prioritize+0xe>
 8005c06:	469c      	mov	ip, r3
 8005c08:	4d18      	ldr	r5, [pc, #96]	@ (8005c6c <_tx_mutex_prioritize+0x90>)
 8005c0a:	682a      	ldr	r2, [r5, #0]
 8005c0c:	3201      	adds	r2, #1
 8005c0e:	602a      	str	r2, [r5, #0]
 8005c10:	6acf      	ldr	r7, [r1, #44]	@ 0x2c
 8005c12:	6ada      	ldr	r2, [r3, #44]	@ 0x2c
 8005c14:	4297      	cmp	r7, r2
 8005c16:	bf38      	it	cc
 8005c18:	460b      	movcc	r3, r1
 8005c1a:	f384 8810 	msr	PRIMASK, r4
 8005c1e:	f3ef 8410 	mrs	r4, PRIMASK
 8005c22:	b672      	cpsid	i
 8005c24:	6982      	ldr	r2, [r0, #24]
 8005c26:	69c7      	ldr	r7, [r0, #28]
 8005c28:	4562      	cmp	r2, ip
 8005c2a:	d11b      	bne.n	8005c64 <_tx_mutex_prioritize+0x88>
 8005c2c:	42b7      	cmp	r7, r6
 8005c2e:	d119      	bne.n	8005c64 <_tx_mutex_prioritize+0x88>
 8005c30:	6f09      	ldr	r1, [r1, #112]	@ 0x70
 8005c32:	428a      	cmp	r2, r1
 8005c34:	d114      	bne.n	8005c60 <_tx_mutex_prioritize+0x84>
 8005c36:	6829      	ldr	r1, [r5, #0]
 8005c38:	429a      	cmp	r2, r3
 8005c3a:	f101 31ff 	add.w	r1, r1, #4294967295
 8005c3e:	6029      	str	r1, [r5, #0]
 8005c40:	d009      	beq.n	8005c56 <_tx_mutex_prioritize+0x7a>
 8005c42:	e9d3 511c 	ldrd	r5, r1, [r3, #112]	@ 0x70
 8005c46:	6769      	str	r1, [r5, #116]	@ 0x74
 8005c48:	670d      	str	r5, [r1, #112]	@ 0x70
 8005c4a:	6f51      	ldr	r1, [r2, #116]	@ 0x74
 8005c4c:	e9c3 211c 	strd	r2, r1, [r3, #112]	@ 0x70
 8005c50:	670b      	str	r3, [r1, #112]	@ 0x70
 8005c52:	6753      	str	r3, [r2, #116]	@ 0x74
 8005c54:	6183      	str	r3, [r0, #24]
 8005c56:	f384 8810 	msr	PRIMASK, r4
 8005c5a:	f000 fbc1 	bl	80063e0 <_tx_thread_system_preempt_check>
 8005c5e:	e7c6      	b.n	8005bee <_tx_mutex_prioritize+0x12>
 8005c60:	4694      	mov	ip, r2
 8005c62:	e7d5      	b.n	8005c10 <_tx_mutex_prioritize+0x34>
 8005c64:	463e      	mov	r6, r7
 8005c66:	4613      	mov	r3, r2
 8005c68:	6f11      	ldr	r1, [r2, #112]	@ 0x70
 8005c6a:	e7e2      	b.n	8005c32 <_tx_mutex_prioritize+0x56>
 8005c6c:	20003094 	.word	0x20003094

08005c70 <_tx_mutex_priority_change>:
 8005c70:	e92d 41f0 	stmdb	sp!, {r4, r5, r6, r7, r8, lr}
 8005c74:	4604      	mov	r4, r0
 8005c76:	460d      	mov	r5, r1
 8005c78:	f3ef 8210 	mrs	r2, PRIMASK
 8005c7c:	b672      	cpsid	i
 8005c7e:	6b01      	ldr	r1, [r0, #48]	@ 0x30
 8005c80:	b151      	cbz	r1, 8005c98 <_tx_mutex_priority_change+0x28>
 8005c82:	f8d0 3098 	ldr.w	r3, [r0, #152]	@ 0x98
 8005c86:	62c5      	str	r5, [r0, #44]	@ 0x2c
 8005c88:	42ab      	cmp	r3, r5
 8005c8a:	bf94      	ite	ls
 8005c8c:	63c3      	strls	r3, [r0, #60]	@ 0x3c
 8005c8e:	63c5      	strhi	r5, [r0, #60]	@ 0x3c
 8005c90:	f382 8810 	msr	PRIMASK, r2
 8005c94:	e8bd 81f0 	ldmia.w	sp!, {r4, r5, r6, r7, r8, pc}
 8005c98:	f8df c088 	ldr.w	ip, [pc, #136]	@ 8005d24 <_tx_mutex_priority_change+0xb4>
 8005c9c:	4e1f      	ldr	r6, [pc, #124]	@ (8005d1c <_tx_mutex_priority_change+0xac>)
 8005c9e:	f8dc 3000 	ldr.w	r3, [ip]
 8005ca2:	f8d6 8000 	ldr.w	r8, [r6]
 8005ca6:	3302      	adds	r3, #2
 8005ca8:	f8cc 3000 	str.w	r3, [ip]
 8005cac:	230e      	movs	r3, #14
 8005cae:	6303      	str	r3, [r0, #48]	@ 0x30
 8005cb0:	2301      	movs	r3, #1
 8005cb2:	6ac7      	ldr	r7, [r0, #44]	@ 0x2c
 8005cb4:	6383      	str	r3, [r0, #56]	@ 0x38
 8005cb6:	64c1      	str	r1, [r0, #76]	@ 0x4c
 8005cb8:	f382 8810 	msr	PRIMASK, r2
 8005cbc:	f000 fc22 	bl	8006504 <_tx_thread_system_suspend>
 8005cc0:	f3ef 8310 	mrs	r3, PRIMASK
 8005cc4:	b672      	cpsid	i
 8005cc6:	f8d4 2098 	ldr.w	r2, [r4, #152]	@ 0x98
 8005cca:	62e5      	str	r5, [r4, #44]	@ 0x2c
 8005ccc:	42aa      	cmp	r2, r5
 8005cce:	bf94      	ite	ls
 8005cd0:	63e2      	strls	r2, [r4, #60]	@ 0x3c
 8005cd2:	63e5      	strhi	r5, [r4, #60]	@ 0x3c
 8005cd4:	f383 8810 	msr	PRIMASK, r3
 8005cd8:	4620      	mov	r0, r4
 8005cda:	f000 fb9f 	bl	800641c <_tx_thread_system_resume>
 8005cde:	f3ef 8010 	mrs	r0, PRIMASK
 8005ce2:	b672      	cpsid	i
 8005ce4:	6832      	ldr	r2, [r6, #0]
 8005ce6:	4294      	cmp	r4, r2
 8005ce8:	d014      	beq.n	8005d14 <_tx_mutex_priority_change+0xa4>
 8005cea:	6b23      	ldr	r3, [r4, #48]	@ 0x30
 8005cec:	b993      	cbnz	r3, 8005d14 <_tx_mutex_priority_change+0xa4>
 8005cee:	6ae3      	ldr	r3, [r4, #44]	@ 0x2c
 8005cf0:	6ad1      	ldr	r1, [r2, #44]	@ 0x2c
 8005cf2:	428b      	cmp	r3, r1
 8005cf4:	d809      	bhi.n	8005d0a <_tx_mutex_priority_change+0x9a>
 8005cf6:	4544      	cmp	r4, r8
 8005cf8:	d10c      	bne.n	8005d14 <_tx_mutex_priority_change+0xa4>
 8005cfa:	42af      	cmp	r7, r5
 8005cfc:	bf38      	it	cc
 8005cfe:	4a08      	ldrcc	r2, [pc, #32]	@ (8005d20 <_tx_mutex_priority_change+0xb0>)
 8005d00:	6034      	str	r4, [r6, #0]
 8005d02:	bf38      	it	cc
 8005d04:	f842 4023 	strcc.w	r4, [r2, r3, lsl #2]
 8005d08:	e004      	b.n	8005d14 <_tx_mutex_priority_change+0xa4>
 8005d0a:	6be2      	ldr	r2, [r4, #60]	@ 0x3c
 8005d0c:	4293      	cmp	r3, r2
 8005d0e:	d901      	bls.n	8005d14 <_tx_mutex_priority_change+0xa4>
 8005d10:	4291      	cmp	r1, r2
 8005d12:	d2f2      	bcs.n	8005cfa <_tx_mutex_priority_change+0x8a>
 8005d14:	f380 8810 	msr	PRIMASK, r0
 8005d18:	e7bc      	b.n	8005c94 <_tx_mutex_priority_change+0x24>
 8005d1a:	bf00      	nop
 8005d1c:	20003128 	.word	0x20003128
 8005d20:	20003098 	.word	0x20003098
 8005d24:	20003094 	.word	0x20003094

08005d28 <_tx_mutex_put>:
 8005d28:	e92d 41f0 	stmdb	sp!, {r4, r5, r6, r7, r8, lr}
 8005d2c:	4604      	mov	r4, r0
 8005d2e:	f3ef 8210 	mrs	r2, PRIMASK
 8005d32:	4611      	mov	r1, r2
 8005d34:	b672      	cpsid	i
 8005d36:	6880      	ldr	r0, [r0, #8]
 8005d38:	b138      	cbz	r0, 8005d4a <_tx_mutex_put+0x22>
 8005d3a:	4d6b      	ldr	r5, [pc, #428]	@ (8005ee8 <_tx_mutex_put+0x1c0>)
 8005d3c:	68e3      	ldr	r3, [r4, #12]
 8005d3e:	682d      	ldr	r5, [r5, #0]
 8005d40:	42ab      	cmp	r3, r5
 8005d42:	d007      	beq.n	8005d54 <_tx_mutex_put+0x2c>
 8005d44:	4d69      	ldr	r5, [pc, #420]	@ (8005eec <_tx_mutex_put+0x1c4>)
 8005d46:	682d      	ldr	r5, [r5, #0]
 8005d48:	b925      	cbnz	r5, 8005d54 <_tx_mutex_put+0x2c>
 8005d4a:	f382 8810 	msr	PRIMASK, r2
 8005d4e:	201e      	movs	r0, #30
 8005d50:	e8bd 81f0 	ldmia.w	sp!, {r4, r5, r6, r7, r8, pc}
 8005d54:	3801      	subs	r0, #1
 8005d56:	60a0      	str	r0, [r4, #8]
 8005d58:	b118      	cbz	r0, 8005d62 <_tx_mutex_put+0x3a>
 8005d5a:	f382 8810 	msr	PRIMASK, r2
 8005d5e:	2000      	movs	r0, #0
 8005d60:	e7f6      	b.n	8005d50 <_tx_mutex_put+0x28>
 8005d62:	2b00      	cmp	r3, #0
 8005d64:	d0f9      	beq.n	8005d5a <_tx_mutex_put+0x32>
 8005d66:	f8d3 00a0 	ldr.w	r0, [r3, #160]	@ 0xa0
 8005d6a:	3801      	subs	r0, #1
 8005d6c:	f8c3 00a0 	str.w	r0, [r3, #160]	@ 0xa0
 8005d70:	b910      	cbnz	r0, 8005d78 <_tx_mutex_put+0x50>
 8005d72:	f8c3 00a4 	str.w	r0, [r3, #164]	@ 0xa4
 8005d76:	e007      	b.n	8005d88 <_tx_mutex_put+0x60>
 8005d78:	e9d4 050b 	ldrd	r0, r5, [r4, #44]	@ 0x2c
 8005d7c:	6305      	str	r5, [r0, #48]	@ 0x30
 8005d7e:	62e8      	str	r0, [r5, #44]	@ 0x2c
 8005d80:	f8d3 50a4 	ldr.w	r5, [r3, #164]	@ 0xa4
 8005d84:	42a5      	cmp	r5, r4
 8005d86:	d0f4      	beq.n	8005d72 <_tx_mutex_put+0x4a>
 8005d88:	69a5      	ldr	r5, [r4, #24]
 8005d8a:	6920      	ldr	r0, [r4, #16]
 8005d8c:	b915      	cbnz	r5, 8005d94 <_tx_mutex_put+0x6c>
 8005d8e:	b908      	cbnz	r0, 8005d94 <_tx_mutex_put+0x6c>
 8005d90:	60e0      	str	r0, [r4, #12]
 8005d92:	e7e2      	b.n	8005d5a <_tx_mutex_put+0x32>
 8005d94:	2801      	cmp	r0, #1
 8005d96:	f8d3 7094 	ldr.w	r7, [r3, #148]	@ 0x94
 8005d9a:	4d54      	ldr	r5, [pc, #336]	@ (8005eec <_tx_mutex_put+0x1c4>)
 8005d9c:	d11e      	bne.n	8005ddc <_tx_mutex_put+0xb4>
 8005d9e:	6829      	ldr	r1, [r5, #0]
 8005da0:	3101      	adds	r1, #1
 8005da2:	6029      	str	r1, [r5, #0]
 8005da4:	f382 8810 	msr	PRIMASK, r2
 8005da8:	f8d3 10a4 	ldr.w	r1, [r3, #164]	@ 0xa4
 8005dac:	2020      	movs	r0, #32
 8005dae:	460a      	mov	r2, r1
 8005db0:	b14a      	cbz	r2, 8005dc6 <_tx_mutex_put+0x9e>
 8005db2:	6916      	ldr	r6, [r2, #16]
 8005db4:	2e01      	cmp	r6, #1
 8005db6:	d103      	bne.n	8005dc0 <_tx_mutex_put+0x98>
 8005db8:	6a96      	ldr	r6, [r2, #40]	@ 0x28
 8005dba:	42b0      	cmp	r0, r6
 8005dbc:	bf28      	it	cs
 8005dbe:	4630      	movcs	r0, r6
 8005dc0:	6ad2      	ldr	r2, [r2, #44]	@ 0x2c
 8005dc2:	4291      	cmp	r1, r2
 8005dc4:	d1f4      	bne.n	8005db0 <_tx_mutex_put+0x88>
 8005dc6:	f3ef 8110 	mrs	r1, PRIMASK
 8005dca:	b672      	cpsid	i
 8005dcc:	4287      	cmp	r7, r0
 8005dce:	bf28      	it	cs
 8005dd0:	4607      	movcs	r7, r0
 8005dd2:	682a      	ldr	r2, [r5, #0]
 8005dd4:	f8c3 009c 	str.w	r0, [r3, #156]	@ 0x9c
 8005dd8:	3a01      	subs	r2, #1
 8005dda:	602a      	str	r2, [r5, #0]
 8005ddc:	69e3      	ldr	r3, [r4, #28]
 8005dde:	2b01      	cmp	r3, #1
 8005de0:	d910      	bls.n	8005e04 <_tx_mutex_put+0xdc>
 8005de2:	6923      	ldr	r3, [r4, #16]
 8005de4:	2b01      	cmp	r3, #1
 8005de6:	d10d      	bne.n	8005e04 <_tx_mutex_put+0xdc>
 8005de8:	682b      	ldr	r3, [r5, #0]
 8005dea:	3301      	adds	r3, #1
 8005dec:	602b      	str	r3, [r5, #0]
 8005dee:	f381 8810 	msr	PRIMASK, r1
 8005df2:	4620      	mov	r0, r4
 8005df4:	f7ff fef2 	bl	8005bdc <_tx_mutex_prioritize>
 8005df8:	f3ef 8110 	mrs	r1, PRIMASK
 8005dfc:	b672      	cpsid	i
 8005dfe:	682b      	ldr	r3, [r5, #0]
 8005e00:	3b01      	subs	r3, #1
 8005e02:	602b      	str	r3, [r5, #0]
 8005e04:	69a6      	ldr	r6, [r4, #24]
 8005e06:	b9d6      	cbnz	r6, 8005e3e <_tx_mutex_put+0x116>
 8005e08:	682b      	ldr	r3, [r5, #0]
 8005e0a:	3301      	adds	r3, #1
 8005e0c:	602b      	str	r3, [r5, #0]
 8005e0e:	f381 8810 	msr	PRIMASK, r1
 8005e12:	2320      	movs	r3, #32
 8005e14:	68e0      	ldr	r0, [r4, #12]
 8005e16:	62a3      	str	r3, [r4, #40]	@ 0x28
 8005e18:	6ac3      	ldr	r3, [r0, #44]	@ 0x2c
 8005e1a:	42bb      	cmp	r3, r7
 8005e1c:	d002      	beq.n	8005e24 <_tx_mutex_put+0xfc>
 8005e1e:	4639      	mov	r1, r7
 8005e20:	f7ff ff26 	bl	8005c70 <_tx_mutex_priority_change>
 8005e24:	f3ef 8210 	mrs	r2, PRIMASK
 8005e28:	b672      	cpsid	i
 8005e2a:	682b      	ldr	r3, [r5, #0]
 8005e2c:	3b01      	subs	r3, #1
 8005e2e:	602b      	str	r3, [r5, #0]
 8005e30:	2300      	movs	r3, #0
 8005e32:	60e3      	str	r3, [r4, #12]
 8005e34:	f382 8810 	msr	PRIMASK, r2
 8005e38:	f000 fad2 	bl	80063e0 <_tx_thread_system_preempt_check>
 8005e3c:	e78f      	b.n	8005d5e <_tx_mutex_put+0x36>
 8005e3e:	6923      	ldr	r3, [r4, #16]
 8005e40:	2b01      	cmp	r3, #1
 8005e42:	bf09      	itett	eq
 8005e44:	6af3      	ldreq	r3, [r6, #44]	@ 0x2c
 8005e46:	f04f 0800 	movne.w	r8, #0
 8005e4a:	6163      	streq	r3, [r4, #20]
 8005e4c:	2320      	moveq	r3, #32
 8005e4e:	bf08      	it	eq
 8005e50:	62a3      	streq	r3, [r4, #40]	@ 0x28
 8005e52:	f8d6 30a0 	ldr.w	r3, [r6, #160]	@ 0xa0
 8005e56:	bf08      	it	eq
 8005e58:	f8d4 800c 	ldreq.w	r8, [r4, #12]
 8005e5c:	2b00      	cmp	r3, #0
 8005e5e:	d134      	bne.n	8005eca <_tx_mutex_put+0x1a2>
 8005e60:	f8c6 40a4 	str.w	r4, [r6, #164]	@ 0xa4
 8005e64:	e9c4 440b 	strd	r4, r4, [r4, #44]	@ 0x2c
 8005e68:	3301      	adds	r3, #1
 8005e6a:	f8c6 30a0 	str.w	r3, [r6, #160]	@ 0xa0
 8005e6e:	2301      	movs	r3, #1
 8005e70:	e9c4 3602 	strd	r3, r6, [r4, #8]
 8005e74:	69e3      	ldr	r3, [r4, #28]
 8005e76:	3b01      	subs	r3, #1
 8005e78:	61e3      	str	r3, [r4, #28]
 8005e7a:	bb73      	cbnz	r3, 8005eda <_tx_mutex_put+0x1b2>
 8005e7c:	61a3      	str	r3, [r4, #24]
 8005e7e:	2300      	movs	r3, #0
 8005e80:	66b3      	str	r3, [r6, #104]	@ 0x68
 8005e82:	f8c6 3084 	str.w	r3, [r6, #132]	@ 0x84
 8005e86:	682b      	ldr	r3, [r5, #0]
 8005e88:	3301      	adds	r3, #1
 8005e8a:	602b      	str	r3, [r5, #0]
 8005e8c:	f381 8810 	msr	PRIMASK, r1
 8005e90:	6923      	ldr	r3, [r4, #16]
 8005e92:	2b01      	cmp	r3, #1
 8005e94:	d115      	bne.n	8005ec2 <_tx_mutex_put+0x19a>
 8005e96:	69e3      	ldr	r3, [r4, #28]
 8005e98:	b15b      	cbz	r3, 8005eb2 <_tx_mutex_put+0x18a>
 8005e9a:	4620      	mov	r0, r4
 8005e9c:	f7ff fe9e 	bl	8005bdc <_tx_mutex_prioritize>
 8005ea0:	f3ef 8210 	mrs	r2, PRIMASK
 8005ea4:	b672      	cpsid	i
 8005ea6:	69a3      	ldr	r3, [r4, #24]
 8005ea8:	b10b      	cbz	r3, 8005eae <_tx_mutex_put+0x186>
 8005eaa:	6adb      	ldr	r3, [r3, #44]	@ 0x2c
 8005eac:	62a3      	str	r3, [r4, #40]	@ 0x28
 8005eae:	f382 8810 	msr	PRIMASK, r2
 8005eb2:	f8d8 302c 	ldr.w	r3, [r8, #44]	@ 0x2c
 8005eb6:	42bb      	cmp	r3, r7
 8005eb8:	d003      	beq.n	8005ec2 <_tx_mutex_put+0x19a>
 8005eba:	4639      	mov	r1, r7
 8005ebc:	4640      	mov	r0, r8
 8005ebe:	f7ff fed7 	bl	8005c70 <_tx_mutex_priority_change>
 8005ec2:	4630      	mov	r0, r6
 8005ec4:	f000 faaa 	bl	800641c <_tx_thread_system_resume>
 8005ec8:	e749      	b.n	8005d5e <_tx_mutex_put+0x36>
 8005eca:	f8d6 20a4 	ldr.w	r2, [r6, #164]	@ 0xa4
 8005ece:	6b10      	ldr	r0, [r2, #48]	@ 0x30
 8005ed0:	6314      	str	r4, [r2, #48]	@ 0x30
 8005ed2:	62c4      	str	r4, [r0, #44]	@ 0x2c
 8005ed4:	e9c4 200b 	strd	r2, r0, [r4, #44]	@ 0x2c
 8005ed8:	e7c6      	b.n	8005e68 <_tx_mutex_put+0x140>
 8005eda:	6f33      	ldr	r3, [r6, #112]	@ 0x70
 8005edc:	6f72      	ldr	r2, [r6, #116]	@ 0x74
 8005ede:	61a3      	str	r3, [r4, #24]
 8005ee0:	675a      	str	r2, [r3, #116]	@ 0x74
 8005ee2:	6713      	str	r3, [r2, #112]	@ 0x70
 8005ee4:	e7cb      	b.n	8005e7e <_tx_mutex_put+0x156>
 8005ee6:	bf00      	nop
 8005ee8:	2000312c 	.word	0x2000312c
 8005eec:	20003094 	.word	0x20003094

08005ef0 <_tx_semaphore_cleanup>:
 8005ef0:	b510      	push	{r4, lr}
 8005ef2:	f3ef 8410 	mrs	r4, PRIMASK
 8005ef6:	b672      	cpsid	i
 8005ef8:	4b18      	ldr	r3, [pc, #96]	@ (8005f5c <_tx_semaphore_cleanup+0x6c>)
 8005efa:	6e82      	ldr	r2, [r0, #104]	@ 0x68
 8005efc:	429a      	cmp	r2, r3
 8005efe:	d12a      	bne.n	8005f56 <_tx_semaphore_cleanup+0x66>
 8005f00:	f8d0 30ac 	ldr.w	r3, [r0, #172]	@ 0xac
 8005f04:	428b      	cmp	r3, r1
 8005f06:	d126      	bne.n	8005f56 <_tx_semaphore_cleanup+0x66>
 8005f08:	6ec3      	ldr	r3, [r0, #108]	@ 0x6c
 8005f0a:	b323      	cbz	r3, 8005f56 <_tx_semaphore_cleanup+0x66>
 8005f0c:	6819      	ldr	r1, [r3, #0]
 8005f0e:	4a14      	ldr	r2, [pc, #80]	@ (8005f60 <_tx_semaphore_cleanup+0x70>)
 8005f10:	4291      	cmp	r1, r2
 8005f12:	d120      	bne.n	8005f56 <_tx_semaphore_cleanup+0x66>
 8005f14:	691a      	ldr	r2, [r3, #16]
 8005f16:	b1f2      	cbz	r2, 8005f56 <_tx_semaphore_cleanup+0x66>
 8005f18:	2100      	movs	r1, #0
 8005f1a:	3a01      	subs	r2, #1
 8005f1c:	6681      	str	r1, [r0, #104]	@ 0x68
 8005f1e:	611a      	str	r2, [r3, #16]
 8005f20:	b90a      	cbnz	r2, 8005f26 <_tx_semaphore_cleanup+0x36>
 8005f22:	60da      	str	r2, [r3, #12]
 8005f24:	e006      	b.n	8005f34 <_tx_semaphore_cleanup+0x44>
 8005f26:	e9d0 211c 	ldrd	r2, r1, [r0, #112]	@ 0x70
 8005f2a:	6751      	str	r1, [r2, #116]	@ 0x74
 8005f2c:	670a      	str	r2, [r1, #112]	@ 0x70
 8005f2e:	68d9      	ldr	r1, [r3, #12]
 8005f30:	4281      	cmp	r1, r0
 8005f32:	d0f6      	beq.n	8005f22 <_tx_semaphore_cleanup+0x32>
 8005f34:	6b03      	ldr	r3, [r0, #48]	@ 0x30
 8005f36:	2b06      	cmp	r3, #6
 8005f38:	d10d      	bne.n	8005f56 <_tx_semaphore_cleanup+0x66>
 8005f3a:	230d      	movs	r3, #13
 8005f3c:	4a09      	ldr	r2, [pc, #36]	@ (8005f64 <_tx_semaphore_cleanup+0x74>)
 8005f3e:	f8c0 3084 	str.w	r3, [r0, #132]	@ 0x84
 8005f42:	6813      	ldr	r3, [r2, #0]
 8005f44:	3301      	adds	r3, #1
 8005f46:	6013      	str	r3, [r2, #0]
 8005f48:	f384 8810 	msr	PRIMASK, r4
 8005f4c:	f000 fa66 	bl	800641c <_tx_thread_system_resume>
 8005f50:	f3ef 8410 	mrs	r4, PRIMASK
 8005f54:	b672      	cpsid	i
 8005f56:	f384 8810 	msr	PRIMASK, r4
 8005f5a:	bd10      	pop	{r4, pc}
 8005f5c:	08005ef1 	.word	0x08005ef1
 8005f60:	53454d41 	.word	0x53454d41
 8005f64:	20003094 	.word	0x20003094

08005f68 <_tx_semaphore_create>:
 8005f68:	b570      	push	{r4, r5, r6, lr}
 8005f6a:	4604      	mov	r4, r0
 8005f6c:	460e      	mov	r6, r1
 8005f6e:	4615      	mov	r5, r2
 8005f70:	2100      	movs	r1, #0
 8005f72:	221c      	movs	r2, #28
 8005f74:	f003 f8a0 	bl	80090b8 <memset>
 8005f78:	e9c4 6501 	strd	r6, r5, [r4, #4]
 8005f7c:	f3ef 8510 	mrs	r5, PRIMASK
 8005f80:	b672      	cpsid	i
 8005f82:	4b0b      	ldr	r3, [pc, #44]	@ (8005fb0 <_tx_semaphore_create+0x48>)
 8005f84:	490b      	ldr	r1, [pc, #44]	@ (8005fb4 <_tx_semaphore_create+0x4c>)
 8005f86:	6023      	str	r3, [r4, #0]
 8005f88:	680b      	ldr	r3, [r1, #0]
 8005f8a:	4a0b      	ldr	r2, [pc, #44]	@ (8005fb8 <_tx_semaphore_create+0x50>)
 8005f8c:	b943      	cbnz	r3, 8005fa0 <_tx_semaphore_create+0x38>
 8005f8e:	e9c4 4405 	strd	r4, r4, [r4, #20]
 8005f92:	6014      	str	r4, [r2, #0]
 8005f94:	3301      	adds	r3, #1
 8005f96:	600b      	str	r3, [r1, #0]
 8005f98:	f385 8810 	msr	PRIMASK, r5
 8005f9c:	2000      	movs	r0, #0
 8005f9e:	bd70      	pop	{r4, r5, r6, pc}
 8005fa0:	6812      	ldr	r2, [r2, #0]
 8005fa2:	6990      	ldr	r0, [r2, #24]
 8005fa4:	6194      	str	r4, [r2, #24]
 8005fa6:	6144      	str	r4, [r0, #20]
 8005fa8:	e9c4 2005 	strd	r2, r0, [r4, #20]
 8005fac:	e7f2      	b.n	8005f94 <_tx_semaphore_create+0x2c>
 8005fae:	bf00      	nop
 8005fb0:	53454d41 	.word	0x53454d41
 8005fb4:	20003084 	.word	0x20003084
 8005fb8:	20003088 	.word	0x20003088

08005fbc <_tx_semaphore_delete>:
 8005fbc:	4603      	mov	r3, r0
 8005fbe:	e92d 41f0 	stmdb	sp!, {r4, r5, r6, r7, r8, lr}
 8005fc2:	f3ef 8710 	mrs	r7, PRIMASK
 8005fc6:	b672      	cpsid	i
 8005fc8:	2200      	movs	r2, #0
 8005fca:	491e      	ldr	r1, [pc, #120]	@ (8006044 <_tx_semaphore_delete+0x88>)
 8005fcc:	6002      	str	r2, [r0, #0]
 8005fce:	680a      	ldr	r2, [r1, #0]
 8005fd0:	3a01      	subs	r2, #1
 8005fd2:	600a      	str	r2, [r1, #0]
 8005fd4:	491c      	ldr	r1, [pc, #112]	@ (8006048 <_tx_semaphore_delete+0x8c>)
 8005fd6:	b90a      	cbnz	r2, 8005fdc <_tx_semaphore_delete+0x20>
 8005fd8:	600a      	str	r2, [r1, #0]
 8005fda:	e006      	b.n	8005fea <_tx_semaphore_delete+0x2e>
 8005fdc:	e9d0 2005 	ldrd	r2, r0, [r0, #20]
 8005fe0:	6190      	str	r0, [r2, #24]
 8005fe2:	6142      	str	r2, [r0, #20]
 8005fe4:	6808      	ldr	r0, [r1, #0]
 8005fe6:	4298      	cmp	r0, r3
 8005fe8:	d0f6      	beq.n	8005fd8 <_tx_semaphore_delete+0x1c>
 8005fea:	2600      	movs	r6, #0
 8005fec:	4c17      	ldr	r4, [pc, #92]	@ (800604c <_tx_semaphore_delete+0x90>)
 8005fee:	68d8      	ldr	r0, [r3, #12]
 8005ff0:	6822      	ldr	r2, [r4, #0]
 8005ff2:	691d      	ldr	r5, [r3, #16]
 8005ff4:	3201      	adds	r2, #1
 8005ff6:	6022      	str	r2, [r4, #0]
 8005ff8:	60de      	str	r6, [r3, #12]
 8005ffa:	611e      	str	r6, [r3, #16]
 8005ffc:	f387 8810 	msr	PRIMASK, r7
 8006000:	2701      	movs	r7, #1
 8006002:	b965      	cbnz	r5, 800601e <_tx_semaphore_delete+0x62>
 8006004:	f3ef 8210 	mrs	r2, PRIMASK
 8006008:	b672      	cpsid	i
 800600a:	6823      	ldr	r3, [r4, #0]
 800600c:	3b01      	subs	r3, #1
 800600e:	6023      	str	r3, [r4, #0]
 8006010:	f382 8810 	msr	PRIMASK, r2
 8006014:	f000 f9e4 	bl	80063e0 <_tx_thread_system_preempt_check>
 8006018:	4628      	mov	r0, r5
 800601a:	e8bd 81f0 	ldmia.w	sp!, {r4, r5, r6, r7, r8, pc}
 800601e:	3d01      	subs	r5, #1
 8006020:	f3ef 8210 	mrs	r2, PRIMASK
 8006024:	b672      	cpsid	i
 8006026:	6823      	ldr	r3, [r4, #0]
 8006028:	f8d0 8070 	ldr.w	r8, [r0, #112]	@ 0x70
 800602c:	3301      	adds	r3, #1
 800602e:	6686      	str	r6, [r0, #104]	@ 0x68
 8006030:	f8c0 7084 	str.w	r7, [r0, #132]	@ 0x84
 8006034:	6023      	str	r3, [r4, #0]
 8006036:	f382 8810 	msr	PRIMASK, r2
 800603a:	f000 f9ef 	bl	800641c <_tx_thread_system_resume>
 800603e:	4640      	mov	r0, r8
 8006040:	e7df      	b.n	8006002 <_tx_semaphore_delete+0x46>
 8006042:	bf00      	nop
 8006044:	20003084 	.word	0x20003084
 8006048:	20003088 	.word	0x20003088
 800604c:	20003094 	.word	0x20003094

08006050 <_tx_semaphore_get>:
 8006050:	b5f8      	push	{r3, r4, r5, r6, r7, lr}
 8006052:	f3ef 8310 	mrs	r3, PRIMASK
 8006056:	b672      	cpsid	i
 8006058:	6882      	ldr	r2, [r0, #8]
 800605a:	b12a      	cbz	r2, 8006068 <_tx_semaphore_get+0x18>
 800605c:	3a01      	subs	r2, #1
 800605e:	6082      	str	r2, [r0, #8]
 8006060:	f383 8810 	msr	PRIMASK, r3
 8006064:	2000      	movs	r0, #0
 8006066:	bdf8      	pop	{r3, r4, r5, r6, r7, pc}
 8006068:	b111      	cbz	r1, 8006070 <_tx_semaphore_get+0x20>
 800606a:	4d17      	ldr	r5, [pc, #92]	@ (80060c8 <_tx_semaphore_get+0x78>)
 800606c:	682a      	ldr	r2, [r5, #0]
 800606e:	b11a      	cbz	r2, 8006078 <_tx_semaphore_get+0x28>
 8006070:	f383 8810 	msr	PRIMASK, r3
 8006074:	200d      	movs	r0, #13
 8006076:	e7f6      	b.n	8006066 <_tx_semaphore_get+0x16>
 8006078:	4a14      	ldr	r2, [pc, #80]	@ (80060cc <_tx_semaphore_get+0x7c>)
 800607a:	6814      	ldr	r4, [r2, #0]
 800607c:	4a14      	ldr	r2, [pc, #80]	@ (80060d0 <_tx_semaphore_get+0x80>)
 800607e:	e9c4 201a 	strd	r2, r0, [r4, #104]	@ 0x68
 8006082:	f8d4 20ac 	ldr.w	r2, [r4, #172]	@ 0xac
 8006086:	3201      	adds	r2, #1
 8006088:	f8c4 20ac 	str.w	r2, [r4, #172]	@ 0xac
 800608c:	6902      	ldr	r2, [r0, #16]
 800608e:	b9a2      	cbnz	r2, 80060ba <_tx_semaphore_get+0x6a>
 8006090:	60c4      	str	r4, [r0, #12]
 8006092:	e9c4 441c 	strd	r4, r4, [r4, #112]	@ 0x70
 8006096:	3201      	adds	r2, #1
 8006098:	6102      	str	r2, [r0, #16]
 800609a:	2206      	movs	r2, #6
 800609c:	6322      	str	r2, [r4, #48]	@ 0x30
 800609e:	2201      	movs	r2, #1
 80060a0:	63a2      	str	r2, [r4, #56]	@ 0x38
 80060a2:	682a      	ldr	r2, [r5, #0]
 80060a4:	64e1      	str	r1, [r4, #76]	@ 0x4c
 80060a6:	3201      	adds	r2, #1
 80060a8:	602a      	str	r2, [r5, #0]
 80060aa:	f383 8810 	msr	PRIMASK, r3
 80060ae:	4620      	mov	r0, r4
 80060b0:	f000 fa28 	bl	8006504 <_tx_thread_system_suspend>
 80060b4:	f8d4 0084 	ldr.w	r0, [r4, #132]	@ 0x84
 80060b8:	e7d5      	b.n	8006066 <_tx_semaphore_get+0x16>
 80060ba:	68c6      	ldr	r6, [r0, #12]
 80060bc:	6f77      	ldr	r7, [r6, #116]	@ 0x74
 80060be:	6726      	str	r6, [r4, #112]	@ 0x70
 80060c0:	6767      	str	r7, [r4, #116]	@ 0x74
 80060c2:	673c      	str	r4, [r7, #112]	@ 0x70
 80060c4:	6774      	str	r4, [r6, #116]	@ 0x74
 80060c6:	e7e6      	b.n	8006096 <_tx_semaphore_get+0x46>
 80060c8:	20003094 	.word	0x20003094
 80060cc:	2000312c 	.word	0x2000312c
 80060d0:	08005ef1 	.word	0x08005ef1

080060d4 <_tx_semaphore_put>:
 80060d4:	b538      	push	{r3, r4, r5, lr}
 80060d6:	4603      	mov	r3, r0
 80060d8:	f3ef 8410 	mrs	r4, PRIMASK
 80060dc:	b672      	cpsid	i
 80060de:	6902      	ldr	r2, [r0, #16]
 80060e0:	b932      	cbnz	r2, 80060f0 <_tx_semaphore_put+0x1c>
 80060e2:	6882      	ldr	r2, [r0, #8]
 80060e4:	3201      	adds	r2, #1
 80060e6:	6082      	str	r2, [r0, #8]
 80060e8:	f384 8810 	msr	PRIMASK, r4
 80060ec:	2000      	movs	r0, #0
 80060ee:	bd38      	pop	{r3, r4, r5, pc}
 80060f0:	68c0      	ldr	r0, [r0, #12]
 80060f2:	3a01      	subs	r2, #1
 80060f4:	bf1d      	ittte	ne
 80060f6:	6f01      	ldrne	r1, [r0, #112]	@ 0x70
 80060f8:	6f45      	ldrne	r5, [r0, #116]	@ 0x74
 80060fa:	60d9      	strne	r1, [r3, #12]
 80060fc:	60da      	streq	r2, [r3, #12]
 80060fe:	bf1c      	itt	ne
 8006100:	674d      	strne	r5, [r1, #116]	@ 0x74
 8006102:	6729      	strne	r1, [r5, #112]	@ 0x70
 8006104:	611a      	str	r2, [r3, #16]
 8006106:	2300      	movs	r3, #0
 8006108:	4a05      	ldr	r2, [pc, #20]	@ (8006120 <_tx_semaphore_put+0x4c>)
 800610a:	6683      	str	r3, [r0, #104]	@ 0x68
 800610c:	f8c0 3084 	str.w	r3, [r0, #132]	@ 0x84
 8006110:	6813      	ldr	r3, [r2, #0]
 8006112:	3301      	adds	r3, #1
 8006114:	6013      	str	r3, [r2, #0]
 8006116:	f384 8810 	msr	PRIMASK, r4
 800611a:	f000 f97f 	bl	800641c <_tx_thread_system_resume>
 800611e:	e7e5      	b.n	80060ec <_tx_semaphore_put+0x18>
 8006120:	20003094 	.word	0x20003094

08006124 <_tx_thread_create>:
 8006124:	e92d 4ff8 	stmdb	sp!, {r3, r4, r5, r6, r7, r8, r9, sl, fp, lr}
 8006128:	4604      	mov	r4, r0
 800612a:	e9dd 670a 	ldrd	r6, r7, [sp, #40]	@ 0x28
 800612e:	468a      	mov	sl, r1
 8006130:	4691      	mov	r9, r2
 8006132:	21ef      	movs	r1, #239	@ 0xef
 8006134:	463a      	mov	r2, r7
 8006136:	4630      	mov	r0, r6
 8006138:	9d0c      	ldr	r5, [sp, #48]	@ 0x30
 800613a:	4698      	mov	r8, r3
 800613c:	f8dd b038 	ldr.w	fp, [sp, #56]	@ 0x38
 8006140:	f002 ffba 	bl	80090b8 <memset>
 8006144:	22b0      	movs	r2, #176	@ 0xb0
 8006146:	2100      	movs	r1, #0
 8006148:	4620      	mov	r0, r4
 800614a:	f002 ffb5 	bl	80090b8 <memset>
 800614e:	2320      	movs	r3, #32
 8006150:	f8c4 309c 	str.w	r3, [r4, #156]	@ 0x9c
 8006154:	9b0d      	ldr	r3, [sp, #52]	@ 0x34
 8006156:	6167      	str	r7, [r4, #20]
 8006158:	429d      	cmp	r5, r3
 800615a:	f04f 0303 	mov.w	r3, #3
 800615e:	f107 37ff 	add.w	r7, r7, #4294967295
 8006162:	6323      	str	r3, [r4, #48]	@ 0x30
 8006164:	4b2f      	ldr	r3, [pc, #188]	@ (8006224 <_tx_thread_create+0x100>)
 8006166:	60e6      	str	r6, [r4, #12]
 8006168:	443e      	add	r6, r7
 800616a:	4620      	mov	r0, r4
 800616c:	e9c4 9811 	strd	r9, r8, [r4, #68]	@ 0x44
 8006170:	e9c4 bb06 	strd	fp, fp, [r4, #24]
 8006174:	e9c4 3415 	strd	r3, r4, [r4, #84]	@ 0x54
 8006178:	492b      	ldr	r1, [pc, #172]	@ (8006228 <_tx_thread_create+0x104>)
 800617a:	f8c4 a028 	str.w	sl, [r4, #40]	@ 0x28
 800617e:	62e5      	str	r5, [r4, #44]	@ 0x2c
 8006180:	f8c4 5094 	str.w	r5, [r4, #148]	@ 0x94
 8006184:	6126      	str	r6, [r4, #16]
 8006186:	bf04      	itt	eq
 8006188:	63e5      	streq	r5, [r4, #60]	@ 0x3c
 800618a:	f8c4 5098 	streq.w	r5, [r4, #152]	@ 0x98
 800618e:	f7fa f915 	bl	80003bc <_tx_thread_stack_build>
 8006192:	f3ef 8110 	mrs	r1, PRIMASK
 8006196:	b672      	cpsid	i
 8006198:	4b24      	ldr	r3, [pc, #144]	@ (800622c <_tx_thread_create+0x108>)
 800619a:	4825      	ldr	r0, [pc, #148]	@ (8006230 <_tx_thread_create+0x10c>)
 800619c:	6023      	str	r3, [r4, #0]
 800619e:	6803      	ldr	r3, [r0, #0]
 80061a0:	4a24      	ldr	r2, [pc, #144]	@ (8006234 <_tx_thread_create+0x110>)
 80061a2:	bb1b      	cbnz	r3, 80061ec <_tx_thread_create+0xc8>
 80061a4:	e9c4 4422 	strd	r4, r4, [r4, #136]	@ 0x88
 80061a8:	6014      	str	r4, [r2, #0]
 80061aa:	3301      	adds	r3, #1
 80061ac:	6003      	str	r3, [r0, #0]
 80061ae:	4b22      	ldr	r3, [pc, #136]	@ (8006238 <_tx_thread_create+0x114>)
 80061b0:	681a      	ldr	r2, [r3, #0]
 80061b2:	3201      	adds	r2, #1
 80061b4:	601a      	str	r2, [r3, #0]
 80061b6:	9a0f      	ldr	r2, [sp, #60]	@ 0x3c
 80061b8:	2a01      	cmp	r2, #1
 80061ba:	d126      	bne.n	800620a <_tx_thread_create+0xe6>
 80061bc:	f3ef 8205 	mrs	r2, IPSR
 80061c0:	4b1e      	ldr	r3, [pc, #120]	@ (800623c <_tx_thread_create+0x118>)
 80061c2:	681b      	ldr	r3, [r3, #0]
 80061c4:	4313      	orrs	r3, r2
 80061c6:	f1b3 3ff0 	cmp.w	r3, #4042322160	@ 0xf0f0f0f0
 80061ca:	d319      	bcc.n	8006200 <_tx_thread_create+0xdc>
 80061cc:	4b1c      	ldr	r3, [pc, #112]	@ (8006240 <_tx_thread_create+0x11c>)
 80061ce:	681d      	ldr	r5, [r3, #0]
 80061d0:	b1cd      	cbz	r5, 8006206 <_tx_thread_create+0xe2>
 80061d2:	6aeb      	ldr	r3, [r5, #44]	@ 0x2c
 80061d4:	6bee      	ldr	r6, [r5, #60]	@ 0x3c
 80061d6:	63eb      	str	r3, [r5, #60]	@ 0x3c
 80061d8:	f381 8810 	msr	PRIMASK, r1
 80061dc:	4620      	mov	r0, r4
 80061de:	f000 f91d 	bl	800641c <_tx_thread_system_resume>
 80061e2:	b105      	cbz	r5, 80061e6 <_tx_thread_create+0xc2>
 80061e4:	63ee      	str	r6, [r5, #60]	@ 0x3c
 80061e6:	2000      	movs	r0, #0
 80061e8:	e8bd 8ff8 	ldmia.w	sp!, {r3, r4, r5, r6, r7, r8, r9, sl, fp, pc}
 80061ec:	6812      	ldr	r2, [r2, #0]
 80061ee:	f8d2 508c 	ldr.w	r5, [r2, #140]	@ 0x8c
 80061f2:	f8c2 408c 	str.w	r4, [r2, #140]	@ 0x8c
 80061f6:	f8c5 4088 	str.w	r4, [r5, #136]	@ 0x88
 80061fa:	e9c4 2522 	strd	r2, r5, [r4, #136]	@ 0x88
 80061fe:	e7d4      	b.n	80061aa <_tx_thread_create+0x86>
 8006200:	2600      	movs	r6, #0
 8006202:	4635      	mov	r5, r6
 8006204:	e7e8      	b.n	80061d8 <_tx_thread_create+0xb4>
 8006206:	462e      	mov	r6, r5
 8006208:	e7e6      	b.n	80061d8 <_tx_thread_create+0xb4>
 800620a:	f381 8810 	msr	PRIMASK, r1
 800620e:	f3ef 8110 	mrs	r1, PRIMASK
 8006212:	b672      	cpsid	i
 8006214:	681a      	ldr	r2, [r3, #0]
 8006216:	3a01      	subs	r2, #1
 8006218:	601a      	str	r2, [r3, #0]
 800621a:	f381 8810 	msr	PRIMASK, r1
 800621e:	f000 f8df 	bl	80063e0 <_tx_thread_system_preempt_check>
 8006222:	e7e0      	b.n	80061e6 <_tx_thread_create+0xc2>
 8006224:	08006651 	.word	0x08006651
 8006228:	08006321 	.word	0x08006321
 800622c:	54485244 	.word	0x54485244
 8006230:	20003120 	.word	0x20003120
 8006234:	20003124 	.word	0x20003124
 8006238:	20003094 	.word	0x20003094
 800623c:	2000000c 	.word	0x2000000c
 8006240:	20003128 	.word	0x20003128

08006244 <_tx_thread_identify>:
 8006244:	f3ef 8310 	mrs	r3, PRIMASK
 8006248:	b672      	cpsid	i
 800624a:	4a02      	ldr	r2, [pc, #8]	@ (8006254 <_tx_thread_identify+0x10>)
 800624c:	6810      	ldr	r0, [r2, #0]
 800624e:	f383 8810 	msr	PRIMASK, r3
 8006252:	4770      	bx	lr
 8006254:	2000312c 	.word	0x2000312c

08006258 <_tx_thread_info_get>:
 8006258:	e92d 41f0 	stmdb	sp!, {r4, r5, r6, r7, r8, lr}
 800625c:	f8dd c028 	ldr.w	ip, [sp, #40]	@ 0x28
 8006260:	e9dd e706 	ldrd	lr, r7, [sp, #24]
 8006264:	e9dd 6508 	ldrd	r6, r5, [sp, #32]
 8006268:	f3ef 8810 	mrs	r8, PRIMASK
 800626c:	b672      	cpsid	i
 800626e:	b109      	cbz	r1, 8006274 <_tx_thread_info_get+0x1c>
 8006270:	6a84      	ldr	r4, [r0, #40]	@ 0x28
 8006272:	600c      	str	r4, [r1, #0]
 8006274:	b10a      	cbz	r2, 800627a <_tx_thread_info_get+0x22>
 8006276:	6b01      	ldr	r1, [r0, #48]	@ 0x30
 8006278:	6011      	str	r1, [r2, #0]
 800627a:	b10b      	cbz	r3, 8006280 <_tx_thread_info_get+0x28>
 800627c:	6842      	ldr	r2, [r0, #4]
 800627e:	601a      	str	r2, [r3, #0]
 8006280:	f1be 0f00 	cmp.w	lr, #0
 8006284:	d003      	beq.n	800628e <_tx_thread_info_get+0x36>
 8006286:	f8d0 3094 	ldr.w	r3, [r0, #148]	@ 0x94
 800628a:	f8ce 3000 	str.w	r3, [lr]
 800628e:	b117      	cbz	r7, 8006296 <_tx_thread_info_get+0x3e>
 8006290:	f8d0 3098 	ldr.w	r3, [r0, #152]	@ 0x98
 8006294:	603b      	str	r3, [r7, #0]
 8006296:	b10e      	cbz	r6, 800629c <_tx_thread_info_get+0x44>
 8006298:	6983      	ldr	r3, [r0, #24]
 800629a:	6033      	str	r3, [r6, #0]
 800629c:	b115      	cbz	r5, 80062a4 <_tx_thread_info_get+0x4c>
 800629e:	f8d0 3088 	ldr.w	r3, [r0, #136]	@ 0x88
 80062a2:	602b      	str	r3, [r5, #0]
 80062a4:	f1bc 0f00 	cmp.w	ip, #0
 80062a8:	d002      	beq.n	80062b0 <_tx_thread_info_get+0x58>
 80062aa:	6f03      	ldr	r3, [r0, #112]	@ 0x70
 80062ac:	f8cc 3000 	str.w	r3, [ip]
 80062b0:	f388 8810 	msr	PRIMASK, r8
 80062b4:	2000      	movs	r0, #0
 80062b6:	e8bd 81f0 	ldmia.w	sp!, {r4, r5, r6, r7, r8, pc}
	...

080062bc <_tx_thread_initialize>:
 80062bc:	b510      	push	{r4, lr}
 80062be:	2400      	movs	r4, #0
 80062c0:	2220      	movs	r2, #32
 80062c2:	4b0d      	ldr	r3, [pc, #52]	@ (80062f8 <_tx_thread_initialize+0x3c>)
 80062c4:	4621      	mov	r1, r4
 80062c6:	601c      	str	r4, [r3, #0]
 80062c8:	4b0c      	ldr	r3, [pc, #48]	@ (80062fc <_tx_thread_initialize+0x40>)
 80062ca:	480d      	ldr	r0, [pc, #52]	@ (8006300 <_tx_thread_initialize+0x44>)
 80062cc:	601c      	str	r4, [r3, #0]
 80062ce:	4b0d      	ldr	r3, [pc, #52]	@ (8006304 <_tx_thread_initialize+0x48>)
 80062d0:	601c      	str	r4, [r3, #0]
 80062d2:	4b0d      	ldr	r3, [pc, #52]	@ (8006308 <_tx_thread_initialize+0x4c>)
 80062d4:	601a      	str	r2, [r3, #0]
 80062d6:	2280      	movs	r2, #128	@ 0x80
 80062d8:	f002 feee 	bl	80090b8 <memset>
 80062dc:	4b0b      	ldr	r3, [pc, #44]	@ (800630c <_tx_thread_initialize+0x50>)
 80062de:	4a0c      	ldr	r2, [pc, #48]	@ (8006310 <_tx_thread_initialize+0x54>)
 80062e0:	601c      	str	r4, [r3, #0]
 80062e2:	4b0c      	ldr	r3, [pc, #48]	@ (8006314 <_tx_thread_initialize+0x58>)
 80062e4:	601c      	str	r4, [r3, #0]
 80062e6:	4b0c      	ldr	r3, [pc, #48]	@ (8006318 <_tx_thread_initialize+0x5c>)
 80062e8:	601c      	str	r4, [r3, #0]
 80062ea:	4b0c      	ldr	r3, [pc, #48]	@ (800631c <_tx_thread_initialize+0x60>)
 80062ec:	601c      	str	r4, [r3, #0]
 80062ee:	6813      	ldr	r3, [r2, #0]
 80062f0:	f043 7385 	orr.w	r3, r3, #17432576	@ 0x10a0000
 80062f4:	6013      	str	r3, [r2, #0]
 80062f6:	bd10      	pop	{r4, pc}
 80062f8:	2000312c 	.word	0x2000312c
 80062fc:	20003128 	.word	0x20003128
 8006300:	20003098 	.word	0x20003098
 8006304:	2000311c 	.word	0x2000311c
 8006308:	20003118 	.word	0x20003118
 800630c:	20003124 	.word	0x20003124
 8006310:	2000308c 	.word	0x2000308c
 8006314:	20003120 	.word	0x20003120
 8006318:	20003094 	.word	0x20003094
 800631c:	20003090 	.word	0x20003090

08006320 <_tx_thread_shell_entry>:
 8006320:	4b11      	ldr	r3, [pc, #68]	@ (8006368 <_tx_thread_shell_entry+0x48>)
 8006322:	b510      	push	{r4, lr}
 8006324:	681c      	ldr	r4, [r3, #0]
 8006326:	e9d4 3011 	ldrd	r3, r0, [r4, #68]	@ 0x44
 800632a:	4798      	blx	r3
 800632c:	4b0f      	ldr	r3, [pc, #60]	@ (800636c <_tx_thread_shell_entry+0x4c>)
 800632e:	681b      	ldr	r3, [r3, #0]
 8006330:	b10b      	cbz	r3, 8006336 <_tx_thread_shell_entry+0x16>
 8006332:	4620      	mov	r0, r4
 8006334:	4798      	blx	r3
 8006336:	f3ef 8110 	mrs	r1, PRIMASK
 800633a:	b672      	cpsid	i
 800633c:	2301      	movs	r3, #1
 800633e:	6323      	str	r3, [r4, #48]	@ 0x30
 8006340:	63a3      	str	r3, [r4, #56]	@ 0x38
 8006342:	2300      	movs	r3, #0
 8006344:	4a0a      	ldr	r2, [pc, #40]	@ (8006370 <_tx_thread_shell_entry+0x50>)
 8006346:	64e3      	str	r3, [r4, #76]	@ 0x4c
 8006348:	6813      	ldr	r3, [r2, #0]
 800634a:	3301      	adds	r3, #1
 800634c:	6013      	str	r3, [r2, #0]
 800634e:	f381 8810 	msr	PRIMASK, r1
 8006352:	f3ef 8314 	mrs	r3, CONTROL
 8006356:	f023 0304 	bic.w	r3, r3, #4
 800635a:	f383 8814 	msr	CONTROL, r3
 800635e:	4620      	mov	r0, r4
 8006360:	e8bd 4010 	ldmia.w	sp!, {r4, lr}
 8006364:	f000 b8ce 	b.w	8006504 <_tx_thread_system_suspend>
 8006368:	2000312c 	.word	0x2000312c
 800636c:	20003090 	.word	0x20003090
 8006370:	20003094 	.word	0x20003094

08006374 <_tx_thread_sleep>:
 8006374:	b538      	push	{r3, r4, r5, lr}
 8006376:	f3ef 8310 	mrs	r3, PRIMASK
 800637a:	b672      	cpsid	i
 800637c:	4a14      	ldr	r2, [pc, #80]	@ (80063d0 <_tx_thread_sleep+0x5c>)
 800637e:	6814      	ldr	r4, [r2, #0]
 8006380:	b91c      	cbnz	r4, 800638a <_tx_thread_sleep+0x16>
 8006382:	f383 8810 	msr	PRIMASK, r3
 8006386:	2013      	movs	r0, #19
 8006388:	bd38      	pop	{r3, r4, r5, pc}
 800638a:	f3ef 8105 	mrs	r1, IPSR
 800638e:	4a11      	ldr	r2, [pc, #68]	@ (80063d4 <_tx_thread_sleep+0x60>)
 8006390:	6812      	ldr	r2, [r2, #0]
 8006392:	430a      	orrs	r2, r1
 8006394:	d1f5      	bne.n	8006382 <_tx_thread_sleep+0xe>
 8006396:	4a10      	ldr	r2, [pc, #64]	@ (80063d8 <_tx_thread_sleep+0x64>)
 8006398:	4294      	cmp	r4, r2
 800639a:	d0f2      	beq.n	8006382 <_tx_thread_sleep+0xe>
 800639c:	b910      	cbnz	r0, 80063a4 <_tx_thread_sleep+0x30>
 800639e:	f383 8810 	msr	PRIMASK, r3
 80063a2:	e7f1      	b.n	8006388 <_tx_thread_sleep+0x14>
 80063a4:	4a0d      	ldr	r2, [pc, #52]	@ (80063dc <_tx_thread_sleep+0x68>)
 80063a6:	6811      	ldr	r1, [r2, #0]
 80063a8:	2900      	cmp	r1, #0
 80063aa:	d1ea      	bne.n	8006382 <_tx_thread_sleep+0xe>
 80063ac:	2504      	movs	r5, #4
 80063ae:	6325      	str	r5, [r4, #48]	@ 0x30
 80063b0:	2501      	movs	r5, #1
 80063b2:	f8c4 1084 	str.w	r1, [r4, #132]	@ 0x84
 80063b6:	6811      	ldr	r1, [r2, #0]
 80063b8:	63a5      	str	r5, [r4, #56]	@ 0x38
 80063ba:	4429      	add	r1, r5
 80063bc:	64e0      	str	r0, [r4, #76]	@ 0x4c
 80063be:	6011      	str	r1, [r2, #0]
 80063c0:	f383 8810 	msr	PRIMASK, r3
 80063c4:	4620      	mov	r0, r4
 80063c6:	f000 f89d 	bl	8006504 <_tx_thread_system_suspend>
 80063ca:	f8d4 0084 	ldr.w	r0, [r4, #132]	@ 0x84
 80063ce:	e7db      	b.n	8006388 <_tx_thread_sleep+0x14>
 80063d0:	2000312c 	.word	0x2000312c
 80063d4:	2000000c 	.word	0x2000000c
 80063d8:	20003944 	.word	0x20003944
 80063dc:	20003094 	.word	0x20003094

080063e0 <_tx_thread_system_preempt_check>:
 80063e0:	4b0b      	ldr	r3, [pc, #44]	@ (8006410 <_tx_thread_system_preempt_check+0x30>)
 80063e2:	681b      	ldr	r3, [r3, #0]
 80063e4:	b99b      	cbnz	r3, 800640e <_tx_thread_system_preempt_check+0x2e>
 80063e6:	4b0b      	ldr	r3, [pc, #44]	@ (8006414 <_tx_thread_system_preempt_check+0x34>)
 80063e8:	681a      	ldr	r2, [r3, #0]
 80063ea:	4b0b      	ldr	r3, [pc, #44]	@ (8006418 <_tx_thread_system_preempt_check+0x38>)
 80063ec:	681b      	ldr	r3, [r3, #0]
 80063ee:	429a      	cmp	r2, r3
 80063f0:	d00d      	beq.n	800640e <_tx_thread_system_preempt_check+0x2e>
 80063f2:	f04f 23e0 	mov.w	r3, #3758153728	@ 0xe000e000
 80063f6:	f04f 5280 	mov.w	r2, #268435456	@ 0x10000000
 80063fa:	f8c3 2d04 	str.w	r2, [r3, #3332]	@ 0xd04
 80063fe:	f3ef 8305 	mrs	r3, IPSR
 8006402:	b923      	cbnz	r3, 800640e <_tx_thread_system_preempt_check+0x2e>
 8006404:	f3ef 8310 	mrs	r3, PRIMASK
 8006408:	b662      	cpsie	i
 800640a:	f383 8810 	msr	PRIMASK, r3
 800640e:	4770      	bx	lr
 8006410:	20003094 	.word	0x20003094
 8006414:	2000312c 	.word	0x2000312c
 8006418:	20003128 	.word	0x20003128

0800641c <_tx_thread_system_resume>:
 800641c:	b5f8      	push	{r3, r4, r5, r6, r7, lr}
 800641e:	4604      	mov	r4, r0
 8006420:	f3ef 8510 	mrs	r5, PRIMASK
 8006424:	b672      	cpsid	i
 8006426:	6e43      	ldr	r3, [r0, #100]	@ 0x64
 8006428:	2b00      	cmp	r3, #0
 800642a:	d030      	beq.n	800648e <_tx_thread_system_resume+0x72>
 800642c:	304c      	adds	r0, #76	@ 0x4c
 800642e:	f000 f9d3 	bl	80067d8 <_tx_timer_system_deactivate>
 8006432:	4a2e      	ldr	r2, [pc, #184]	@ (80064ec <_tx_thread_system_resume+0xd0>)
 8006434:	6ba0      	ldr	r0, [r4, #56]	@ 0x38
 8006436:	6813      	ldr	r3, [r2, #0]
 8006438:	492d      	ldr	r1, [pc, #180]	@ (80064f0 <_tx_thread_system_resume+0xd4>)
 800643a:	3b01      	subs	r3, #1
 800643c:	6013      	str	r3, [r2, #0]
 800643e:	6b23      	ldr	r3, [r4, #48]	@ 0x30
 8006440:	2800      	cmp	r0, #0
 8006442:	d14a      	bne.n	80064da <_tx_thread_system_resume+0xbe>
 8006444:	b1db      	cbz	r3, 800647e <_tx_thread_system_resume+0x62>
 8006446:	6b63      	ldr	r3, [r4, #52]	@ 0x34
 8006448:	2b00      	cmp	r3, #0
 800644a:	d141      	bne.n	80064d0 <_tx_thread_system_resume+0xb4>
 800644c:	4e29      	ldr	r6, [pc, #164]	@ (80064f4 <_tx_thread_system_resume+0xd8>)
 800644e:	6323      	str	r3, [r4, #48]	@ 0x30
 8006450:	6ae3      	ldr	r3, [r4, #44]	@ 0x2c
 8006452:	f856 0023 	ldr.w	r0, [r6, r3, lsl #2]
 8006456:	2800      	cmp	r0, #0
 8006458:	d134      	bne.n	80064c4 <_tx_thread_system_resume+0xa8>
 800645a:	f846 4023 	str.w	r4, [r6, r3, lsl #2]
 800645e:	2601      	movs	r6, #1
 8006460:	4f25      	ldr	r7, [pc, #148]	@ (80064f8 <_tx_thread_system_resume+0xdc>)
 8006462:	409e      	lsls	r6, r3
 8006464:	6838      	ldr	r0, [r7, #0]
 8006466:	e9c4 4408 	strd	r4, r4, [r4, #32]
 800646a:	4330      	orrs	r0, r6
 800646c:	6038      	str	r0, [r7, #0]
 800646e:	4823      	ldr	r0, [pc, #140]	@ (80064fc <_tx_thread_system_resume+0xe0>)
 8006470:	6806      	ldr	r6, [r0, #0]
 8006472:	429e      	cmp	r6, r3
 8006474:	d903      	bls.n	800647e <_tx_thread_system_resume+0x62>
 8006476:	6003      	str	r3, [r0, #0]
 8006478:	6808      	ldr	r0, [r1, #0]
 800647a:	b950      	cbnz	r0, 8006492 <_tx_thread_system_resume+0x76>
 800647c:	600c      	str	r4, [r1, #0]
 800647e:	4b20      	ldr	r3, [pc, #128]	@ (8006500 <_tx_thread_system_resume+0xe4>)
 8006480:	681b      	ldr	r3, [r3, #0]
 8006482:	f385 8810 	msr	PRIMASK, r5
 8006486:	6809      	ldr	r1, [r1, #0]
 8006488:	4299      	cmp	r1, r3
 800648a:	d108      	bne.n	800649e <_tx_thread_system_resume+0x82>
 800648c:	bdf8      	pop	{r3, r4, r5, r6, r7, pc}
 800648e:	64c3      	str	r3, [r0, #76]	@ 0x4c
 8006490:	e7cf      	b.n	8006432 <_tx_thread_system_resume+0x16>
 8006492:	6bc0      	ldr	r0, [r0, #60]	@ 0x3c
 8006494:	4298      	cmp	r0, r3
 8006496:	d9f2      	bls.n	800647e <_tx_thread_system_resume+0x62>
 8006498:	600c      	str	r4, [r1, #0]
 800649a:	f385 8810 	msr	PRIMASK, r5
 800649e:	6813      	ldr	r3, [r2, #0]
 80064a0:	2b00      	cmp	r3, #0
 80064a2:	d1f3      	bne.n	800648c <_tx_thread_system_resume+0x70>
 80064a4:	f04f 23e0 	mov.w	r3, #3758153728	@ 0xe000e000
 80064a8:	f04f 5280 	mov.w	r2, #268435456	@ 0x10000000
 80064ac:	f8c3 2d04 	str.w	r2, [r3, #3332]	@ 0xd04
 80064b0:	f3ef 8305 	mrs	r3, IPSR
 80064b4:	2b00      	cmp	r3, #0
 80064b6:	d1e9      	bne.n	800648c <_tx_thread_system_resume+0x70>
 80064b8:	f3ef 8310 	mrs	r3, PRIMASK
 80064bc:	b662      	cpsie	i
 80064be:	f383 8810 	msr	PRIMASK, r3
 80064c2:	e7e3      	b.n	800648c <_tx_thread_system_resume+0x70>
 80064c4:	6a43      	ldr	r3, [r0, #36]	@ 0x24
 80064c6:	621c      	str	r4, [r3, #32]
 80064c8:	6244      	str	r4, [r0, #36]	@ 0x24
 80064ca:	e9c4 0308 	strd	r0, r3, [r4, #32]
 80064ce:	e7d6      	b.n	800647e <_tx_thread_system_resume+0x62>
 80064d0:	2300      	movs	r3, #0
 80064d2:	6363      	str	r3, [r4, #52]	@ 0x34
 80064d4:	2303      	movs	r3, #3
 80064d6:	6323      	str	r3, [r4, #48]	@ 0x30
 80064d8:	e7d1      	b.n	800647e <_tx_thread_system_resume+0x62>
 80064da:	3b01      	subs	r3, #1
 80064dc:	2b01      	cmp	r3, #1
 80064de:	d9ce      	bls.n	800647e <_tx_thread_system_resume+0x62>
 80064e0:	6b63      	ldr	r3, [r4, #52]	@ 0x34
 80064e2:	2b00      	cmp	r3, #0
 80064e4:	d1f4      	bne.n	80064d0 <_tx_thread_system_resume+0xb4>
 80064e6:	63a3      	str	r3, [r4, #56]	@ 0x38
 80064e8:	e7f5      	b.n	80064d6 <_tx_thread_system_resume+0xba>
 80064ea:	bf00      	nop
 80064ec:	20003094 	.word	0x20003094
 80064f0:	20003128 	.word	0x20003128
 80064f4:	20003098 	.word	0x20003098
 80064f8:	2000311c 	.word	0x2000311c
 80064fc:	20003118 	.word	0x20003118
 8006500:	2000312c 	.word	0x2000312c

08006504 <_tx_thread_system_suspend>:
 8006504:	b5f8      	push	{r3, r4, r5, r6, r7, lr}
 8006506:	4b34      	ldr	r3, [pc, #208]	@ (80065d8 <_tx_thread_system_suspend+0xd4>)
 8006508:	4604      	mov	r4, r0
 800650a:	681d      	ldr	r5, [r3, #0]
 800650c:	f3ef 8610 	mrs	r6, PRIMASK
 8006510:	b672      	cpsid	i
 8006512:	4285      	cmp	r5, r0
 8006514:	d10a      	bne.n	800652c <_tx_thread_system_suspend+0x28>
 8006516:	6ceb      	ldr	r3, [r5, #76]	@ 0x4c
 8006518:	3b01      	subs	r3, #1
 800651a:	3303      	adds	r3, #3
 800651c:	d803      	bhi.n	8006526 <_tx_thread_system_suspend+0x22>
 800651e:	f105 004c 	add.w	r0, r5, #76	@ 0x4c
 8006522:	f000 f92f 	bl	8006784 <_tx_timer_system_activate>
 8006526:	69e2      	ldr	r2, [r4, #28]
 8006528:	4b2c      	ldr	r3, [pc, #176]	@ (80065dc <_tx_thread_system_suspend+0xd8>)
 800652a:	601a      	str	r2, [r3, #0]
 800652c:	4a2c      	ldr	r2, [pc, #176]	@ (80065e0 <_tx_thread_system_suspend+0xdc>)
 800652e:	492d      	ldr	r1, [pc, #180]	@ (80065e4 <_tx_thread_system_suspend+0xe0>)
 8006530:	6813      	ldr	r3, [r2, #0]
 8006532:	3b01      	subs	r3, #1
 8006534:	6013      	str	r3, [r2, #0]
 8006536:	6ba3      	ldr	r3, [r4, #56]	@ 0x38
 8006538:	2b01      	cmp	r3, #1
 800653a:	d146      	bne.n	80065ca <_tx_thread_system_suspend+0xc6>
 800653c:	f04f 0e00 	mov.w	lr, #0
 8006540:	f8d4 c020 	ldr.w	ip, [r4, #32]
 8006544:	6ae7      	ldr	r7, [r4, #44]	@ 0x2c
 8006546:	4564      	cmp	r4, ip
 8006548:	4827      	ldr	r0, [pc, #156]	@ (80065e8 <_tx_thread_system_suspend+0xe4>)
 800654a:	f8c4 e038 	str.w	lr, [r4, #56]	@ 0x38
 800654e:	d012      	beq.n	8006576 <_tx_thread_system_suspend+0x72>
 8006550:	6a63      	ldr	r3, [r4, #36]	@ 0x24
 8006552:	f8cc 3024 	str.w	r3, [ip, #36]	@ 0x24
 8006556:	f8c3 c020 	str.w	ip, [r3, #32]
 800655a:	f850 3027 	ldr.w	r3, [r0, r7, lsl #2]
 800655e:	42a3      	cmp	r3, r4
 8006560:	d101      	bne.n	8006566 <_tx_thread_system_suspend+0x62>
 8006562:	f840 c027 	str.w	ip, [r0, r7, lsl #2]
 8006566:	680b      	ldr	r3, [r1, #0]
 8006568:	42a3      	cmp	r3, r4
 800656a:	d12e      	bne.n	80065ca <_tx_thread_system_suspend+0xc6>
 800656c:	4b1f      	ldr	r3, [pc, #124]	@ (80065ec <_tx_thread_system_suspend+0xe8>)
 800656e:	681b      	ldr	r3, [r3, #0]
 8006570:	f850 3023 	ldr.w	r3, [r0, r3, lsl #2]
 8006574:	e00f      	b.n	8006596 <_tx_thread_system_suspend+0x92>
 8006576:	f8df c078 	ldr.w	ip, [pc, #120]	@ 80065f0 <_tx_thread_system_suspend+0xec>
 800657a:	f840 e027 	str.w	lr, [r0, r7, lsl #2]
 800657e:	fa03 f707 	lsl.w	r7, r3, r7
 8006582:	f8dc 3000 	ldr.w	r3, [ip]
 8006586:	ea23 0307 	bic.w	r3, r3, r7
 800658a:	f8cc 3000 	str.w	r3, [ip]
 800658e:	4f17      	ldr	r7, [pc, #92]	@ (80065ec <_tx_thread_system_suspend+0xe8>)
 8006590:	b9ab      	cbnz	r3, 80065be <_tx_thread_system_suspend+0xba>
 8006592:	2020      	movs	r0, #32
 8006594:	6038      	str	r0, [r7, #0]
 8006596:	600b      	str	r3, [r1, #0]
 8006598:	f386 8810 	msr	PRIMASK, r6
 800659c:	6813      	ldr	r3, [r2, #0]
 800659e:	b9cb      	cbnz	r3, 80065d4 <_tx_thread_system_suspend+0xd0>
 80065a0:	f04f 23e0 	mov.w	r3, #3758153728	@ 0xe000e000
 80065a4:	f04f 5280 	mov.w	r2, #268435456	@ 0x10000000
 80065a8:	f8c3 2d04 	str.w	r2, [r3, #3332]	@ 0xd04
 80065ac:	f3ef 8305 	mrs	r3, IPSR
 80065b0:	b983      	cbnz	r3, 80065d4 <_tx_thread_system_suspend+0xd0>
 80065b2:	f3ef 8310 	mrs	r3, PRIMASK
 80065b6:	b662      	cpsie	i
 80065b8:	f383 8810 	msr	PRIMASK, r3
 80065bc:	e00a      	b.n	80065d4 <_tx_thread_system_suspend+0xd0>
 80065be:	fa93 f3a3 	rbit	r3, r3
 80065c2:	fab3 f383 	clz	r3, r3
 80065c6:	603b      	str	r3, [r7, #0]
 80065c8:	e7cd      	b.n	8006566 <_tx_thread_system_suspend+0x62>
 80065ca:	f386 8810 	msr	PRIMASK, r6
 80065ce:	680b      	ldr	r3, [r1, #0]
 80065d0:	42ab      	cmp	r3, r5
 80065d2:	d1e3      	bne.n	800659c <_tx_thread_system_suspend+0x98>
 80065d4:	bdf8      	pop	{r3, r4, r5, r6, r7, pc}
 80065d6:	bf00      	nop
 80065d8:	2000312c 	.word	0x2000312c
 80065dc:	20003134 	.word	0x20003134
 80065e0:	20003094 	.word	0x20003094
 80065e4:	20003128 	.word	0x20003128
 80065e8:	20003098 	.word	0x20003098
 80065ec:	20003118 	.word	0x20003118
 80065f0:	2000311c 	.word	0x2000311c

080065f4 <_tx_thread_time_slice>:
 80065f4:	4b10      	ldr	r3, [pc, #64]	@ (8006638 <_tx_thread_time_slice+0x44>)
 80065f6:	681b      	ldr	r3, [r3, #0]
 80065f8:	f3ef 8010 	mrs	r0, PRIMASK
 80065fc:	b672      	cpsid	i
 80065fe:	2100      	movs	r1, #0
 8006600:	4a0e      	ldr	r2, [pc, #56]	@ (800663c <_tx_thread_time_slice+0x48>)
 8006602:	6011      	str	r1, [r2, #0]
 8006604:	b1ab      	cbz	r3, 8006632 <_tx_thread_time_slice+0x3e>
 8006606:	6b1a      	ldr	r2, [r3, #48]	@ 0x30
 8006608:	b99a      	cbnz	r2, 8006632 <_tx_thread_time_slice+0x3e>
 800660a:	69da      	ldr	r2, [r3, #28]
 800660c:	490c      	ldr	r1, [pc, #48]	@ (8006640 <_tx_thread_time_slice+0x4c>)
 800660e:	619a      	str	r2, [r3, #24]
 8006610:	600a      	str	r2, [r1, #0]
 8006612:	6a19      	ldr	r1, [r3, #32]
 8006614:	4299      	cmp	r1, r3
 8006616:	d00c      	beq.n	8006632 <_tx_thread_time_slice+0x3e>
 8006618:	6ada      	ldr	r2, [r3, #44]	@ 0x2c
 800661a:	6bdb      	ldr	r3, [r3, #60]	@ 0x3c
 800661c:	429a      	cmp	r2, r3
 800661e:	d108      	bne.n	8006632 <_tx_thread_time_slice+0x3e>
 8006620:	4b08      	ldr	r3, [pc, #32]	@ (8006644 <_tx_thread_time_slice+0x50>)
 8006622:	f843 1022 	str.w	r1, [r3, r2, lsl #2]
 8006626:	4a08      	ldr	r2, [pc, #32]	@ (8006648 <_tx_thread_time_slice+0x54>)
 8006628:	6812      	ldr	r2, [r2, #0]
 800662a:	f853 2022 	ldr.w	r2, [r3, r2, lsl #2]
 800662e:	4b07      	ldr	r3, [pc, #28]	@ (800664c <_tx_thread_time_slice+0x58>)
 8006630:	601a      	str	r2, [r3, #0]
 8006632:	f380 8810 	msr	PRIMASK, r0
 8006636:	4770      	bx	lr
 8006638:	2000312c 	.word	0x2000312c
 800663c:	20003a90 	.word	0x20003a90
 8006640:	20003134 	.word	0x20003134
 8006644:	20003098 	.word	0x20003098
 8006648:	20003118 	.word	0x20003118
 800664c:	20003128 	.word	0x20003128

08006650 <_tx_thread_timeout>:
 8006650:	b410      	push	{r4}
 8006652:	f3ef 8410 	mrs	r4, PRIMASK
 8006656:	b672      	cpsid	i
 8006658:	6b02      	ldr	r2, [r0, #48]	@ 0x30
 800665a:	2a04      	cmp	r2, #4
 800665c:	d109      	bne.n	8006672 <_tx_thread_timeout+0x22>
 800665e:	4a0b      	ldr	r2, [pc, #44]	@ (800668c <_tx_thread_timeout+0x3c>)
 8006660:	6813      	ldr	r3, [r2, #0]
 8006662:	3301      	adds	r3, #1
 8006664:	6013      	str	r3, [r2, #0]
 8006666:	f384 8810 	msr	PRIMASK, r4
 800666a:	f85d 4b04 	ldr.w	r4, [sp], #4
 800666e:	f7ff bed5 	b.w	800641c <_tx_thread_system_resume>
 8006672:	6e82      	ldr	r2, [r0, #104]	@ 0x68
 8006674:	f8d0 10ac 	ldr.w	r1, [r0, #172]	@ 0xac
 8006678:	f384 8810 	msr	PRIMASK, r4
 800667c:	b112      	cbz	r2, 8006684 <_tx_thread_timeout+0x34>
 800667e:	f85d 4b04 	ldr.w	r4, [sp], #4
 8006682:	4710      	bx	r2
 8006684:	f85d 4b04 	ldr.w	r4, [sp], #4
 8006688:	4770      	bx	lr
 800668a:	bf00      	nop
 800668c:	20003094 	.word	0x20003094

08006690 <_tx_timer_expiration_process>:
 8006690:	f3ef 8110 	mrs	r1, PRIMASK
 8006694:	b672      	cpsid	i
 8006696:	4a04      	ldr	r2, [pc, #16]	@ (80066a8 <_tx_timer_expiration_process+0x18>)
 8006698:	6813      	ldr	r3, [r2, #0]
 800669a:	3301      	adds	r3, #1
 800669c:	6013      	str	r3, [r2, #0]
 800669e:	f381 8810 	msr	PRIMASK, r1
 80066a2:	4802      	ldr	r0, [pc, #8]	@ (80066ac <_tx_timer_expiration_process+0x1c>)
 80066a4:	f7ff beba 	b.w	800641c <_tx_thread_system_resume>
 80066a8:	20003094 	.word	0x20003094
 80066ac:	20003944 	.word	0x20003944

080066b0 <_tx_timer_initialize>:
 80066b0:	e92d 43f0 	stmdb	sp!, {r4, r5, r6, r7, r8, r9, lr}
 80066b4:	2400      	movs	r4, #0
 80066b6:	4b20      	ldr	r3, [pc, #128]	@ (8006738 <_tx_timer_initialize+0x88>)
 80066b8:	b087      	sub	sp, #28
 80066ba:	601c      	str	r4, [r3, #0]
 80066bc:	4b1f      	ldr	r3, [pc, #124]	@ (800673c <_tx_timer_initialize+0x8c>)
 80066be:	2280      	movs	r2, #128	@ 0x80
 80066c0:	601c      	str	r4, [r3, #0]
 80066c2:	4b1f      	ldr	r3, [pc, #124]	@ (8006740 <_tx_timer_initialize+0x90>)
 80066c4:	4621      	mov	r1, r4
 80066c6:	601c      	str	r4, [r3, #0]
 80066c8:	4b1e      	ldr	r3, [pc, #120]	@ (8006744 <_tx_timer_initialize+0x94>)
 80066ca:	4d1f      	ldr	r5, [pc, #124]	@ (8006748 <_tx_timer_initialize+0x98>)
 80066cc:	601c      	str	r4, [r3, #0]
 80066ce:	4b1f      	ldr	r3, [pc, #124]	@ (800674c <_tx_timer_initialize+0x9c>)
 80066d0:	4f1f      	ldr	r7, [pc, #124]	@ (8006750 <_tx_timer_initialize+0xa0>)
 80066d2:	601c      	str	r4, [r3, #0]
 80066d4:	4b1f      	ldr	r3, [pc, #124]	@ (8006754 <_tx_timer_initialize+0xa4>)
 80066d6:	4e20      	ldr	r6, [pc, #128]	@ (8006758 <_tx_timer_initialize+0xa8>)
 80066d8:	4618      	mov	r0, r3
 80066da:	f002 fced 	bl	80090b8 <memset>
 80066de:	4603      	mov	r3, r0
 80066e0:	4a1e      	ldr	r2, [pc, #120]	@ (800675c <_tx_timer_initialize+0xac>)
 80066e2:	3380      	adds	r3, #128	@ 0x80
 80066e4:	6010      	str	r0, [r2, #0]
 80066e6:	4a1e      	ldr	r2, [pc, #120]	@ (8006760 <_tx_timer_initialize+0xb0>)
 80066e8:	603c      	str	r4, [r7, #0]
 80066ea:	6010      	str	r0, [r2, #0]
 80066ec:	4a1d      	ldr	r2, [pc, #116]	@ (8006764 <_tx_timer_initialize+0xb4>)
 80066ee:	f8df 908c 	ldr.w	r9, [pc, #140]	@ 800677c <_tx_timer_initialize+0xcc>
 80066f2:	6013      	str	r3, [r2, #0]
 80066f4:	4b1c      	ldr	r3, [pc, #112]	@ (8006768 <_tx_timer_initialize+0xb8>)
 80066f6:	f8df 8088 	ldr.w	r8, [pc, #136]	@ 8006780 <_tx_timer_initialize+0xd0>
 80066fa:	602b      	str	r3, [r5, #0]
 80066fc:	f44f 6300 	mov.w	r3, #2048	@ 0x800
 8006700:	4c1a      	ldr	r4, [pc, #104]	@ (800676c <_tx_timer_initialize+0xbc>)
 8006702:	6033      	str	r3, [r6, #0]
 8006704:	2300      	movs	r3, #0
 8006706:	6838      	ldr	r0, [r7, #0]
 8006708:	e9cd 3304 	strd	r3, r3, [sp, #16]
 800670c:	e9cd 0002 	strd	r0, r0, [sp, #8]
 8006710:	6833      	ldr	r3, [r6, #0]
 8006712:	4642      	mov	r2, r8
 8006714:	9301      	str	r3, [sp, #4]
 8006716:	682b      	ldr	r3, [r5, #0]
 8006718:	4621      	mov	r1, r4
 800671a:	9300      	str	r3, [sp, #0]
 800671c:	4814      	ldr	r0, [pc, #80]	@ (8006770 <_tx_timer_initialize+0xc0>)
 800671e:	464b      	mov	r3, r9
 8006720:	f7ff fd00 	bl	8006124 <_tx_thread_create>
 8006724:	2800      	cmp	r0, #0
 8006726:	d1ed      	bne.n	8006704 <_tx_timer_initialize+0x54>
 8006728:	4b12      	ldr	r3, [pc, #72]	@ (8006774 <_tx_timer_initialize+0xc4>)
 800672a:	6018      	str	r0, [r3, #0]
 800672c:	4b12      	ldr	r3, [pc, #72]	@ (8006778 <_tx_timer_initialize+0xc8>)
 800672e:	6018      	str	r0, [r3, #0]
 8006730:	b007      	add	sp, #28
 8006732:	e8bd 83f0 	ldmia.w	sp!, {r4, r5, r6, r7, r8, r9, pc}
 8006736:	bf00      	nop
 8006738:	20003a94 	.word	0x20003a94
 800673c:	20003134 	.word	0x20003134
 8006740:	20003a90 	.word	0x20003a90
 8006744:	20003a00 	.word	0x20003a00
 8006748:	20003940 	.word	0x20003940
 800674c:	200039f4 	.word	0x200039f4
 8006750:	20003938 	.word	0x20003938
 8006754:	20003a10 	.word	0x20003a10
 8006758:	2000393c 	.word	0x2000393c
 800675c:	20003a0c 	.word	0x20003a0c
 8006760:	20003a04 	.word	0x20003a04
 8006764:	20003a08 	.word	0x20003a08
 8006768:	20003138 	.word	0x20003138
 800676c:	0800915a 	.word	0x0800915a
 8006770:	20003944 	.word	0x20003944
 8006774:	200039fc 	.word	0x200039fc
 8006778:	200039f8 	.word	0x200039f8
 800677c:	4154494d 	.word	0x4154494d
 8006780:	08006805 	.word	0x08006805

08006784 <_tx_timer_system_activate>:
 8006784:	6803      	ldr	r3, [r0, #0]
 8006786:	1e5a      	subs	r2, r3, #1
 8006788:	3203      	adds	r2, #3
 800678a:	d817      	bhi.n	80067bc <_tx_timer_system_activate+0x38>
 800678c:	6982      	ldr	r2, [r0, #24]
 800678e:	b9aa      	cbnz	r2, 80067bc <_tx_timer_system_activate+0x38>
 8006790:	2b20      	cmp	r3, #32
 8006792:	bf28      	it	cs
 8006794:	2320      	movcs	r3, #32
 8006796:	1e5a      	subs	r2, r3, #1
 8006798:	4b0c      	ldr	r3, [pc, #48]	@ (80067cc <_tx_timer_system_activate+0x48>)
 800679a:	681b      	ldr	r3, [r3, #0]
 800679c:	eb03 0382 	add.w	r3, r3, r2, lsl #2
 80067a0:	4a0b      	ldr	r2, [pc, #44]	@ (80067d0 <_tx_timer_system_activate+0x4c>)
 80067a2:	6812      	ldr	r2, [r2, #0]
 80067a4:	429a      	cmp	r2, r3
 80067a6:	bf9f      	itttt	ls
 80067a8:	1a9b      	subls	r3, r3, r2
 80067aa:	4a0a      	ldrls	r2, [pc, #40]	@ (80067d4 <_tx_timer_system_activate+0x50>)
 80067ac:	6812      	ldrls	r2, [r2, #0]
 80067ae:	189b      	addls	r3, r3, r2
 80067b0:	681a      	ldr	r2, [r3, #0]
 80067b2:	b922      	cbnz	r2, 80067be <_tx_timer_system_activate+0x3a>
 80067b4:	e9c0 0004 	strd	r0, r0, [r0, #16]
 80067b8:	6018      	str	r0, [r3, #0]
 80067ba:	6183      	str	r3, [r0, #24]
 80067bc:	4770      	bx	lr
 80067be:	6951      	ldr	r1, [r2, #20]
 80067c0:	6108      	str	r0, [r1, #16]
 80067c2:	6150      	str	r0, [r2, #20]
 80067c4:	e9c0 2104 	strd	r2, r1, [r0, #16]
 80067c8:	e7f7      	b.n	80067ba <_tx_timer_system_activate+0x36>
 80067ca:	bf00      	nop
 80067cc:	20003a04 	.word	0x20003a04
 80067d0:	20003a08 	.word	0x20003a08
 80067d4:	20003a0c 	.word	0x20003a0c

080067d8 <_tx_timer_system_deactivate>:
 80067d8:	6983      	ldr	r3, [r0, #24]
 80067da:	b14b      	cbz	r3, 80067f0 <_tx_timer_system_deactivate+0x18>
 80067dc:	6902      	ldr	r2, [r0, #16]
 80067de:	4290      	cmp	r0, r2
 80067e0:	d107      	bne.n	80067f2 <_tx_timer_system_deactivate+0x1a>
 80067e2:	681a      	ldr	r2, [r3, #0]
 80067e4:	4282      	cmp	r2, r0
 80067e6:	d101      	bne.n	80067ec <_tx_timer_system_deactivate+0x14>
 80067e8:	2200      	movs	r2, #0
 80067ea:	601a      	str	r2, [r3, #0]
 80067ec:	2300      	movs	r3, #0
 80067ee:	6183      	str	r3, [r0, #24]
 80067f0:	4770      	bx	lr
 80067f2:	6941      	ldr	r1, [r0, #20]
 80067f4:	6151      	str	r1, [r2, #20]
 80067f6:	610a      	str	r2, [r1, #16]
 80067f8:	6819      	ldr	r1, [r3, #0]
 80067fa:	4281      	cmp	r1, r0
 80067fc:	d1f6      	bne.n	80067ec <_tx_timer_system_deactivate+0x14>
 80067fe:	6193      	str	r3, [r2, #24]
 8006800:	e7f3      	b.n	80067ea <_tx_timer_system_deactivate+0x12>
	...

08006804 <_tx_timer_thread_entry>:
 8006804:	4b3e      	ldr	r3, [pc, #248]	@ (8006900 <_tx_timer_thread_entry+0xfc>)
 8006806:	e92d 4ff7 	stmdb	sp!, {r0, r1, r2, r4, r5, r6, r7, r8, r9, sl, fp, lr}
 800680a:	4298      	cmp	r0, r3
 800680c:	d175      	bne.n	80068fa <_tx_timer_thread_entry+0xf6>
 800680e:	2500      	movs	r5, #0
 8006810:	462f      	mov	r7, r5
 8006812:	46a9      	mov	r9, r5
 8006814:	4e3b      	ldr	r6, [pc, #236]	@ (8006904 <_tx_timer_thread_entry+0x100>)
 8006816:	f8df 8100 	ldr.w	r8, [pc, #256]	@ 8006918 <_tx_timer_thread_entry+0x114>
 800681a:	f3ef 8110 	mrs	r1, PRIMASK
 800681e:	b672      	cpsid	i
 8006820:	6833      	ldr	r3, [r6, #0]
 8006822:	681a      	ldr	r2, [r3, #0]
 8006824:	9200      	str	r2, [sp, #0]
 8006826:	b10a      	cbz	r2, 800682c <_tx_timer_thread_entry+0x28>
 8006828:	f8c2 d018 	str.w	sp, [r2, #24]
 800682c:	4a36      	ldr	r2, [pc, #216]	@ (8006908 <_tx_timer_thread_entry+0x104>)
 800682e:	f843 7b04 	str.w	r7, [r3], #4
 8006832:	6812      	ldr	r2, [r2, #0]
 8006834:	6033      	str	r3, [r6, #0]
 8006836:	4293      	cmp	r3, r2
 8006838:	bf08      	it	eq
 800683a:	4b34      	ldreq	r3, [pc, #208]	@ (800690c <_tx_timer_thread_entry+0x108>)
 800683c:	f8c8 9000 	str.w	r9, [r8]
 8006840:	bf04      	itt	eq
 8006842:	681b      	ldreq	r3, [r3, #0]
 8006844:	6033      	streq	r3, [r6, #0]
 8006846:	f381 8810 	msr	PRIMASK, r1
 800684a:	f3ef 8210 	mrs	r2, PRIMASK
 800684e:	b672      	cpsid	i
 8006850:	f8df a0c8 	ldr.w	sl, [pc, #200]	@ 800691c <_tx_timer_thread_entry+0x118>
 8006854:	9c00      	ldr	r4, [sp, #0]
 8006856:	b98c      	cbnz	r4, 800687c <_tx_timer_thread_entry+0x78>
 8006858:	f8d8 3000 	ldr.w	r3, [r8]
 800685c:	2b00      	cmp	r3, #0
 800685e:	d149      	bne.n	80068f4 <_tx_timer_thread_entry+0xf0>
 8006860:	2303      	movs	r3, #3
 8006862:	482b      	ldr	r0, [pc, #172]	@ (8006910 <_tx_timer_thread_entry+0x10c>)
 8006864:	492b      	ldr	r1, [pc, #172]	@ (8006914 <_tx_timer_thread_entry+0x110>)
 8006866:	6303      	str	r3, [r0, #48]	@ 0x30
 8006868:	2301      	movs	r3, #1
 800686a:	6383      	str	r3, [r0, #56]	@ 0x38
 800686c:	680b      	ldr	r3, [r1, #0]
 800686e:	3301      	adds	r3, #1
 8006870:	600b      	str	r3, [r1, #0]
 8006872:	f382 8810 	msr	PRIMASK, r2
 8006876:	f7ff fe45 	bl	8006504 <_tx_thread_system_suspend>
 800687a:	e7ce      	b.n	800681a <_tx_timer_thread_entry+0x16>
 800687c:	6923      	ldr	r3, [r4, #16]
 800687e:	f8cd 9004 	str.w	r9, [sp, #4]
 8006882:	429c      	cmp	r4, r3
 8006884:	bf0c      	ite	eq
 8006886:	2300      	moveq	r3, #0
 8006888:	6961      	ldrne	r1, [r4, #20]
 800688a:	9300      	str	r3, [sp, #0]
 800688c:	bf1e      	ittt	ne
 800688e:	6159      	strne	r1, [r3, #20]
 8006890:	610b      	strne	r3, [r1, #16]
 8006892:	f8c3 d018 	strne.w	sp, [r3, #24]
 8006896:	6823      	ldr	r3, [r4, #0]
 8006898:	2b20      	cmp	r3, #32
 800689a:	d91f      	bls.n	80068dc <_tx_timer_thread_entry+0xd8>
 800689c:	3b20      	subs	r3, #32
 800689e:	6023      	str	r3, [r4, #0]
 80068a0:	ab01      	add	r3, sp, #4
 80068a2:	61a3      	str	r3, [r4, #24]
 80068a4:	2300      	movs	r3, #0
 80068a6:	6124      	str	r4, [r4, #16]
 80068a8:	9401      	str	r4, [sp, #4]
 80068aa:	f8ca 4000 	str.w	r4, [sl]
 80068ae:	f382 8810 	msr	PRIMASK, r2
 80068b2:	b10b      	cbz	r3, 80068b8 <_tx_timer_thread_entry+0xb4>
 80068b4:	4628      	mov	r0, r5
 80068b6:	4798      	blx	r3
 80068b8:	f3ef 8b10 	mrs	fp, PRIMASK
 80068bc:	b672      	cpsid	i
 80068be:	9b01      	ldr	r3, [sp, #4]
 80068c0:	f8ca 7000 	str.w	r7, [sl]
 80068c4:	42a3      	cmp	r3, r4
 80068c6:	d103      	bne.n	80068d0 <_tx_timer_thread_entry+0xcc>
 80068c8:	4620      	mov	r0, r4
 80068ca:	61a7      	str	r7, [r4, #24]
 80068cc:	f7ff ff5a 	bl	8006784 <_tx_timer_system_activate>
 80068d0:	f38b 8810 	msr	PRIMASK, fp
 80068d4:	f3ef 8210 	mrs	r2, PRIMASK
 80068d8:	b672      	cpsid	i
 80068da:	e7bb      	b.n	8006854 <_tx_timer_thread_entry+0x50>
 80068dc:	6861      	ldr	r1, [r4, #4]
 80068de:	e9d4 3502 	ldrd	r3, r5, [r4, #8]
 80068e2:	6021      	str	r1, [r4, #0]
 80068e4:	b121      	cbz	r1, 80068f0 <_tx_timer_thread_entry+0xec>
 80068e6:	a901      	add	r1, sp, #4
 80068e8:	61a1      	str	r1, [r4, #24]
 80068ea:	6124      	str	r4, [r4, #16]
 80068ec:	9401      	str	r4, [sp, #4]
 80068ee:	e7dc      	b.n	80068aa <_tx_timer_thread_entry+0xa6>
 80068f0:	61a1      	str	r1, [r4, #24]
 80068f2:	e7da      	b.n	80068aa <_tx_timer_thread_entry+0xa6>
 80068f4:	f382 8810 	msr	PRIMASK, r2
 80068f8:	e78f      	b.n	800681a <_tx_timer_thread_entry+0x16>
 80068fa:	b003      	add	sp, #12
 80068fc:	e8bd 8ff0 	ldmia.w	sp!, {r4, r5, r6, r7, r8, r9, sl, fp, pc}
 8006900:	4154494d 	.word	0x4154494d
 8006904:	20003a04 	.word	0x20003a04
 8006908:	20003a08 	.word	0x20003a08
 800690c:	20003a0c 	.word	0x20003a0c
 8006910:	20003944 	.word	0x20003944
 8006914:	20003094 	.word	0x20003094
 8006918:	20003a00 	.word	0x20003a00
 800691c:	200039f4 	.word	0x200039f4

08006920 <_txe_byte_allocate>:
 8006920:	b470      	push	{r4, r5, r6}
 8006922:	b320      	cbz	r0, 800696e <_txe_byte_allocate+0x4e>
 8006924:	6805      	ldr	r5, [r0, #0]
 8006926:	4c17      	ldr	r4, [pc, #92]	@ (8006984 <_txe_byte_allocate+0x64>)
 8006928:	42a5      	cmp	r5, r4
 800692a:	d120      	bne.n	800696e <_txe_byte_allocate+0x4e>
 800692c:	b311      	cbz	r1, 8006974 <_txe_byte_allocate+0x54>
 800692e:	b31a      	cbz	r2, 8006978 <_txe_byte_allocate+0x58>
 8006930:	69c4      	ldr	r4, [r0, #28]
 8006932:	4294      	cmp	r4, r2
 8006934:	d320      	bcc.n	8006978 <_txe_byte_allocate+0x58>
 8006936:	b12b      	cbz	r3, 8006944 <_txe_byte_allocate+0x24>
 8006938:	f3ef 8505 	mrs	r5, IPSR
 800693c:	4c12      	ldr	r4, [pc, #72]	@ (8006988 <_txe_byte_allocate+0x68>)
 800693e:	6824      	ldr	r4, [r4, #0]
 8006940:	432c      	orrs	r4, r5
 8006942:	d11b      	bne.n	800697c <_txe_byte_allocate+0x5c>
 8006944:	4c11      	ldr	r4, [pc, #68]	@ (800698c <_txe_byte_allocate+0x6c>)
 8006946:	6825      	ldr	r5, [r4, #0]
 8006948:	4c11      	ldr	r4, [pc, #68]	@ (8006990 <_txe_byte_allocate+0x70>)
 800694a:	42a5      	cmp	r5, r4
 800694c:	d018      	beq.n	8006980 <_txe_byte_allocate+0x60>
 800694e:	f3ef 8605 	mrs	r6, IPSR
 8006952:	4c0d      	ldr	r4, [pc, #52]	@ (8006988 <_txe_byte_allocate+0x68>)
 8006954:	6825      	ldr	r5, [r4, #0]
 8006956:	4335      	orrs	r5, r6
 8006958:	d006      	beq.n	8006968 <_txe_byte_allocate+0x48>
 800695a:	f3ef 8505 	mrs	r5, IPSR
 800695e:	6824      	ldr	r4, [r4, #0]
 8006960:	432c      	orrs	r4, r5
 8006962:	f1b4 3ff0 	cmp.w	r4, #4042322160	@ 0xf0f0f0f0
 8006966:	d30b      	bcc.n	8006980 <_txe_byte_allocate+0x60>
 8006968:	bc70      	pop	{r4, r5, r6}
 800696a:	f7fe be39 	b.w	80055e0 <_tx_byte_allocate>
 800696e:	2002      	movs	r0, #2
 8006970:	bc70      	pop	{r4, r5, r6}
 8006972:	4770      	bx	lr
 8006974:	2003      	movs	r0, #3
 8006976:	e7fb      	b.n	8006970 <_txe_byte_allocate+0x50>
 8006978:	2005      	movs	r0, #5
 800697a:	e7f9      	b.n	8006970 <_txe_byte_allocate+0x50>
 800697c:	2004      	movs	r0, #4
 800697e:	e7f7      	b.n	8006970 <_txe_byte_allocate+0x50>
 8006980:	2013      	movs	r0, #19
 8006982:	e7f5      	b.n	8006970 <_txe_byte_allocate+0x50>
 8006984:	42595445 	.word	0x42595445
 8006988:	2000000c 	.word	0x2000000c
 800698c:	2000312c 	.word	0x2000312c
 8006990:	20003944 	.word	0x20003944

08006994 <_txe_byte_pool_create>:
 8006994:	e92d 41f0 	stmdb	sp!, {r4, r5, r6, r7, r8, lr}
 8006998:	461e      	mov	r6, r3
 800699a:	4688      	mov	r8, r1
 800699c:	4615      	mov	r5, r2
 800699e:	4604      	mov	r4, r0
 80069a0:	9b06      	ldr	r3, [sp, #24]
 80069a2:	b910      	cbnz	r0, 80069aa <_txe_byte_pool_create+0x16>
 80069a4:	2002      	movs	r0, #2
 80069a6:	e8bd 81f0 	ldmia.w	sp!, {r4, r5, r6, r7, r8, pc}
 80069aa:	2b34      	cmp	r3, #52	@ 0x34
 80069ac:	d1fa      	bne.n	80069a4 <_txe_byte_pool_create+0x10>
 80069ae:	f3ef 8110 	mrs	r1, PRIMASK
 80069b2:	b672      	cpsid	i
 80069b4:	4b21      	ldr	r3, [pc, #132]	@ (8006a3c <_txe_byte_pool_create+0xa8>)
 80069b6:	681a      	ldr	r2, [r3, #0]
 80069b8:	3201      	adds	r2, #1
 80069ba:	601a      	str	r2, [r3, #0]
 80069bc:	f381 8810 	msr	PRIMASK, r1
 80069c0:	4a1f      	ldr	r2, [pc, #124]	@ (8006a40 <_txe_byte_pool_create+0xac>)
 80069c2:	6817      	ldr	r7, [r2, #0]
 80069c4:	4a1f      	ldr	r2, [pc, #124]	@ (8006a44 <_txe_byte_pool_create+0xb0>)
 80069c6:	6811      	ldr	r1, [r2, #0]
 80069c8:	2200      	movs	r2, #0
 80069ca:	4291      	cmp	r1, r2
 80069cc:	d001      	beq.n	80069d2 <_txe_byte_pool_create+0x3e>
 80069ce:	42a7      	cmp	r7, r4
 80069d0:	d12b      	bne.n	8006a2a <_txe_byte_pool_create+0x96>
 80069d2:	f3ef 8110 	mrs	r1, PRIMASK
 80069d6:	b672      	cpsid	i
 80069d8:	681a      	ldr	r2, [r3, #0]
 80069da:	3a01      	subs	r2, #1
 80069dc:	601a      	str	r2, [r3, #0]
 80069de:	f381 8810 	msr	PRIMASK, r1
 80069e2:	f7ff fcfd 	bl	80063e0 <_tx_thread_system_preempt_check>
 80069e6:	42a7      	cmp	r7, r4
 80069e8:	d0dc      	beq.n	80069a4 <_txe_byte_pool_create+0x10>
 80069ea:	b30d      	cbz	r5, 8006a30 <_txe_byte_pool_create+0x9c>
 80069ec:	2e63      	cmp	r6, #99	@ 0x63
 80069ee:	d921      	bls.n	8006a34 <_txe_byte_pool_create+0xa0>
 80069f0:	4b15      	ldr	r3, [pc, #84]	@ (8006a48 <_txe_byte_pool_create+0xb4>)
 80069f2:	4a16      	ldr	r2, [pc, #88]	@ (8006a4c <_txe_byte_pool_create+0xb8>)
 80069f4:	681b      	ldr	r3, [r3, #0]
 80069f6:	4293      	cmp	r3, r2
 80069f8:	bf0c      	ite	eq
 80069fa:	2313      	moveq	r3, #19
 80069fc:	2300      	movne	r3, #0
 80069fe:	f3ef 8005 	mrs	r0, IPSR
 8006a02:	4a13      	ldr	r2, [pc, #76]	@ (8006a50 <_txe_byte_pool_create+0xbc>)
 8006a04:	6811      	ldr	r1, [r2, #0]
 8006a06:	4301      	orrs	r1, r0
 8006a08:	d006      	beq.n	8006a18 <_txe_byte_pool_create+0x84>
 8006a0a:	f3ef 8105 	mrs	r1, IPSR
 8006a0e:	6812      	ldr	r2, [r2, #0]
 8006a10:	430a      	orrs	r2, r1
 8006a12:	f1b2 3ff0 	cmp.w	r2, #4042322160	@ 0xf0f0f0f0
 8006a16:	d30f      	bcc.n	8006a38 <_txe_byte_pool_create+0xa4>
 8006a18:	b973      	cbnz	r3, 8006a38 <_txe_byte_pool_create+0xa4>
 8006a1a:	4633      	mov	r3, r6
 8006a1c:	462a      	mov	r2, r5
 8006a1e:	4641      	mov	r1, r8
 8006a20:	4620      	mov	r0, r4
 8006a22:	e8bd 41f0 	ldmia.w	sp!, {r4, r5, r6, r7, r8, lr}
 8006a26:	f7fe be73 	b.w	8005710 <_tx_byte_pool_create>
 8006a2a:	6aff      	ldr	r7, [r7, #44]	@ 0x2c
 8006a2c:	3201      	adds	r2, #1
 8006a2e:	e7cc      	b.n	80069ca <_txe_byte_pool_create+0x36>
 8006a30:	2003      	movs	r0, #3
 8006a32:	e7b8      	b.n	80069a6 <_txe_byte_pool_create+0x12>
 8006a34:	2005      	movs	r0, #5
 8006a36:	e7b6      	b.n	80069a6 <_txe_byte_pool_create+0x12>
 8006a38:	2013      	movs	r0, #19
 8006a3a:	e7b4      	b.n	80069a6 <_txe_byte_pool_create+0x12>
 8006a3c:	20003094 	.word	0x20003094
 8006a40:	20003060 	.word	0x20003060
 8006a44:	2000305c 	.word	0x2000305c
 8006a48:	2000312c 	.word	0x2000312c
 8006a4c:	20003944 	.word	0x20003944
 8006a50:	2000000c 	.word	0x2000000c

08006a54 <_txe_mutex_create>:
 8006a54:	b5f8      	push	{r3, r4, r5, r6, r7, lr}
 8006a56:	460f      	mov	r7, r1
 8006a58:	4615      	mov	r5, r2
 8006a5a:	4604      	mov	r4, r0
 8006a5c:	b908      	cbnz	r0, 8006a62 <_txe_mutex_create+0xe>
 8006a5e:	201c      	movs	r0, #28
 8006a60:	bdf8      	pop	{r3, r4, r5, r6, r7, pc}
 8006a62:	2b34      	cmp	r3, #52	@ 0x34
 8006a64:	d1fb      	bne.n	8006a5e <_txe_mutex_create+0xa>
 8006a66:	f3ef 8110 	mrs	r1, PRIMASK
 8006a6a:	b672      	cpsid	i
 8006a6c:	4b1f      	ldr	r3, [pc, #124]	@ (8006aec <_txe_mutex_create+0x98>)
 8006a6e:	681a      	ldr	r2, [r3, #0]
 8006a70:	3201      	adds	r2, #1
 8006a72:	601a      	str	r2, [r3, #0]
 8006a74:	f381 8810 	msr	PRIMASK, r1
 8006a78:	4a1d      	ldr	r2, [pc, #116]	@ (8006af0 <_txe_mutex_create+0x9c>)
 8006a7a:	6816      	ldr	r6, [r2, #0]
 8006a7c:	4a1d      	ldr	r2, [pc, #116]	@ (8006af4 <_txe_mutex_create+0xa0>)
 8006a7e:	6811      	ldr	r1, [r2, #0]
 8006a80:	2200      	movs	r2, #0
 8006a82:	4291      	cmp	r1, r2
 8006a84:	d001      	beq.n	8006a8a <_txe_mutex_create+0x36>
 8006a86:	42a6      	cmp	r6, r4
 8006a88:	d129      	bne.n	8006ade <_txe_mutex_create+0x8a>
 8006a8a:	f3ef 8110 	mrs	r1, PRIMASK
 8006a8e:	b672      	cpsid	i
 8006a90:	681a      	ldr	r2, [r3, #0]
 8006a92:	3a01      	subs	r2, #1
 8006a94:	601a      	str	r2, [r3, #0]
 8006a96:	f381 8810 	msr	PRIMASK, r1
 8006a9a:	f7ff fca1 	bl	80063e0 <_tx_thread_system_preempt_check>
 8006a9e:	42a6      	cmp	r6, r4
 8006aa0:	d0dd      	beq.n	8006a5e <_txe_mutex_create+0xa>
 8006aa2:	2d01      	cmp	r5, #1
 8006aa4:	d81e      	bhi.n	8006ae4 <_txe_mutex_create+0x90>
 8006aa6:	4b14      	ldr	r3, [pc, #80]	@ (8006af8 <_txe_mutex_create+0xa4>)
 8006aa8:	4a14      	ldr	r2, [pc, #80]	@ (8006afc <_txe_mutex_create+0xa8>)
 8006aaa:	681b      	ldr	r3, [r3, #0]
 8006aac:	4293      	cmp	r3, r2
 8006aae:	bf0c      	ite	eq
 8006ab0:	2313      	moveq	r3, #19
 8006ab2:	2300      	movne	r3, #0
 8006ab4:	f3ef 8005 	mrs	r0, IPSR
 8006ab8:	4a11      	ldr	r2, [pc, #68]	@ (8006b00 <_txe_mutex_create+0xac>)
 8006aba:	6811      	ldr	r1, [r2, #0]
 8006abc:	4301      	orrs	r1, r0
 8006abe:	d006      	beq.n	8006ace <_txe_mutex_create+0x7a>
 8006ac0:	f3ef 8105 	mrs	r1, IPSR
 8006ac4:	6812      	ldr	r2, [r2, #0]
 8006ac6:	430a      	orrs	r2, r1
 8006ac8:	f1b2 3ff0 	cmp.w	r2, #4042322160	@ 0xf0f0f0f0
 8006acc:	d30c      	bcc.n	8006ae8 <_txe_mutex_create+0x94>
 8006ace:	b95b      	cbnz	r3, 8006ae8 <_txe_mutex_create+0x94>
 8006ad0:	462a      	mov	r2, r5
 8006ad2:	4639      	mov	r1, r7
 8006ad4:	4620      	mov	r0, r4
 8006ad6:	e8bd 40f8 	ldmia.w	sp!, {r3, r4, r5, r6, r7, lr}
 8006ada:	f7fe bf7f 	b.w	80059dc <_tx_mutex_create>
 8006ade:	6a36      	ldr	r6, [r6, #32]
 8006ae0:	3201      	adds	r2, #1
 8006ae2:	e7ce      	b.n	8006a82 <_txe_mutex_create+0x2e>
 8006ae4:	201f      	movs	r0, #31
 8006ae6:	e7bb      	b.n	8006a60 <_txe_mutex_create+0xc>
 8006ae8:	2013      	movs	r0, #19
 8006aea:	e7b9      	b.n	8006a60 <_txe_mutex_create+0xc>
 8006aec:	20003094 	.word	0x20003094
 8006af0:	20003070 	.word	0x20003070
 8006af4:	2000306c 	.word	0x2000306c
 8006af8:	2000312c 	.word	0x2000312c
 8006afc:	20003944 	.word	0x20003944
 8006b00:	2000000c 	.word	0x2000000c

08006b04 <_txe_mutex_delete>:
 8006b04:	b180      	cbz	r0, 8006b28 <_txe_mutex_delete+0x24>
 8006b06:	6802      	ldr	r2, [r0, #0]
 8006b08:	4b09      	ldr	r3, [pc, #36]	@ (8006b30 <_txe_mutex_delete+0x2c>)
 8006b0a:	429a      	cmp	r2, r3
 8006b0c:	d10c      	bne.n	8006b28 <_txe_mutex_delete+0x24>
 8006b0e:	f3ef 8205 	mrs	r2, IPSR
 8006b12:	4b08      	ldr	r3, [pc, #32]	@ (8006b34 <_txe_mutex_delete+0x30>)
 8006b14:	681b      	ldr	r3, [r3, #0]
 8006b16:	4313      	orrs	r3, r2
 8006b18:	d108      	bne.n	8006b2c <_txe_mutex_delete+0x28>
 8006b1a:	4b07      	ldr	r3, [pc, #28]	@ (8006b38 <_txe_mutex_delete+0x34>)
 8006b1c:	681a      	ldr	r2, [r3, #0]
 8006b1e:	4b07      	ldr	r3, [pc, #28]	@ (8006b3c <_txe_mutex_delete+0x38>)
 8006b20:	429a      	cmp	r2, r3
 8006b22:	d003      	beq.n	8006b2c <_txe_mutex_delete+0x28>
 8006b24:	f7fe bf8a 	b.w	8005a3c <_tx_mutex_delete>
 8006b28:	201c      	movs	r0, #28
 8006b2a:	4770      	bx	lr
 8006b2c:	2013      	movs	r0, #19
 8006b2e:	4770      	bx	lr
 8006b30:	4d555445 	.word	0x4d555445
 8006b34:	2000000c 	.word	0x2000000c
 8006b38:	2000312c 	.word	0x2000312c
 8006b3c:	20003944 	.word	0x20003944

08006b40 <_txe_mutex_get>:
 8006b40:	b410      	push	{r4}
 8006b42:	b1f8      	cbz	r0, 8006b84 <_txe_mutex_get+0x44>
 8006b44:	6802      	ldr	r2, [r0, #0]
 8006b46:	4b13      	ldr	r3, [pc, #76]	@ (8006b94 <_txe_mutex_get+0x54>)
 8006b48:	429a      	cmp	r2, r3
 8006b4a:	d11b      	bne.n	8006b84 <_txe_mutex_get+0x44>
 8006b4c:	4b12      	ldr	r3, [pc, #72]	@ (8006b98 <_txe_mutex_get+0x58>)
 8006b4e:	b149      	cbz	r1, 8006b64 <_txe_mutex_get+0x24>
 8006b50:	f3ef 8405 	mrs	r4, IPSR
 8006b54:	681a      	ldr	r2, [r3, #0]
 8006b56:	4322      	orrs	r2, r4
 8006b58:	d118      	bne.n	8006b8c <_txe_mutex_get+0x4c>
 8006b5a:	4a10      	ldr	r2, [pc, #64]	@ (8006b9c <_txe_mutex_get+0x5c>)
 8006b5c:	6814      	ldr	r4, [r2, #0]
 8006b5e:	4a10      	ldr	r2, [pc, #64]	@ (8006ba0 <_txe_mutex_get+0x60>)
 8006b60:	4294      	cmp	r4, r2
 8006b62:	d013      	beq.n	8006b8c <_txe_mutex_get+0x4c>
 8006b64:	f3ef 8405 	mrs	r4, IPSR
 8006b68:	681a      	ldr	r2, [r3, #0]
 8006b6a:	4322      	orrs	r2, r4
 8006b6c:	d006      	beq.n	8006b7c <_txe_mutex_get+0x3c>
 8006b6e:	f3ef 8205 	mrs	r2, IPSR
 8006b72:	681b      	ldr	r3, [r3, #0]
 8006b74:	4313      	orrs	r3, r2
 8006b76:	f1b3 3ff0 	cmp.w	r3, #4042322160	@ 0xf0f0f0f0
 8006b7a:	d309      	bcc.n	8006b90 <_txe_mutex_get+0x50>
 8006b7c:	f85d 4b04 	ldr.w	r4, [sp], #4
 8006b80:	f7fe bfb2 	b.w	8005ae8 <_tx_mutex_get>
 8006b84:	201c      	movs	r0, #28
 8006b86:	f85d 4b04 	ldr.w	r4, [sp], #4
 8006b8a:	4770      	bx	lr
 8006b8c:	2004      	movs	r0, #4
 8006b8e:	e7fa      	b.n	8006b86 <_txe_mutex_get+0x46>
 8006b90:	2013      	movs	r0, #19
 8006b92:	e7f8      	b.n	8006b86 <_txe_mutex_get+0x46>
 8006b94:	4d555445 	.word	0x4d555445
 8006b98:	2000000c 	.word	0x2000000c
 8006b9c:	2000312c 	.word	0x2000312c
 8006ba0:	20003944 	.word	0x20003944

08006ba4 <_txe_mutex_put>:
 8006ba4:	b190      	cbz	r0, 8006bcc <_txe_mutex_put+0x28>
 8006ba6:	6802      	ldr	r2, [r0, #0]
 8006ba8:	4b0a      	ldr	r3, [pc, #40]	@ (8006bd4 <_txe_mutex_put+0x30>)
 8006baa:	429a      	cmp	r2, r3
 8006bac:	d10e      	bne.n	8006bcc <_txe_mutex_put+0x28>
 8006bae:	f3ef 8105 	mrs	r1, IPSR
 8006bb2:	4b09      	ldr	r3, [pc, #36]	@ (8006bd8 <_txe_mutex_put+0x34>)
 8006bb4:	681a      	ldr	r2, [r3, #0]
 8006bb6:	430a      	orrs	r2, r1
 8006bb8:	d006      	beq.n	8006bc8 <_txe_mutex_put+0x24>
 8006bba:	f3ef 8205 	mrs	r2, IPSR
 8006bbe:	681b      	ldr	r3, [r3, #0]
 8006bc0:	4313      	orrs	r3, r2
 8006bc2:	f1b3 3ff0 	cmp.w	r3, #4042322160	@ 0xf0f0f0f0
 8006bc6:	d303      	bcc.n	8006bd0 <_txe_mutex_put+0x2c>
 8006bc8:	f7ff b8ae 	b.w	8005d28 <_tx_mutex_put>
 8006bcc:	201c      	movs	r0, #28
 8006bce:	4770      	bx	lr
 8006bd0:	2013      	movs	r0, #19
 8006bd2:	4770      	bx	lr
 8006bd4:	4d555445 	.word	0x4d555445
 8006bd8:	2000000c 	.word	0x2000000c

08006bdc <_txe_semaphore_create>:
 8006bdc:	b5f8      	push	{r3, r4, r5, r6, r7, lr}
 8006bde:	460e      	mov	r6, r1
 8006be0:	4617      	mov	r7, r2
 8006be2:	4604      	mov	r4, r0
 8006be4:	b908      	cbnz	r0, 8006bea <_txe_semaphore_create+0xe>
 8006be6:	200c      	movs	r0, #12
 8006be8:	bdf8      	pop	{r3, r4, r5, r6, r7, pc}
 8006bea:	2b1c      	cmp	r3, #28
 8006bec:	d1fb      	bne.n	8006be6 <_txe_semaphore_create+0xa>
 8006bee:	f3ef 8110 	mrs	r1, PRIMASK
 8006bf2:	b672      	cpsid	i
 8006bf4:	4b1c      	ldr	r3, [pc, #112]	@ (8006c68 <_txe_semaphore_create+0x8c>)
 8006bf6:	681a      	ldr	r2, [r3, #0]
 8006bf8:	3201      	adds	r2, #1
 8006bfa:	601a      	str	r2, [r3, #0]
 8006bfc:	f381 8810 	msr	PRIMASK, r1
 8006c00:	4a1a      	ldr	r2, [pc, #104]	@ (8006c6c <_txe_semaphore_create+0x90>)
 8006c02:	6815      	ldr	r5, [r2, #0]
 8006c04:	4a1a      	ldr	r2, [pc, #104]	@ (8006c70 <_txe_semaphore_create+0x94>)
 8006c06:	6811      	ldr	r1, [r2, #0]
 8006c08:	2200      	movs	r2, #0
 8006c0a:	4291      	cmp	r1, r2
 8006c0c:	d001      	beq.n	8006c12 <_txe_semaphore_create+0x36>
 8006c0e:	42a5      	cmp	r5, r4
 8006c10:	d124      	bne.n	8006c5c <_txe_semaphore_create+0x80>
 8006c12:	f3ef 8110 	mrs	r1, PRIMASK
 8006c16:	b672      	cpsid	i
 8006c18:	681a      	ldr	r2, [r3, #0]
 8006c1a:	3a01      	subs	r2, #1
 8006c1c:	601a      	str	r2, [r3, #0]
 8006c1e:	f381 8810 	msr	PRIMASK, r1
 8006c22:	f7ff fbdd 	bl	80063e0 <_tx_thread_system_preempt_check>
 8006c26:	42a5      	cmp	r5, r4
 8006c28:	d0dd      	beq.n	8006be6 <_txe_semaphore_create+0xa>
 8006c2a:	4b12      	ldr	r3, [pc, #72]	@ (8006c74 <_txe_semaphore_create+0x98>)
 8006c2c:	681a      	ldr	r2, [r3, #0]
 8006c2e:	4b12      	ldr	r3, [pc, #72]	@ (8006c78 <_txe_semaphore_create+0x9c>)
 8006c30:	429a      	cmp	r2, r3
 8006c32:	d016      	beq.n	8006c62 <_txe_semaphore_create+0x86>
 8006c34:	f3ef 8105 	mrs	r1, IPSR
 8006c38:	4b10      	ldr	r3, [pc, #64]	@ (8006c7c <_txe_semaphore_create+0xa0>)
 8006c3a:	681a      	ldr	r2, [r3, #0]
 8006c3c:	430a      	orrs	r2, r1
 8006c3e:	d006      	beq.n	8006c4e <_txe_semaphore_create+0x72>
 8006c40:	f3ef 8205 	mrs	r2, IPSR
 8006c44:	681b      	ldr	r3, [r3, #0]
 8006c46:	4313      	orrs	r3, r2
 8006c48:	f1b3 3ff0 	cmp.w	r3, #4042322160	@ 0xf0f0f0f0
 8006c4c:	d309      	bcc.n	8006c62 <_txe_semaphore_create+0x86>
 8006c4e:	463a      	mov	r2, r7
 8006c50:	4631      	mov	r1, r6
 8006c52:	4620      	mov	r0, r4
 8006c54:	e8bd 40f8 	ldmia.w	sp!, {r3, r4, r5, r6, r7, lr}
 8006c58:	f7ff b986 	b.w	8005f68 <_tx_semaphore_create>
 8006c5c:	696d      	ldr	r5, [r5, #20]
 8006c5e:	3201      	adds	r2, #1
 8006c60:	e7d3      	b.n	8006c0a <_txe_semaphore_create+0x2e>
 8006c62:	2013      	movs	r0, #19
 8006c64:	e7c0      	b.n	8006be8 <_txe_semaphore_create+0xc>
 8006c66:	bf00      	nop
 8006c68:	20003094 	.word	0x20003094
 8006c6c:	20003088 	.word	0x20003088
 8006c70:	20003084 	.word	0x20003084
 8006c74:	2000312c 	.word	0x2000312c
 8006c78:	20003944 	.word	0x20003944
 8006c7c:	2000000c 	.word	0x2000000c

08006c80 <_txe_semaphore_delete>:
 8006c80:	b180      	cbz	r0, 8006ca4 <_txe_semaphore_delete+0x24>
 8006c82:	6802      	ldr	r2, [r0, #0]
 8006c84:	4b09      	ldr	r3, [pc, #36]	@ (8006cac <_txe_semaphore_delete+0x2c>)
 8006c86:	429a      	cmp	r2, r3
 8006c88:	d10c      	bne.n	8006ca4 <_txe_semaphore_delete+0x24>
 8006c8a:	f3ef 8205 	mrs	r2, IPSR
 8006c8e:	4b08      	ldr	r3, [pc, #32]	@ (8006cb0 <_txe_semaphore_delete+0x30>)
 8006c90:	681b      	ldr	r3, [r3, #0]
 8006c92:	4313      	orrs	r3, r2
 8006c94:	d108      	bne.n	8006ca8 <_txe_semaphore_delete+0x28>
 8006c96:	4b07      	ldr	r3, [pc, #28]	@ (8006cb4 <_txe_semaphore_delete+0x34>)
 8006c98:	681a      	ldr	r2, [r3, #0]
 8006c9a:	4b07      	ldr	r3, [pc, #28]	@ (8006cb8 <_txe_semaphore_delete+0x38>)
 8006c9c:	429a      	cmp	r2, r3
 8006c9e:	d003      	beq.n	8006ca8 <_txe_semaphore_delete+0x28>
 8006ca0:	f7ff b98c 	b.w	8005fbc <_tx_semaphore_delete>
 8006ca4:	200c      	movs	r0, #12
 8006ca6:	4770      	bx	lr
 8006ca8:	2013      	movs	r0, #19
 8006caa:	4770      	bx	lr
 8006cac:	53454d41 	.word	0x53454d41
 8006cb0:	2000000c 	.word	0x2000000c
 8006cb4:	2000312c 	.word	0x2000312c
 8006cb8:	20003944 	.word	0x20003944

08006cbc <_txe_semaphore_get>:
 8006cbc:	b188      	cbz	r0, 8006ce2 <_txe_semaphore_get+0x26>
 8006cbe:	6802      	ldr	r2, [r0, #0]
 8006cc0:	4b0a      	ldr	r3, [pc, #40]	@ (8006cec <_txe_semaphore_get+0x30>)
 8006cc2:	429a      	cmp	r2, r3
 8006cc4:	d10d      	bne.n	8006ce2 <_txe_semaphore_get+0x26>
 8006cc6:	b151      	cbz	r1, 8006cde <_txe_semaphore_get+0x22>
 8006cc8:	f3ef 8205 	mrs	r2, IPSR
 8006ccc:	4b08      	ldr	r3, [pc, #32]	@ (8006cf0 <_txe_semaphore_get+0x34>)
 8006cce:	681b      	ldr	r3, [r3, #0]
 8006cd0:	4313      	orrs	r3, r2
 8006cd2:	d108      	bne.n	8006ce6 <_txe_semaphore_get+0x2a>
 8006cd4:	4b07      	ldr	r3, [pc, #28]	@ (8006cf4 <_txe_semaphore_get+0x38>)
 8006cd6:	681a      	ldr	r2, [r3, #0]
 8006cd8:	4b07      	ldr	r3, [pc, #28]	@ (8006cf8 <_txe_semaphore_get+0x3c>)
 8006cda:	429a      	cmp	r2, r3
 8006cdc:	d003      	beq.n	8006ce6 <_txe_semaphore_get+0x2a>
 8006cde:	f7ff b9b7 	b.w	8006050 <_tx_semaphore_get>
 8006ce2:	200c      	movs	r0, #12
 8006ce4:	4770      	bx	lr
 8006ce6:	2004      	movs	r0, #4
 8006ce8:	4770      	bx	lr
 8006cea:	bf00      	nop
 8006cec:	53454d41 	.word	0x53454d41
 8006cf0:	2000000c 	.word	0x2000000c
 8006cf4:	2000312c 	.word	0x2000312c
 8006cf8:	20003944 	.word	0x20003944

08006cfc <_txe_semaphore_put>:
 8006cfc:	b128      	cbz	r0, 8006d0a <_txe_semaphore_put+0xe>
 8006cfe:	6802      	ldr	r2, [r0, #0]
 8006d00:	4b03      	ldr	r3, [pc, #12]	@ (8006d10 <_txe_semaphore_put+0x14>)
 8006d02:	429a      	cmp	r2, r3
 8006d04:	d101      	bne.n	8006d0a <_txe_semaphore_put+0xe>
 8006d06:	f7ff b9e5 	b.w	80060d4 <_tx_semaphore_put>
 8006d0a:	200c      	movs	r0, #12
 8006d0c:	4770      	bx	lr
 8006d0e:	bf00      	nop
 8006d10:	53454d41 	.word	0x53454d41

08006d14 <_txe_thread_create>:
 8006d14:	e92d 4ff0 	stmdb	sp!, {r4, r5, r6, r7, r8, r9, sl, fp, lr}
 8006d18:	b085      	sub	sp, #20
 8006d1a:	9302      	str	r3, [sp, #8]
 8006d1c:	9b12      	ldr	r3, [sp, #72]	@ 0x48
 8006d1e:	4617      	mov	r7, r2
 8006d20:	e9dd 480e 	ldrd	r4, r8, [sp, #56]	@ 0x38
 8006d24:	e9dd 9a10 	ldrd	r9, sl, [sp, #64]	@ 0x40
 8006d28:	9303      	str	r3, [sp, #12]
 8006d2a:	4606      	mov	r6, r0
 8006d2c:	e9dd b313 	ldrd	fp, r3, [sp, #76]	@ 0x4c
 8006d30:	9101      	str	r1, [sp, #4]
 8006d32:	b918      	cbnz	r0, 8006d3c <_txe_thread_create+0x28>
 8006d34:	200e      	movs	r0, #14
 8006d36:	b005      	add	sp, #20
 8006d38:	e8bd 8ff0 	ldmia.w	sp!, {r4, r5, r6, r7, r8, r9, sl, fp, pc}
 8006d3c:	2bb0      	cmp	r3, #176	@ 0xb0
 8006d3e:	d1f9      	bne.n	8006d34 <_txe_thread_create+0x20>
 8006d40:	f3ef 8110 	mrs	r1, PRIMASK
 8006d44:	b672      	cpsid	i
 8006d46:	4a3c      	ldr	r2, [pc, #240]	@ (8006e38 <_txe_thread_create+0x124>)
 8006d48:	6813      	ldr	r3, [r2, #0]
 8006d4a:	3301      	adds	r3, #1
 8006d4c:	6013      	str	r3, [r2, #0]
 8006d4e:	f381 8810 	msr	PRIMASK, r1
 8006d52:	4b3a      	ldr	r3, [pc, #232]	@ (8006e3c <_txe_thread_create+0x128>)
 8006d54:	f108 30ff 	add.w	r0, r8, #4294967295
 8006d58:	681d      	ldr	r5, [r3, #0]
 8006d5a:	4b39      	ldr	r3, [pc, #228]	@ (8006e40 <_txe_thread_create+0x12c>)
 8006d5c:	4420      	add	r0, r4
 8006d5e:	f8d3 c000 	ldr.w	ip, [r3]
 8006d62:	2300      	movs	r3, #0
 8006d64:	461a      	mov	r2, r3
 8006d66:	459c      	cmp	ip, r3
 8006d68:	d001      	beq.n	8006d6e <_txe_thread_create+0x5a>
 8006d6a:	42b5      	cmp	r5, r6
 8006d6c:	d141      	bne.n	8006df2 <_txe_thread_create+0xde>
 8006d6e:	f3ef 8110 	mrs	r1, PRIMASK
 8006d72:	b672      	cpsid	i
 8006d74:	4a30      	ldr	r2, [pc, #192]	@ (8006e38 <_txe_thread_create+0x124>)
 8006d76:	6813      	ldr	r3, [r2, #0]
 8006d78:	3b01      	subs	r3, #1
 8006d7a:	6013      	str	r3, [r2, #0]
 8006d7c:	f381 8810 	msr	PRIMASK, r1
 8006d80:	f7ff fb2e 	bl	80063e0 <_tx_thread_system_preempt_check>
 8006d84:	42b5      	cmp	r5, r6
 8006d86:	d0d5      	beq.n	8006d34 <_txe_thread_create+0x20>
 8006d88:	2c00      	cmp	r4, #0
 8006d8a:	d048      	beq.n	8006e1e <_txe_thread_create+0x10a>
 8006d8c:	2f00      	cmp	r7, #0
 8006d8e:	d046      	beq.n	8006e1e <_txe_thread_create+0x10a>
 8006d90:	f1b8 0fc7 	cmp.w	r8, #199	@ 0xc7
 8006d94:	d945      	bls.n	8006e22 <_txe_thread_create+0x10e>
 8006d96:	f1b9 0f1f 	cmp.w	r9, #31
 8006d9a:	d844      	bhi.n	8006e26 <_txe_thread_create+0x112>
 8006d9c:	45d1      	cmp	r9, sl
 8006d9e:	d344      	bcc.n	8006e2a <_txe_thread_create+0x116>
 8006da0:	f1bb 0f01 	cmp.w	fp, #1
 8006da4:	d843      	bhi.n	8006e2e <_txe_thread_create+0x11a>
 8006da6:	4b27      	ldr	r3, [pc, #156]	@ (8006e44 <_txe_thread_create+0x130>)
 8006da8:	4a27      	ldr	r2, [pc, #156]	@ (8006e48 <_txe_thread_create+0x134>)
 8006daa:	681b      	ldr	r3, [r3, #0]
 8006dac:	4293      	cmp	r3, r2
 8006dae:	bf0c      	ite	eq
 8006db0:	2313      	moveq	r3, #19
 8006db2:	2300      	movne	r3, #0
 8006db4:	f3ef 8005 	mrs	r0, IPSR
 8006db8:	4a24      	ldr	r2, [pc, #144]	@ (8006e4c <_txe_thread_create+0x138>)
 8006dba:	6811      	ldr	r1, [r2, #0]
 8006dbc:	4301      	orrs	r1, r0
 8006dbe:	d006      	beq.n	8006dce <_txe_thread_create+0xba>
 8006dc0:	f3ef 8105 	mrs	r1, IPSR
 8006dc4:	6812      	ldr	r2, [r2, #0]
 8006dc6:	430a      	orrs	r2, r1
 8006dc8:	f1b2 3ff0 	cmp.w	r2, #4042322160	@ 0xf0f0f0f0
 8006dcc:	d331      	bcc.n	8006e32 <_txe_thread_create+0x11e>
 8006dce:	bb83      	cbnz	r3, 8006e32 <_txe_thread_create+0x11e>
 8006dd0:	463a      	mov	r2, r7
 8006dd2:	4630      	mov	r0, r6
 8006dd4:	9b03      	ldr	r3, [sp, #12]
 8006dd6:	9901      	ldr	r1, [sp, #4]
 8006dd8:	e9cd a311 	strd	sl, r3, [sp, #68]	@ 0x44
 8006ddc:	9b02      	ldr	r3, [sp, #8]
 8006dde:	e9cd 890f 	strd	r8, r9, [sp, #60]	@ 0x3c
 8006de2:	f8cd b04c 	str.w	fp, [sp, #76]	@ 0x4c
 8006de6:	940e      	str	r4, [sp, #56]	@ 0x38
 8006de8:	b005      	add	sp, #20
 8006dea:	e8bd 4ff0 	ldmia.w	sp!, {r4, r5, r6, r7, r8, r9, sl, fp, lr}
 8006dee:	f7ff b999 	b.w	8006124 <_tx_thread_create>
 8006df2:	2a01      	cmp	r2, #1
 8006df4:	d0bb      	beq.n	8006d6e <_txe_thread_create+0x5a>
 8006df6:	f8d5 e00c 	ldr.w	lr, [r5, #12]
 8006dfa:	45a6      	cmp	lr, r4
 8006dfc:	d804      	bhi.n	8006e08 <_txe_thread_create+0xf4>
 8006dfe:	6929      	ldr	r1, [r5, #16]
 8006e00:	42a1      	cmp	r1, r4
 8006e02:	bf84      	itt	hi
 8006e04:	2201      	movhi	r2, #1
 8006e06:	2400      	movhi	r4, #0
 8006e08:	4586      	cmp	lr, r0
 8006e0a:	d804      	bhi.n	8006e16 <_txe_thread_create+0x102>
 8006e0c:	6929      	ldr	r1, [r5, #16]
 8006e0e:	4281      	cmp	r1, r0
 8006e10:	bf84      	itt	hi
 8006e12:	2201      	movhi	r2, #1
 8006e14:	2400      	movhi	r4, #0
 8006e16:	f8d5 5088 	ldr.w	r5, [r5, #136]	@ 0x88
 8006e1a:	3301      	adds	r3, #1
 8006e1c:	e7a3      	b.n	8006d66 <_txe_thread_create+0x52>
 8006e1e:	2003      	movs	r0, #3
 8006e20:	e789      	b.n	8006d36 <_txe_thread_create+0x22>
 8006e22:	2005      	movs	r0, #5
 8006e24:	e787      	b.n	8006d36 <_txe_thread_create+0x22>
 8006e26:	200f      	movs	r0, #15
 8006e28:	e785      	b.n	8006d36 <_txe_thread_create+0x22>
 8006e2a:	2018      	movs	r0, #24
 8006e2c:	e783      	b.n	8006d36 <_txe_thread_create+0x22>
 8006e2e:	2010      	movs	r0, #16
 8006e30:	e781      	b.n	8006d36 <_txe_thread_create+0x22>
 8006e32:	2013      	movs	r0, #19
 8006e34:	e77f      	b.n	8006d36 <_txe_thread_create+0x22>
 8006e36:	bf00      	nop
 8006e38:	20003094 	.word	0x20003094
 8006e3c:	20003124 	.word	0x20003124
 8006e40:	20003120 	.word	0x20003120
 8006e44:	2000312c 	.word	0x2000312c
 8006e48:	20003944 	.word	0x20003944
 8006e4c:	2000000c 	.word	0x2000000c

08006e50 <_txe_thread_info_get>:
 8006e50:	e92d 41f0 	stmdb	sp!, {r4, r5, r6, r7, r8, lr}
 8006e54:	f8dd e028 	ldr.w	lr, [sp, #40]	@ 0x28
 8006e58:	e9dd 5606 	ldrd	r5, r6, [sp, #24]
 8006e5c:	e9dd 7c08 	ldrd	r7, ip, [sp, #32]
 8006e60:	b168      	cbz	r0, 8006e7e <_txe_thread_info_get+0x2e>
 8006e62:	f8d0 8000 	ldr.w	r8, [r0]
 8006e66:	4c07      	ldr	r4, [pc, #28]	@ (8006e84 <_txe_thread_info_get+0x34>)
 8006e68:	45a0      	cmp	r8, r4
 8006e6a:	d108      	bne.n	8006e7e <_txe_thread_info_get+0x2e>
 8006e6c:	e9cd ce09 	strd	ip, lr, [sp, #36]	@ 0x24
 8006e70:	e9cd 6707 	strd	r6, r7, [sp, #28]
 8006e74:	9506      	str	r5, [sp, #24]
 8006e76:	e8bd 41f0 	ldmia.w	sp!, {r4, r5, r6, r7, r8, lr}
 8006e7a:	f7ff b9ed 	b.w	8006258 <_tx_thread_info_get>
 8006e7e:	200e      	movs	r0, #14
 8006e80:	e8bd 81f0 	ldmia.w	sp!, {r4, r5, r6, r7, r8, pc}
 8006e84:	54485244 	.word	0x54485244

08006e88 <_ux_device_stack_alternate_setting_get>:
 8006e88:	4b0d      	ldr	r3, [pc, #52]	@ (8006ec0 <_ux_device_stack_alternate_setting_get+0x38>)
 8006e8a:	681b      	ldr	r3, [r3, #0]
 8006e8c:	6a1a      	ldr	r2, [r3, #32]
 8006e8e:	2a03      	cmp	r2, #3
 8006e90:	d102      	bne.n	8006e98 <_ux_device_stack_alternate_setting_get+0x10>
 8006e92:	f8d3 20c8 	ldr.w	r2, [r3, #200]	@ 0xc8
 8006e96:	b90a      	cbnz	r2, 8006e9c <_ux_device_stack_alternate_setting_get+0x14>
 8006e98:	20ff      	movs	r0, #255	@ 0xff
 8006e9a:	4770      	bx	lr
 8006e9c:	7b91      	ldrb	r1, [r2, #14]
 8006e9e:	4281      	cmp	r1, r0
 8006ea0:	d10c      	bne.n	8006ebc <_ux_device_stack_alternate_setting_get+0x34>
 8006ea2:	7bd2      	ldrb	r2, [r2, #15]
 8006ea4:	6e59      	ldr	r1, [r3, #100]	@ 0x64
 8006ea6:	f103 0058 	add.w	r0, r3, #88	@ 0x58
 8006eaa:	700a      	strb	r2, [r1, #0]
 8006eac:	2201      	movs	r2, #1
 8006eae:	2103      	movs	r1, #3
 8006eb0:	66da      	str	r2, [r3, #108]	@ 0x6c
 8006eb2:	f8c3 1080 	str.w	r1, [r3, #128]	@ 0x80
 8006eb6:	4611      	mov	r1, r2
 8006eb8:	f000 bedc 	b.w	8007c74 <_ux_device_stack_transfer_request>
 8006ebc:	6992      	ldr	r2, [r2, #24]
 8006ebe:	e7ea      	b.n	8006e96 <_ux_device_stack_alternate_setting_get+0xe>
 8006ec0:	20003a98 	.word	0x20003a98

08006ec4 <_ux_device_stack_alternate_setting_set>:
 8006ec4:	e92d 4ff0 	stmdb	sp!, {r4, r5, r6, r7, r8, r9, sl, fp, lr}
 8006ec8:	f8df a1e8 	ldr.w	sl, [pc, #488]	@ 80070b4 <_ux_device_stack_alternate_setting_set+0x1f0>
 8006ecc:	4605      	mov	r5, r0
 8006ece:	f8da 7000 	ldr.w	r7, [sl]
 8006ed2:	4689      	mov	r9, r1
 8006ed4:	6a3b      	ldr	r3, [r7, #32]
 8006ed6:	b093      	sub	sp, #76	@ 0x4c
 8006ed8:	2b03      	cmp	r3, #3
 8006eda:	f040 80de 	bne.w	800709a <_ux_device_stack_alternate_setting_set+0x1d6>
 8006ede:	f8d7 60c8 	ldr.w	r6, [r7, #200]	@ 0xc8
 8006ee2:	b946      	cbnz	r6, 8006ef6 <_ux_device_stack_alternate_setting_set+0x32>
 8006ee4:	2002      	movs	r0, #2
 8006ee6:	2252      	movs	r2, #82	@ 0x52
 8006ee8:	2107      	movs	r1, #7
 8006eea:	f000 ff15 	bl	8007d18 <_ux_system_error_handler>
 8006eee:	2052      	movs	r0, #82	@ 0x52
 8006ef0:	b013      	add	sp, #76	@ 0x4c
 8006ef2:	e8bd 8ff0 	ldmia.w	sp!, {r4, r5, r6, r7, r8, r9, sl, fp, pc}
 8006ef6:	7bb3      	ldrb	r3, [r6, #14]
 8006ef8:	42ab      	cmp	r3, r5
 8006efa:	d001      	beq.n	8006f00 <_ux_device_stack_alternate_setting_set+0x3c>
 8006efc:	69b6      	ldr	r6, [r6, #24]
 8006efe:	e7f0      	b.n	8006ee2 <_ux_device_stack_alternate_setting_set+0x1e>
 8006f00:	7bf3      	ldrb	r3, [r6, #15]
 8006f02:	454b      	cmp	r3, r9
 8006f04:	f000 80cb 	beq.w	800709e <_ux_device_stack_alternate_setting_set+0x1da>
 8006f08:	e9d7 4838 	ldrd	r4, r8, [r7, #224]	@ 0xe0
 8006f0c:	4966      	ldr	r1, [pc, #408]	@ (80070a8 <_ux_device_stack_alternate_setting_set+0x1e4>)
 8006f0e:	f1b8 0f00 	cmp.w	r8, #0
 8006f12:	d018      	beq.n	8006f46 <_ux_device_stack_alternate_setting_set+0x82>
 8006f14:	7863      	ldrb	r3, [r4, #1]
 8006f16:	f894 b000 	ldrb.w	fp, [r4]
 8006f1a:	2b02      	cmp	r3, #2
 8006f1c:	f040 80b9 	bne.w	8007092 <_ux_device_stack_alternate_setting_set+0x1ce>
 8006f20:	2208      	movs	r2, #8
 8006f22:	ab01      	add	r3, sp, #4
 8006f24:	4620      	mov	r0, r4
 8006f26:	f000 ff73 	bl	8007e10 <_ux_utility_descriptor_parse>
 8006f2a:	f89d 2009 	ldrb.w	r2, [sp, #9]
 8006f2e:	f8d7 30b8 	ldr.w	r3, [r7, #184]	@ 0xb8
 8006f32:	495d      	ldr	r1, [pc, #372]	@ (80070a8 <_ux_device_stack_alternate_setting_set+0x1e4>)
 8006f34:	429a      	cmp	r2, r3
 8006f36:	f040 80ac 	bne.w	8007092 <_ux_device_stack_alternate_setting_set+0x1ce>
 8006f3a:	f8bd 8006 	ldrh.w	r8, [sp, #6]
 8006f3e:	495b      	ldr	r1, [pc, #364]	@ (80070ac <_ux_device_stack_alternate_setting_set+0x1e8>)
 8006f40:	f1b8 0f00 	cmp.w	r8, #0
 8006f44:	d101      	bne.n	8006f4a <_ux_device_stack_alternate_setting_set+0x86>
 8006f46:	20ff      	movs	r0, #255	@ 0xff
 8006f48:	e7d2      	b.n	8006ef0 <_ux_device_stack_alternate_setting_set+0x2c>
 8006f4a:	7863      	ldrb	r3, [r4, #1]
 8006f4c:	f894 b000 	ldrb.w	fp, [r4]
 8006f50:	2b04      	cmp	r3, #4
 8006f52:	f040 809a 	bne.w	800708a <_ux_device_stack_alternate_setting_set+0x1c6>
 8006f56:	ab04      	add	r3, sp, #16
 8006f58:	2209      	movs	r2, #9
 8006f5a:	4620      	mov	r0, r4
 8006f5c:	f000 ff58 	bl	8007e10 <_ux_utility_descriptor_parse>
 8006f60:	f89d 3012 	ldrb.w	r3, [sp, #18]
 8006f64:	4951      	ldr	r1, [pc, #324]	@ (80070ac <_ux_device_stack_alternate_setting_set+0x1e8>)
 8006f66:	42ab      	cmp	r3, r5
 8006f68:	f040 808f 	bne.w	800708a <_ux_device_stack_alternate_setting_set+0x1c6>
 8006f6c:	f89d 3013 	ldrb.w	r3, [sp, #19]
 8006f70:	454b      	cmp	r3, r9
 8006f72:	f040 808a 	bne.w	800708a <_ux_device_stack_alternate_setting_set+0x1c6>
 8006f76:	f04f 0900 	mov.w	r9, #0
 8006f7a:	69f5      	ldr	r5, [r6, #28]
 8006f7c:	bb25      	cbnz	r5, 8006fc8 <_ux_device_stack_alternate_setting_set+0x104>
 8006f7e:	61f5      	str	r5, [r6, #28]
 8006f80:	7823      	ldrb	r3, [r4, #0]
 8006f82:	f107 0b20 	add.w	fp, r7, #32
 8006f86:	eba8 0803 	sub.w	r8, r8, r3
 8006f8a:	441c      	add	r4, r3
 8006f8c:	f1b8 0f00 	cmp.w	r8, #0
 8006f90:	d12c      	bne.n	8006fec <_ux_device_stack_alternate_setting_set+0x128>
 8006f92:	220c      	movs	r2, #12
 8006f94:	a904      	add	r1, sp, #16
 8006f96:	18b0      	adds	r0, r6, r2
 8006f98:	f001 f850 	bl	800803c <_ux_utility_memory_copy>
 8006f9c:	f8da 3000 	ldr.w	r3, [sl]
 8006fa0:	7bb2      	ldrb	r2, [r6, #14]
 8006fa2:	eb03 0382 	add.w	r3, r3, r2, lsl #2
 8006fa6:	f8d3 3114 	ldr.w	r3, [r3, #276]	@ 0x114
 8006faa:	2b00      	cmp	r3, #0
 8006fac:	d079      	beq.n	80070a2 <_ux_device_stack_alternate_setting_set+0x1de>
 8006fae:	6c1a      	ldr	r2, [r3, #64]	@ 0x40
 8006fb0:	2a00      	cmp	r2, #0
 8006fb2:	d076      	beq.n	80070a2 <_ux_device_stack_alternate_setting_set+0x1de>
 8006fb4:	2206      	movs	r2, #6
 8006fb6:	930f      	str	r3, [sp, #60]	@ 0x3c
 8006fb8:	f8c3 6110 	str.w	r6, [r3, #272]	@ 0x110
 8006fbc:	9207      	str	r2, [sp, #28]
 8006fbe:	6c5b      	ldr	r3, [r3, #68]	@ 0x44
 8006fc0:	9609      	str	r6, [sp, #36]	@ 0x24
 8006fc2:	a807      	add	r0, sp, #28
 8006fc4:	4798      	blx	r3
 8006fc6:	e793      	b.n	8006ef0 <_ux_device_stack_alternate_setting_set+0x2c>
 8006fc8:	2126      	movs	r1, #38	@ 0x26
 8006fca:	4628      	mov	r0, r5
 8006fcc:	f000 fe4c 	bl	8007c68 <_ux_device_stack_transfer_all_request_abort>
 8006fd0:	462a      	mov	r2, r5
 8006fd2:	69bb      	ldr	r3, [r7, #24]
 8006fd4:	210f      	movs	r1, #15
 8006fd6:	4638      	mov	r0, r7
 8006fd8:	4798      	blx	r3
 8006fda:	696b      	ldr	r3, [r5, #20]
 8006fdc:	e9c5 9900 	strd	r9, r9, [r5]
 8006fe0:	e9c5 9905 	strd	r9, r9, [r5, #20]
 8006fe4:	f8c5 901c 	str.w	r9, [r5, #28]
 8006fe8:	461d      	mov	r5, r3
 8006fea:	e7c7      	b.n	8006f7c <_ux_device_stack_alternate_setting_set+0xb8>
 8006fec:	7863      	ldrb	r3, [r4, #1]
 8006fee:	f894 9000 	ldrb.w	r9, [r4]
 8006ff2:	2b04      	cmp	r3, #4
 8006ff4:	d047      	beq.n	8007086 <_ux_device_stack_alternate_setting_set+0x1c2>
 8006ff6:	2b05      	cmp	r3, #5
 8006ff8:	d006      	beq.n	8007008 <_ux_device_stack_alternate_setting_set+0x144>
 8006ffa:	2b02      	cmp	r3, #2
 8006ffc:	bf08      	it	eq
 8006ffe:	46c8      	moveq	r8, r9
 8007000:	eba8 0809 	sub.w	r8, r8, r9
 8007004:	444c      	add	r4, r9
 8007006:	e7c1      	b.n	8006f8c <_ux_device_stack_alternate_setting_set+0xc8>
 8007008:	e9d7 5335 	ldrd	r5, r3, [r7, #212]	@ 0xd4
 800700c:	b90b      	cbnz	r3, 8007012 <_ux_device_stack_alternate_setting_set+0x14e>
 800700e:	2012      	movs	r0, #18
 8007010:	e76e      	b.n	8006ef0 <_ux_device_stack_alternate_setting_set+0x2c>
 8007012:	682a      	ldr	r2, [r5, #0]
 8007014:	bb52      	cbnz	r2, 800706c <_ux_device_stack_alternate_setting_set+0x1a8>
 8007016:	462b      	mov	r3, r5
 8007018:	2201      	movs	r2, #1
 800701a:	4925      	ldr	r1, [pc, #148]	@ (80070b0 <_ux_device_stack_alternate_setting_set+0x1ec>)
 800701c:	f843 2b0c 	str.w	r2, [r3], #12
 8007020:	4620      	mov	r0, r4
 8007022:	2206      	movs	r2, #6
 8007024:	f000 fef4 	bl	8007e10 <_ux_utility_descriptor_parse>
 8007028:	f8da 1000 	ldr.w	r1, [sl]
 800702c:	8a2b      	ldrh	r3, [r5, #16]
 800702e:	f8d1 1154 	ldr.w	r1, [r1, #340]	@ 0x154
 8007032:	f3c3 020a 	ubfx	r2, r3, #0, #11
 8007036:	2902      	cmp	r1, #2
 8007038:	d108      	bne.n	800704c <_ux_device_stack_alternate_setting_set+0x188>
 800703a:	7be9      	ldrb	r1, [r5, #15]
 800703c:	07c9      	lsls	r1, r1, #31
 800703e:	d505      	bpl.n	800704c <_ux_device_stack_alternate_setting_set+0x188>
 8007040:	f413 53c0 	ands.w	r3, r3, #6144	@ 0x1800
 8007044:	bf1c      	itt	ne
 8007046:	0adb      	lsrne	r3, r3, #11
 8007048:	fb03 2202 	mlane	r2, r3, r2, r2
 800704c:	f04f 33ff 	mov.w	r3, #4294967295
 8007050:	642a      	str	r2, [r5, #64]	@ 0x40
 8007052:	66eb      	str	r3, [r5, #108]	@ 0x6c
 8007054:	462a      	mov	r2, r5
 8007056:	210e      	movs	r1, #14
 8007058:	4638      	mov	r0, r7
 800705a:	e9c5 6b06 	strd	r6, fp, [r5, #24]
 800705e:	69bb      	ldr	r3, [r7, #24]
 8007060:	62ad      	str	r5, [r5, #40]	@ 0x28
 8007062:	4798      	blx	r3
 8007064:	b128      	cbz	r0, 8007072 <_ux_device_stack_alternate_setting_set+0x1ae>
 8007066:	2300      	movs	r3, #0
 8007068:	602b      	str	r3, [r5, #0]
 800706a:	e741      	b.n	8006ef0 <_ux_device_stack_alternate_setting_set+0x2c>
 800706c:	3580      	adds	r5, #128	@ 0x80
 800706e:	3b01      	subs	r3, #1
 8007070:	e7cc      	b.n	800700c <_ux_device_stack_alternate_setting_set+0x148>
 8007072:	69f3      	ldr	r3, [r6, #28]
 8007074:	b90b      	cbnz	r3, 800707a <_ux_device_stack_alternate_setting_set+0x1b6>
 8007076:	61f5      	str	r5, [r6, #28]
 8007078:	e7c2      	b.n	8007000 <_ux_device_stack_alternate_setting_set+0x13c>
 800707a:	461a      	mov	r2, r3
 800707c:	695b      	ldr	r3, [r3, #20]
 800707e:	2b00      	cmp	r3, #0
 8007080:	d1fb      	bne.n	800707a <_ux_device_stack_alternate_setting_set+0x1b6>
 8007082:	6155      	str	r5, [r2, #20]
 8007084:	e7bc      	b.n	8007000 <_ux_device_stack_alternate_setting_set+0x13c>
 8007086:	46c8      	mov	r8, r9
 8007088:	e7ba      	b.n	8007000 <_ux_device_stack_alternate_setting_set+0x13c>
 800708a:	eba8 080b 	sub.w	r8, r8, fp
 800708e:	445c      	add	r4, fp
 8007090:	e756      	b.n	8006f40 <_ux_device_stack_alternate_setting_set+0x7c>
 8007092:	eba8 080b 	sub.w	r8, r8, fp
 8007096:	445c      	add	r4, fp
 8007098:	e739      	b.n	8006f0e <_ux_device_stack_alternate_setting_set+0x4a>
 800709a:	2054      	movs	r0, #84	@ 0x54
 800709c:	e728      	b.n	8006ef0 <_ux_device_stack_alternate_setting_set+0x2c>
 800709e:	2000      	movs	r0, #0
 80070a0:	e726      	b.n	8006ef0 <_ux_device_stack_alternate_setting_set+0x2c>
 80070a2:	2057      	movs	r0, #87	@ 0x57
 80070a4:	e724      	b.n	8006ef0 <_ux_device_stack_alternate_setting_set+0x2c>
 80070a6:	bf00      	nop
 80070a8:	20000034 	.word	0x20000034
 80070ac:	2000002b 	.word	0x2000002b
 80070b0:	2000004a 	.word	0x2000004a
 80070b4:	20003a98 	.word	0x20003a98

080070b8 <_ux_device_stack_class_register>:
 80070b8:	e92d 43f0 	stmdb	sp!, {r4, r5, r6, r7, r8, r9, lr}
 80070bc:	461e      	mov	r6, r3
 80070be:	2300      	movs	r3, #0
 80070c0:	b08d      	sub	sp, #52	@ 0x34
 80070c2:	460d      	mov	r5, r1
 80070c4:	4617      	mov	r7, r2
 80070c6:	4669      	mov	r1, sp
 80070c8:	223f      	movs	r2, #63	@ 0x3f
 80070ca:	4680      	mov	r8, r0
 80070cc:	f8dd 9050 	ldr.w	r9, [sp, #80]	@ 0x50
 80070d0:	9300      	str	r3, [sp, #0]
 80070d2:	f001 f855 	bl	8008180 <_ux_utility_string_length_check>
 80070d6:	b9c8      	cbnz	r0, 800710c <_ux_device_stack_class_register+0x54>
 80070d8:	4b0f      	ldr	r3, [pc, #60]	@ (8007118 <_ux_device_stack_class_register+0x60>)
 80070da:	681b      	ldr	r3, [r3, #0]
 80070dc:	f8d3 4110 	ldr.w	r4, [r3, #272]	@ 0x110
 80070e0:	6c23      	ldr	r3, [r4, #64]	@ 0x40
 80070e2:	b9b3      	cbnz	r3, 8007112 <_ux_device_stack_class_register+0x5a>
 80070e4:	9a00      	ldr	r2, [sp, #0]
 80070e6:	4620      	mov	r0, r4
 80070e8:	4641      	mov	r1, r8
 80070ea:	3201      	adds	r2, #1
 80070ec:	f000 ffa6 	bl	800803c <_ux_utility_memory_copy>
 80070f0:	2305      	movs	r3, #5
 80070f2:	e9c4 6742 	strd	r6, r7, [r4, #264]	@ 0x108
 80070f6:	6465      	str	r5, [r4, #68]	@ 0x44
 80070f8:	f8c4 9104 	str.w	r9, [r4, #260]	@ 0x104
 80070fc:	a801      	add	r0, sp, #4
 80070fe:	e9cd 4909 	strd	r4, r9, [sp, #36]	@ 0x24
 8007102:	9301      	str	r3, [sp, #4]
 8007104:	47a8      	blx	r5
 8007106:	b908      	cbnz	r0, 800710c <_ux_device_stack_class_register+0x54>
 8007108:	2301      	movs	r3, #1
 800710a:	6423      	str	r3, [r4, #64]	@ 0x40
 800710c:	b00d      	add	sp, #52	@ 0x34
 800710e:	e8bd 83f0 	ldmia.w	sp!, {r4, r5, r6, r7, r8, r9, pc}
 8007112:	2012      	movs	r0, #18
 8007114:	e7fa      	b.n	800710c <_ux_device_stack_class_register+0x54>
 8007116:	bf00      	nop
 8007118:	20003a98 	.word	0x20003a98

0800711c <_ux_device_stack_clear_feature>:
 800711c:	4603      	mov	r3, r0
 800711e:	4816      	ldr	r0, [pc, #88]	@ (8007178 <_ux_device_stack_clear_feature+0x5c>)
 8007120:	f013 0303 	ands.w	r3, r3, #3
 8007124:	b510      	push	{r4, lr}
 8007126:	6800      	ldr	r0, [r0, #0]
 8007128:	d007      	beq.n	800713a <_ux_device_stack_clear_feature+0x1e>
 800712a:	2b02      	cmp	r3, #2
 800712c:	d00e      	beq.n	800714c <_ux_device_stack_clear_feature+0x30>
 800712e:	2114      	movs	r1, #20
 8007130:	6983      	ldr	r3, [r0, #24]
 8007132:	f100 0238 	add.w	r2, r0, #56	@ 0x38
 8007136:	4798      	blx	r3
 8007138:	e006      	b.n	8007148 <_ux_device_stack_clear_feature+0x2c>
 800713a:	2901      	cmp	r1, #1
 800713c:	d104      	bne.n	8007148 <_ux_device_stack_clear_feature+0x2c>
 800713e:	f8d0 215c 	ldr.w	r2, [r0, #348]	@ 0x15c
 8007142:	b1ba      	cbz	r2, 8007174 <_ux_device_stack_clear_feature+0x58>
 8007144:	f8c0 3160 	str.w	r3, [r0, #352]	@ 0x160
 8007148:	2000      	movs	r0, #0
 800714a:	bd10      	pop	{r4, pc}
 800714c:	f8d0 30c8 	ldr.w	r3, [r0, #200]	@ 0xc8
 8007150:	2b00      	cmp	r3, #0
 8007152:	d0ec      	beq.n	800712e <_ux_device_stack_clear_feature+0x12>
 8007154:	69dc      	ldr	r4, [r3, #28]
 8007156:	b90c      	cbnz	r4, 800715c <_ux_device_stack_clear_feature+0x40>
 8007158:	699b      	ldr	r3, [r3, #24]
 800715a:	e7f9      	b.n	8007150 <_ux_device_stack_clear_feature+0x34>
 800715c:	7ba1      	ldrb	r1, [r4, #14]
 800715e:	4291      	cmp	r1, r2
 8007160:	d106      	bne.n	8007170 <_ux_device_stack_clear_feature+0x54>
 8007162:	6983      	ldr	r3, [r0, #24]
 8007164:	4622      	mov	r2, r4
 8007166:	2110      	movs	r1, #16
 8007168:	4798      	blx	r3
 800716a:	2300      	movs	r3, #0
 800716c:	6063      	str	r3, [r4, #4]
 800716e:	e7eb      	b.n	8007148 <_ux_device_stack_clear_feature+0x2c>
 8007170:	6964      	ldr	r4, [r4, #20]
 8007172:	e7f0      	b.n	8007156 <_ux_device_stack_clear_feature+0x3a>
 8007174:	2054      	movs	r0, #84	@ 0x54
 8007176:	e7e8      	b.n	800714a <_ux_device_stack_clear_feature+0x2e>
 8007178:	20003a98 	.word	0x20003a98

0800717c <_ux_device_stack_configuration_get>:
 800717c:	4b06      	ldr	r3, [pc, #24]	@ (8007198 <_ux_device_stack_configuration_get+0x1c>)
 800717e:	6818      	ldr	r0, [r3, #0]
 8007180:	6e43      	ldr	r3, [r0, #100]	@ 0x64
 8007182:	f8d0 20b8 	ldr.w	r2, [r0, #184]	@ 0xb8
 8007186:	3058      	adds	r0, #88	@ 0x58
 8007188:	701a      	strb	r2, [r3, #0]
 800718a:	2303      	movs	r3, #3
 800718c:	2201      	movs	r2, #1
 800718e:	6283      	str	r3, [r0, #40]	@ 0x28
 8007190:	4611      	mov	r1, r2
 8007192:	f000 bd6f 	b.w	8007c74 <_ux_device_stack_transfer_request>
 8007196:	bf00      	nop
 8007198:	20003a98 	.word	0x20003a98

0800719c <_ux_device_stack_configuration_set>:
 800719c:	2300      	movs	r3, #0
 800719e:	e92d 4ff0 	stmdb	sp!, {r4, r5, r6, r7, r8, r9, sl, fp, lr}
 80071a2:	f8df b1ac 	ldr.w	fp, [pc, #428]	@ 8007350 <_ux_device_stack_configuration_set+0x1b4>
 80071a6:	b095      	sub	sp, #84	@ 0x54
 80071a8:	f8db 4000 	ldr.w	r4, [fp]
 80071ac:	e9cd 3303 	strd	r3, r3, [sp, #12]
 80071b0:	9305      	str	r3, [sp, #20]
 80071b2:	f8d4 30b8 	ldr.w	r3, [r4, #184]	@ 0xb8
 80071b6:	4607      	mov	r7, r0
 80071b8:	4283      	cmp	r3, r0
 80071ba:	d04e      	beq.n	800725a <_ux_device_stack_configuration_set+0xbe>
 80071bc:	e9d4 5638 	ldrd	r5, r6, [r4, #224]	@ 0xe0
 80071c0:	f8df 9184 	ldr.w	r9, [pc, #388]	@ 8007348 <_ux_device_stack_configuration_set+0x1ac>
 80071c4:	b916      	cbnz	r6, 80071cc <_ux_device_stack_configuration_set+0x30>
 80071c6:	b1a7      	cbz	r7, 80071f2 <_ux_device_stack_configuration_set+0x56>
 80071c8:	20ff      	movs	r0, #255	@ 0xff
 80071ca:	e047      	b.n	800725c <_ux_device_stack_configuration_set+0xc0>
 80071cc:	786b      	ldrb	r3, [r5, #1]
 80071ce:	f895 8000 	ldrb.w	r8, [r5]
 80071d2:	2b02      	cmp	r3, #2
 80071d4:	d003      	beq.n	80071de <_ux_device_stack_configuration_set+0x42>
 80071d6:	eba6 0608 	sub.w	r6, r6, r8
 80071da:	4445      	add	r5, r8
 80071dc:	e7f2      	b.n	80071c4 <_ux_device_stack_configuration_set+0x28>
 80071de:	ab03      	add	r3, sp, #12
 80071e0:	2208      	movs	r2, #8
 80071e2:	4649      	mov	r1, r9
 80071e4:	4628      	mov	r0, r5
 80071e6:	f000 fe13 	bl	8007e10 <_ux_utility_descriptor_parse>
 80071ea:	f89d 3011 	ldrb.w	r3, [sp, #17]
 80071ee:	42bb      	cmp	r3, r7
 80071f0:	d1f1      	bne.n	80071d6 <_ux_device_stack_configuration_set+0x3a>
 80071f2:	f8d4 30b8 	ldr.w	r3, [r4, #184]	@ 0xb8
 80071f6:	2b00      	cmp	r3, #0
 80071f8:	d133      	bne.n	8007262 <_ux_device_stack_configuration_set+0xc6>
 80071fa:	2600      	movs	r6, #0
 80071fc:	2201      	movs	r2, #1
 80071fe:	2113      	movs	r1, #19
 8007200:	4620      	mov	r0, r4
 8007202:	69a3      	ldr	r3, [r4, #24]
 8007204:	f8c4 60b8 	str.w	r6, [r4, #184]	@ 0xb8
 8007208:	6222      	str	r2, [r4, #32]
 800720a:	4798      	blx	r3
 800720c:	b32f      	cbz	r7, 800725a <_ux_device_stack_configuration_set+0xbe>
 800720e:	494e      	ldr	r1, [pc, #312]	@ (8007348 <_ux_device_stack_configuration_set+0x1ac>)
 8007210:	2208      	movs	r2, #8
 8007212:	f104 03bc 	add.w	r3, r4, #188	@ 0xbc
 8007216:	4628      	mov	r0, r5
 8007218:	f8c4 70b8 	str.w	r7, [r4, #184]	@ 0xb8
 800721c:	f000 fdf8 	bl	8007e10 <_ux_utility_descriptor_parse>
 8007220:	f89d 3013 	ldrb.w	r3, [sp, #19]
 8007224:	46b1      	mov	r9, r6
 8007226:	f013 0f40 	tst.w	r3, #64	@ 0x40
 800722a:	bf0c      	ite	eq
 800722c:	2101      	moveq	r1, #1
 800722e:	2102      	movne	r1, #2
 8007230:	46b2      	mov	sl, r6
 8007232:	f8db 2000 	ldr.w	r2, [fp]
 8007236:	f3c3 1340 	ubfx	r3, r3, #5, #1
 800723a:	f8bd 800e 	ldrh.w	r8, [sp, #14]
 800723e:	f8c2 1158 	str.w	r1, [r2, #344]	@ 0x158
 8007242:	f8c2 315c 	str.w	r3, [r2, #348]	@ 0x15c
 8007246:	9600      	str	r6, [sp, #0]
 8007248:	f1b8 0f00 	cmp.w	r8, #0
 800724c:	d11f      	bne.n	800728e <_ux_device_stack_configuration_set+0xf2>
 800724e:	2203      	movs	r2, #3
 8007250:	2113      	movs	r1, #19
 8007252:	4620      	mov	r0, r4
 8007254:	69a3      	ldr	r3, [r4, #24]
 8007256:	6222      	str	r2, [r4, #32]
 8007258:	4798      	blx	r3
 800725a:	2000      	movs	r0, #0
 800725c:	b015      	add	sp, #84	@ 0x54
 800725e:	e8bd 8ff0 	ldmia.w	sp!, {r4, r5, r6, r7, r8, r9, sl, fp, pc}
 8007262:	f04f 0803 	mov.w	r8, #3
 8007266:	f8d4 60c8 	ldr.w	r6, [r4, #200]	@ 0xc8
 800726a:	2e00      	cmp	r6, #0
 800726c:	d0c5      	beq.n	80071fa <_ux_device_stack_configuration_set+0x5e>
 800726e:	6873      	ldr	r3, [r6, #4]
 8007270:	f8cd 8024 	str.w	r8, [sp, #36]	@ 0x24
 8007274:	960b      	str	r6, [sp, #44]	@ 0x2c
 8007276:	9311      	str	r3, [sp, #68]	@ 0x44
 8007278:	b113      	cbz	r3, 8007280 <_ux_device_stack_configuration_set+0xe4>
 800727a:	6c5b      	ldr	r3, [r3, #68]	@ 0x44
 800727c:	a809      	add	r0, sp, #36	@ 0x24
 800727e:	4798      	blx	r3
 8007280:	f8d6 9018 	ldr.w	r9, [r6, #24]
 8007284:	4630      	mov	r0, r6
 8007286:	f000 fbcd 	bl	8007a24 <_ux_device_stack_interface_delete>
 800728a:	464e      	mov	r6, r9
 800728c:	e7ed      	b.n	800726a <_ux_device_stack_configuration_set+0xce>
 800728e:	782b      	ldrb	r3, [r5, #0]
 8007290:	9301      	str	r3, [sp, #4]
 8007292:	786b      	ldrb	r3, [r5, #1]
 8007294:	2b0b      	cmp	r3, #11
 8007296:	d109      	bne.n	80072ac <_ux_device_stack_configuration_set+0x110>
 8007298:	f04f 0a01 	mov.w	sl, #1
 800729c:	f895 9002 	ldrb.w	r9, [r5, #2]
 80072a0:	78ee      	ldrb	r6, [r5, #3]
 80072a2:	9b01      	ldr	r3, [sp, #4]
 80072a4:	eba8 0803 	sub.w	r8, r8, r3
 80072a8:	441d      	add	r5, r3
 80072aa:	e7cd      	b.n	8007248 <_ux_device_stack_configuration_set+0xac>
 80072ac:	2b04      	cmp	r3, #4
 80072ae:	d1f8      	bne.n	80072a2 <_ux_device_stack_configuration_set+0x106>
 80072b0:	ab06      	add	r3, sp, #24
 80072b2:	2209      	movs	r2, #9
 80072b4:	4628      	mov	r0, r5
 80072b6:	4925      	ldr	r1, [pc, #148]	@ (800734c <_ux_device_stack_configuration_set+0x1b0>)
 80072b8:	f000 fdaa 	bl	8007e10 <_ux_utility_descriptor_parse>
 80072bc:	f89d 301b 	ldrb.w	r3, [sp, #27]
 80072c0:	2b00      	cmp	r3, #0
 80072c2:	d1ee      	bne.n	80072a2 <_ux_device_stack_configuration_set+0x106>
 80072c4:	f8db 3000 	ldr.w	r3, [fp]
 80072c8:	f1ba 0f00 	cmp.w	sl, #0
 80072cc:	d027      	beq.n	800731e <_ux_device_stack_configuration_set+0x182>
 80072ce:	f89d 201a 	ldrb.w	r2, [sp, #26]
 80072d2:	454a      	cmp	r2, r9
 80072d4:	d11d      	bne.n	8007312 <_ux_device_stack_configuration_set+0x176>
 80072d6:	f8d3 2110 	ldr.w	r2, [r3, #272]	@ 0x110
 80072da:	6c11      	ldr	r1, [r2, #64]	@ 0x40
 80072dc:	2901      	cmp	r1, #1
 80072de:	d10c      	bne.n	80072fa <_ux_device_stack_configuration_set+0x15e>
 80072e0:	f8d2 1108 	ldr.w	r1, [r2, #264]	@ 0x108
 80072e4:	4589      	cmp	r9, r1
 80072e6:	d108      	bne.n	80072fa <_ux_device_stack_configuration_set+0x15e>
 80072e8:	f8d2 110c 	ldr.w	r1, [r2, #268]	@ 0x10c
 80072ec:	42b9      	cmp	r1, r7
 80072ee:	d104      	bne.n	80072fa <_ux_device_stack_configuration_set+0x15e>
 80072f0:	eb03 0389 	add.w	r3, r3, r9, lsl #2
 80072f4:	f8c3 2114 	str.w	r2, [r3, #276]	@ 0x114
 80072f8:	9200      	str	r2, [sp, #0]
 80072fa:	3e01      	subs	r6, #1
 80072fc:	bf14      	ite	ne
 80072fe:	f04f 0a01 	movne.w	sl, #1
 8007302:	f04f 0a00 	moveq.w	sl, #0
 8007306:	2200      	movs	r2, #0
 8007308:	4641      	mov	r1, r8
 800730a:	4628      	mov	r0, r5
 800730c:	f000 fbae 	bl	8007a6c <_ux_device_stack_interface_set>
 8007310:	e7c7      	b.n	80072a2 <_ux_device_stack_configuration_set+0x106>
 8007312:	eb03 0282 	add.w	r2, r3, r2, lsl #2
 8007316:	9b00      	ldr	r3, [sp, #0]
 8007318:	f8c2 3114 	str.w	r3, [r2, #276]	@ 0x114
 800731c:	e7ed      	b.n	80072fa <_ux_device_stack_configuration_set+0x15e>
 800731e:	f8d3 2110 	ldr.w	r2, [r3, #272]	@ 0x110
 8007322:	6c11      	ldr	r1, [r2, #64]	@ 0x40
 8007324:	2901      	cmp	r1, #1
 8007326:	d1ee      	bne.n	8007306 <_ux_device_stack_configuration_set+0x16a>
 8007328:	f89d 101a 	ldrb.w	r1, [sp, #26]
 800732c:	f8d2 0108 	ldr.w	r0, [r2, #264]	@ 0x108
 8007330:	4281      	cmp	r1, r0
 8007332:	d1e8      	bne.n	8007306 <_ux_device_stack_configuration_set+0x16a>
 8007334:	f8d2 010c 	ldr.w	r0, [r2, #268]	@ 0x10c
 8007338:	42b8      	cmp	r0, r7
 800733a:	bf04      	itt	eq
 800733c:	eb03 0381 	addeq.w	r3, r3, r1, lsl #2
 8007340:	f8c3 2114 	streq.w	r2, [r3, #276]	@ 0x114
 8007344:	e7df      	b.n	8007306 <_ux_device_stack_configuration_set+0x16a>
 8007346:	bf00      	nop
 8007348:	20000034 	.word	0x20000034
 800734c:	2000002b 	.word	0x2000002b
 8007350:	20003a98 	.word	0x20003a98

08007354 <_ux_device_stack_control_request_process>:
 8007354:	e92d 4ff0 	stmdb	sp!, {r4, r5, r6, r7, r8, r9, sl, fp, lr}
 8007358:	6a45      	ldr	r5, [r0, #36]	@ 0x24
 800735a:	4681      	mov	r9, r0
 800735c:	b091      	sub	sp, #68	@ 0x44
 800735e:	2d00      	cmp	r5, #0
 8007360:	f040 80df 	bne.w	8007522 <_ux_device_stack_control_request_process+0x1ce>
 8007364:	4a70      	ldr	r2, [pc, #448]	@ (8007528 <_ux_device_stack_control_request_process+0x1d4>)
 8007366:	f890 a055 	ldrb.w	sl, [r0, #85]	@ 0x55
 800736a:	f890 8054 	ldrb.w	r8, [r0, #84]	@ 0x54
 800736e:	3056      	adds	r0, #86	@ 0x56
 8007370:	6816      	ldr	r6, [r2, #0]
 8007372:	f000 ff03 	bl	800817c <_ux_utility_short_get>
 8007376:	4607      	mov	r7, r0
 8007378:	f109 0058 	add.w	r0, r9, #88	@ 0x58
 800737c:	f000 fefe 	bl	800817c <_ux_utility_short_get>
 8007380:	4604      	mov	r4, r0
 8007382:	f109 005a 	add.w	r0, r9, #90	@ 0x5a
 8007386:	f000 fef9 	bl	800817c <_ux_utility_short_get>
 800738a:	f1aa 0106 	sub.w	r1, sl, #6
 800738e:	2901      	cmp	r1, #1
 8007390:	4603      	mov	r3, r0
 8007392:	4a65      	ldr	r2, [pc, #404]	@ (8007528 <_ux_device_stack_control_request_process+0x1d4>)
 8007394:	d83b      	bhi.n	800740e <_ux_device_stack_control_request_process+0xba>
 8007396:	f417 4fc0 	tst.w	r7, #24576	@ 0x6000
 800739a:	d038      	beq.n	800740e <_ux_device_stack_control_request_process+0xba>
 800739c:	f028 0860 	bic.w	r8, r8, #96	@ 0x60
 80073a0:	f048 0820 	orr.w	r8, r8, #32
 80073a4:	f008 0160 	and.w	r1, r8, #96	@ 0x60
 80073a8:	2920      	cmp	r1, #32
 80073aa:	d001      	beq.n	80073b0 <_ux_device_stack_control_request_process+0x5c>
 80073ac:	2940      	cmp	r1, #64	@ 0x40
 80073ae:	d15f      	bne.n	8007470 <_ux_device_stack_control_request_process+0x11c>
 80073b0:	2304      	movs	r3, #4
 80073b2:	27ff      	movs	r7, #255	@ 0xff
 80073b4:	9305      	str	r3, [sp, #20]
 80073b6:	f008 0b03 	and.w	fp, r8, #3
 80073ba:	b2e4      	uxtb	r4, r4
 80073bc:	6813      	ldr	r3, [r2, #0]
 80073be:	eb03 0385 	add.w	r3, r3, r5, lsl #2
 80073c2:	f8d3 1114 	ldr.w	r1, [r3, #276]	@ 0x114
 80073c6:	b1c1      	cbz	r1, 80073fa <_ux_device_stack_control_request_process+0xa6>
 80073c8:	f1bb 0f01 	cmp.w	fp, #1
 80073cc:	d10e      	bne.n	80073ec <_ux_device_stack_control_request_process+0x98>
 80073ce:	f1b8 0fa1 	cmp.w	r8, #161	@ 0xa1
 80073d2:	d14b      	bne.n	800746c <_ux_device_stack_control_request_process+0x118>
 80073d4:	f1ba 0f00 	cmp.w	sl, #0
 80073d8:	d148      	bne.n	800746c <_ux_device_stack_control_request_process+0x118>
 80073da:	f8d1 3110 	ldr.w	r3, [r1, #272]	@ 0x110
 80073de:	7c5b      	ldrb	r3, [r3, #17]
 80073e0:	2b07      	cmp	r3, #7
 80073e2:	d143      	bne.n	800746c <_ux_device_stack_control_request_process+0x118>
 80073e4:	f899 3059 	ldrb.w	r3, [r9, #89]	@ 0x59
 80073e8:	42ab      	cmp	r3, r5
 80073ea:	d106      	bne.n	80073fa <_ux_device_stack_control_request_process+0xa6>
 80073ec:	6c4b      	ldr	r3, [r1, #68]	@ 0x44
 80073ee:	910d      	str	r1, [sp, #52]	@ 0x34
 80073f0:	a805      	add	r0, sp, #20
 80073f2:	4798      	blx	r3
 80073f4:	4a4c      	ldr	r2, [pc, #304]	@ (8007528 <_ux_device_stack_control_request_process+0x1d4>)
 80073f6:	4607      	mov	r7, r0
 80073f8:	b138      	cbz	r0, 800740a <_ux_device_stack_control_request_process+0xb6>
 80073fa:	3501      	adds	r5, #1
 80073fc:	2d10      	cmp	r5, #16
 80073fe:	d1dd      	bne.n	80073bc <_ux_device_stack_control_request_process+0x68>
 8007400:	b11f      	cbz	r7, 800740a <_ux_device_stack_control_request_process+0xb6>
 8007402:	f106 0038 	add.w	r0, r6, #56	@ 0x38
 8007406:	f000 f9cb 	bl	80077a0 <_ux_device_stack_endpoint_stall>
 800740a:	463d      	mov	r5, r7
 800740c:	e025      	b.n	800745a <_ux_device_stack_control_request_process+0x106>
 800740e:	f008 0160 	and.w	r1, r8, #96	@ 0x60
 8007412:	2940      	cmp	r1, #64	@ 0x40
 8007414:	d1c6      	bne.n	80073a4 <_ux_device_stack_control_request_process+0x50>
 8007416:	6811      	ldr	r1, [r2, #0]
 8007418:	f8d1 b180 	ldr.w	fp, [r1, #384]	@ 0x180
 800741c:	f1bb 0f00 	cmp.w	fp, #0
 8007420:	d0c0      	beq.n	80073a4 <_ux_device_stack_control_request_process+0x50>
 8007422:	f8d1 117c 	ldr.w	r1, [r1, #380]	@ 0x17c
 8007426:	4551      	cmp	r1, sl
 8007428:	d1bc      	bne.n	80073a4 <_ux_device_stack_control_request_process+0x50>
 800742a:	f44f 7280 	mov.w	r2, #256	@ 0x100
 800742e:	9205      	str	r2, [sp, #20]
 8007430:	aa05      	add	r2, sp, #20
 8007432:	9201      	str	r2, [sp, #4]
 8007434:	f8d9 200c 	ldr.w	r2, [r9, #12]
 8007438:	4639      	mov	r1, r7
 800743a:	9200      	str	r2, [sp, #0]
 800743c:	4650      	mov	r0, sl
 800743e:	4622      	mov	r2, r4
 8007440:	9303      	str	r3, [sp, #12]
 8007442:	47d8      	blx	fp
 8007444:	b968      	cbnz	r0, 8007462 <_ux_device_stack_control_request_process+0x10e>
 8007446:	2203      	movs	r2, #3
 8007448:	9b03      	ldr	r3, [sp, #12]
 800744a:	f8c6 2080 	str.w	r2, [r6, #128]	@ 0x80
 800744e:	9905      	ldr	r1, [sp, #20]
 8007450:	461a      	mov	r2, r3
 8007452:	f106 0058 	add.w	r0, r6, #88	@ 0x58
 8007456:	f000 fc0d 	bl	8007c74 <_ux_device_stack_transfer_request>
 800745a:	4628      	mov	r0, r5
 800745c:	b011      	add	sp, #68	@ 0x44
 800745e:	e8bd 8ff0 	ldmia.w	sp!, {r4, r5, r6, r7, r8, r9, sl, fp, pc}
 8007462:	f106 0038 	add.w	r0, r6, #56	@ 0x38
 8007466:	f000 f99b 	bl	80077a0 <_ux_device_stack_endpoint_stall>
 800746a:	e7f6      	b.n	800745a <_ux_device_stack_control_request_process+0x106>
 800746c:	42ac      	cmp	r4, r5
 800746e:	e7bc      	b.n	80073ea <_ux_device_stack_control_request_process+0x96>
 8007470:	f1ba 0f0c 	cmp.w	sl, #12
 8007474:	d853      	bhi.n	800751e <_ux_device_stack_control_request_process+0x1ca>
 8007476:	a201      	add	r2, pc, #4	@ (adr r2, 800747c <_ux_device_stack_control_request_process+0x128>)
 8007478:	f852 f02a 	ldr.w	pc, [r2, sl, lsl #2]
 800747c:	080074b1 	.word	0x080074b1
 8007480:	080074cd 	.word	0x080074cd
 8007484:	0800751f 	.word	0x0800751f
 8007488:	080074d9 	.word	0x080074d9
 800748c:	0800751f 	.word	0x0800751f
 8007490:	080074e5 	.word	0x080074e5
 8007494:	080074f3 	.word	0x080074f3
 8007498:	0800751f 	.word	0x0800751f
 800749c:	080074ff 	.word	0x080074ff
 80074a0:	08007505 	.word	0x08007505
 80074a4:	0800750d 	.word	0x0800750d
 80074a8:	08007515 	.word	0x08007515
 80074ac:	0800745b 	.word	0x0800745b
 80074b0:	461a      	mov	r2, r3
 80074b2:	4621      	mov	r1, r4
 80074b4:	4640      	mov	r0, r8
 80074b6:	f000 f991 	bl	80077dc <_ux_device_stack_get_status>
 80074ba:	4604      	mov	r4, r0
 80074bc:	2800      	cmp	r0, #0
 80074be:	d0cc      	beq.n	800745a <_ux_device_stack_control_request_process+0x106>
 80074c0:	f106 0038 	add.w	r0, r6, #56	@ 0x38
 80074c4:	f000 f96c 	bl	80077a0 <_ux_device_stack_endpoint_stall>
 80074c8:	4625      	mov	r5, r4
 80074ca:	e7c6      	b.n	800745a <_ux_device_stack_control_request_process+0x106>
 80074cc:	4622      	mov	r2, r4
 80074ce:	4639      	mov	r1, r7
 80074d0:	4640      	mov	r0, r8
 80074d2:	f7ff fe23 	bl	800711c <_ux_device_stack_clear_feature>
 80074d6:	e7f0      	b.n	80074ba <_ux_device_stack_control_request_process+0x166>
 80074d8:	4622      	mov	r2, r4
 80074da:	4639      	mov	r1, r7
 80074dc:	4640      	mov	r0, r8
 80074de:	f000 fb79 	bl	8007bd4 <_ux_device_stack_set_feature>
 80074e2:	e7ea      	b.n	80074ba <_ux_device_stack_control_request_process+0x166>
 80074e4:	463a      	mov	r2, r7
 80074e6:	2111      	movs	r1, #17
 80074e8:	4630      	mov	r0, r6
 80074ea:	69b3      	ldr	r3, [r6, #24]
 80074ec:	6177      	str	r7, [r6, #20]
 80074ee:	4798      	blx	r3
 80074f0:	e7e3      	b.n	80074ba <_ux_device_stack_control_request_process+0x166>
 80074f2:	461a      	mov	r2, r3
 80074f4:	4621      	mov	r1, r4
 80074f6:	4638      	mov	r0, r7
 80074f8:	f000 f818 	bl	800752c <_ux_device_stack_descriptor_send>
 80074fc:	e7dd      	b.n	80074ba <_ux_device_stack_control_request_process+0x166>
 80074fe:	f7ff fe3d 	bl	800717c <_ux_device_stack_configuration_get>
 8007502:	e7da      	b.n	80074ba <_ux_device_stack_control_request_process+0x166>
 8007504:	4638      	mov	r0, r7
 8007506:	f7ff fe49 	bl	800719c <_ux_device_stack_configuration_set>
 800750a:	e7d6      	b.n	80074ba <_ux_device_stack_control_request_process+0x166>
 800750c:	4620      	mov	r0, r4
 800750e:	f7ff fcbb 	bl	8006e88 <_ux_device_stack_alternate_setting_get>
 8007512:	e7d2      	b.n	80074ba <_ux_device_stack_control_request_process+0x166>
 8007514:	4639      	mov	r1, r7
 8007516:	4620      	mov	r0, r4
 8007518:	f7ff fcd4 	bl	8006ec4 <_ux_device_stack_alternate_setting_set>
 800751c:	e7cd      	b.n	80074ba <_ux_device_stack_control_request_process+0x166>
 800751e:	2454      	movs	r4, #84	@ 0x54
 8007520:	e7ce      	b.n	80074c0 <_ux_device_stack_control_request_process+0x16c>
 8007522:	25ff      	movs	r5, #255	@ 0xff
 8007524:	e799      	b.n	800745a <_ux_device_stack_control_request_process+0x106>
 8007526:	bf00      	nop
 8007528:	20003a98 	.word	0x20003a98

0800752c <_ux_device_stack_descriptor_send>:
 800752c:	2303      	movs	r3, #3
 800752e:	e92d 4ff0 	stmdb	sp!, {r4, r5, r6, r7, r8, r9, sl, fp, lr}
 8007532:	f8df b1f8 	ldr.w	fp, [pc, #504]	@ 800772c <_ux_device_stack_descriptor_send+0x200>
 8007536:	fa5f f980 	uxtb.w	r9, r0
 800753a:	f8db 4000 	ldr.w	r4, [fp]
 800753e:	ea4f 2a10 	mov.w	sl, r0, lsr #8
 8007542:	f3c0 2007 	ubfx	r0, r0, #8, #8
 8007546:	b087      	sub	sp, #28
 8007548:	f8c4 3080 	str.w	r3, [r4, #128]	@ 0x80
 800754c:	1e43      	subs	r3, r0, #1
 800754e:	460d      	mov	r5, r1
 8007550:	4616      	mov	r6, r2
 8007552:	f104 0738 	add.w	r7, r4, #56	@ 0x38
 8007556:	f104 0858 	add.w	r8, r4, #88	@ 0x58
 800755a:	2b0e      	cmp	r3, #14
 800755c:	f200 80ab 	bhi.w	80076b6 <_ux_device_stack_descriptor_send+0x18a>
 8007560:	e8df f003 	tbb	[pc, r3]
 8007564:	a9792f08 	.word	0xa9792f08
 8007568:	a92f13a9 	.word	0xa92f13a9
 800756c:	a9a9a918 	.word	0xa9a9a918
 8007570:	a9a9      	.short	0xa9a9
 8007572:	2f          	.byte	0x2f
 8007573:	00          	.byte	0x00
 8007574:	2e12      	cmp	r6, #18
 8007576:	4635      	mov	r5, r6
 8007578:	bf28      	it	cs
 800757a:	2512      	movcs	r5, #18
 800757c:	e9d4 1338 	ldrd	r1, r3, [r4, #224]	@ 0xe0
 8007580:	440b      	add	r3, r1
 8007582:	4299      	cmp	r1, r3
 8007584:	d30b      	bcc.n	800759e <_ux_device_stack_descriptor_send+0x72>
 8007586:	20ff      	movs	r0, #255	@ 0xff
 8007588:	e044      	b.n	8007614 <_ux_device_stack_descriptor_send+0xe8>
 800758a:	2e0a      	cmp	r6, #10
 800758c:	4635      	mov	r5, r6
 800758e:	bf28      	it	cs
 8007590:	250a      	movcs	r5, #10
 8007592:	e7f3      	b.n	800757c <_ux_device_stack_descriptor_send+0x50>
 8007594:	2e05      	cmp	r6, #5
 8007596:	4635      	mov	r5, r6
 8007598:	bf28      	it	cs
 800759a:	2505      	movcs	r5, #5
 800759c:	e7ee      	b.n	800757c <_ux_device_stack_descriptor_send+0x50>
 800759e:	784f      	ldrb	r7, [r1, #1]
 80075a0:	780a      	ldrb	r2, [r1, #0]
 80075a2:	4287      	cmp	r7, r0
 80075a4:	d10b      	bne.n	80075be <_ux_device_stack_descriptor_send+0x92>
 80075a6:	462a      	mov	r2, r5
 80075a8:	6e60      	ldr	r0, [r4, #100]	@ 0x64
 80075aa:	f000 fd47 	bl	800803c <_ux_utility_memory_copy>
 80075ae:	4632      	mov	r2, r6
 80075b0:	4629      	mov	r1, r5
 80075b2:	4640      	mov	r0, r8
 80075b4:	b007      	add	sp, #28
 80075b6:	e8bd 4ff0 	ldmia.w	sp!, {r4, r5, r6, r7, r8, r9, sl, fp, lr}
 80075ba:	f000 bb5b 	b.w	8007c74 <_ux_device_stack_transfer_request>
 80075be:	4411      	add	r1, r2
 80075c0:	e7df      	b.n	8007582 <_ux_device_stack_descriptor_send+0x56>
 80075c2:	2200      	movs	r2, #0
 80075c4:	2807      	cmp	r0, #7
 80075c6:	bf0c      	ite	eq
 80075c8:	e9d4 533a 	ldrdeq	r5, r3, [r4, #232]	@ 0xe8
 80075cc:	e9d4 5338 	ldrdne	r5, r3, [r4, #224]	@ 0xe0
 80075d0:	442b      	add	r3, r5
 80075d2:	429d      	cmp	r5, r3
 80075d4:	d2d7      	bcs.n	8007586 <_ux_device_stack_descriptor_send+0x5a>
 80075d6:	280f      	cmp	r0, #15
 80075d8:	f895 c000 	ldrb.w	ip, [r5]
 80075dc:	7869      	ldrb	r1, [r5, #1]
 80075de:	d11c      	bne.n	800761a <_ux_device_stack_descriptor_send+0xee>
 80075e0:	290f      	cmp	r1, #15
 80075e2:	d128      	bne.n	8007636 <_ux_device_stack_descriptor_send+0x10a>
 80075e4:	2204      	movs	r2, #4
 80075e6:	4628      	mov	r0, r5
 80075e8:	494e      	ldr	r1, [pc, #312]	@ (8007724 <_ux_device_stack_descriptor_send+0x1f8>)
 80075ea:	ab01      	add	r3, sp, #4
 80075ec:	f000 fc10 	bl	8007e10 <_ux_utility_descriptor_parse>
 80075f0:	f8bd 9006 	ldrh.w	r9, [sp, #6]
 80075f4:	45b1      	cmp	r9, r6
 80075f6:	bf28      	it	cs
 80075f8:	46b1      	movcs	r9, r6
 80075fa:	f5b9 7f80 	cmp.w	r9, #256	@ 0x100
 80075fe:	d91c      	bls.n	800763a <_ux_device_stack_descriptor_send+0x10e>
 8007600:	2212      	movs	r2, #18
 8007602:	2109      	movs	r1, #9
 8007604:	2002      	movs	r0, #2
 8007606:	f000 fb87 	bl	8007d18 <_ux_system_error_handler>
 800760a:	463a      	mov	r2, r7
 800760c:	2114      	movs	r1, #20
 800760e:	4620      	mov	r0, r4
 8007610:	69a3      	ldr	r3, [r4, #24]
 8007612:	4798      	blx	r3
 8007614:	b007      	add	sp, #28
 8007616:	e8bd 8ff0 	ldmia.w	sp!, {r4, r5, r6, r7, r8, r9, sl, fp, pc}
 800761a:	2902      	cmp	r1, #2
 800761c:	d10b      	bne.n	8007636 <_ux_device_stack_descriptor_send+0x10a>
 800761e:	454a      	cmp	r2, r9
 8007620:	d108      	bne.n	8007634 <_ux_device_stack_descriptor_send+0x108>
 8007622:	2208      	movs	r2, #8
 8007624:	4628      	mov	r0, r5
 8007626:	4940      	ldr	r1, [pc, #256]	@ (8007728 <_ux_device_stack_descriptor_send+0x1fc>)
 8007628:	ab03      	add	r3, sp, #12
 800762a:	f000 fbf1 	bl	8007e10 <_ux_utility_descriptor_parse>
 800762e:	f8bd 900e 	ldrh.w	r9, [sp, #14]
 8007632:	e7df      	b.n	80075f4 <_ux_device_stack_descriptor_send+0xc8>
 8007634:	3201      	adds	r2, #1
 8007636:	4465      	add	r5, ip
 8007638:	e7cb      	b.n	80075d2 <_ux_device_stack_descriptor_send+0xa6>
 800763a:	464a      	mov	r2, r9
 800763c:	4629      	mov	r1, r5
 800763e:	6e60      	ldr	r0, [r4, #100]	@ 0x64
 8007640:	f000 fcfc 	bl	800803c <_ux_utility_memory_copy>
 8007644:	6e63      	ldr	r3, [r4, #100]	@ 0x64
 8007646:	4632      	mov	r2, r6
 8007648:	4649      	mov	r1, r9
 800764a:	4640      	mov	r0, r8
 800764c:	f883 a001 	strb.w	sl, [r3, #1]
 8007650:	f000 fb10 	bl	8007c74 <_ux_device_stack_transfer_request>
 8007654:	e7de      	b.n	8007614 <_ux_device_stack_descriptor_send+0xe8>
 8007656:	f1b9 0f00 	cmp.w	r9, #0
 800765a:	d127      	bne.n	80076ac <_ux_device_stack_descriptor_send+0x180>
 800765c:	f8d4 3104 	ldr.w	r3, [r4, #260]	@ 0x104
 8007660:	3302      	adds	r3, #2
 8007662:	f5b3 7f80 	cmp.w	r3, #256	@ 0x100
 8007666:	d90c      	bls.n	8007682 <_ux_device_stack_descriptor_send+0x156>
 8007668:	2212      	movs	r2, #18
 800766a:	2109      	movs	r1, #9
 800766c:	2002      	movs	r0, #2
 800766e:	f000 fb53 	bl	8007d18 <_ux_system_error_handler>
 8007672:	463a      	mov	r2, r7
 8007674:	2114      	movs	r1, #20
 8007676:	4620      	mov	r0, r4
 8007678:	69a3      	ldr	r3, [r4, #24]
 800767a:	b007      	add	sp, #28
 800767c:	e8bd 4ff0 	ldmia.w	sp!, {r4, r5, r6, r7, r8, r9, sl, fp, lr}
 8007680:	4718      	bx	r3
 8007682:	6e60      	ldr	r0, [r4, #100]	@ 0x64
 8007684:	7003      	strb	r3, [r0, #0]
 8007686:	2303      	movs	r3, #3
 8007688:	7043      	strb	r3, [r0, #1]
 800768a:	f8db 3000 	ldr.w	r3, [fp]
 800768e:	3002      	adds	r0, #2
 8007690:	e9d3 1240 	ldrd	r1, r2, [r3, #256]	@ 0x100
 8007694:	f000 fcd2 	bl	800803c <_ux_utility_memory_copy>
 8007698:	f8db 3000 	ldr.w	r3, [fp]
 800769c:	f8d3 1104 	ldr.w	r1, [r3, #260]	@ 0x104
 80076a0:	3102      	adds	r1, #2
 80076a2:	42b1      	cmp	r1, r6
 80076a4:	4632      	mov	r2, r6
 80076a6:	bf28      	it	cs
 80076a8:	4631      	movcs	r1, r6
 80076aa:	e782      	b.n	80075b2 <_ux_device_stack_descriptor_send+0x86>
 80076ac:	e9d4 ab3e 	ldrd	sl, fp, [r4, #248]	@ 0xf8
 80076b0:	f1bb 0f00 	cmp.w	fp, #0
 80076b4:	d105      	bne.n	80076c2 <_ux_device_stack_descriptor_send+0x196>
 80076b6:	463a      	mov	r2, r7
 80076b8:	2114      	movs	r1, #20
 80076ba:	4620      	mov	r0, r4
 80076bc:	69a3      	ldr	r3, [r4, #24]
 80076be:	4798      	blx	r3
 80076c0:	e761      	b.n	8007586 <_ux_device_stack_descriptor_send+0x5a>
 80076c2:	4650      	mov	r0, sl
 80076c4:	f000 fd5a 	bl	800817c <_ux_utility_short_get>
 80076c8:	42a8      	cmp	r0, r5
 80076ca:	f89a 3003 	ldrb.w	r3, [sl, #3]
 80076ce:	d121      	bne.n	8007714 <_ux_device_stack_descriptor_send+0x1e8>
 80076d0:	f89a 2002 	ldrb.w	r2, [sl, #2]
 80076d4:	454a      	cmp	r2, r9
 80076d6:	d11d      	bne.n	8007714 <_ux_device_stack_descriptor_send+0x1e8>
 80076d8:	3301      	adds	r3, #1
 80076da:	2b80      	cmp	r3, #128	@ 0x80
 80076dc:	ea4f 0143 	mov.w	r1, r3, lsl #1
 80076e0:	dcc2      	bgt.n	8007668 <_ux_device_stack_descriptor_send+0x13c>
 80076e2:	6e62      	ldr	r2, [r4, #100]	@ 0x64
 80076e4:	2303      	movs	r3, #3
 80076e6:	4610      	mov	r0, r2
 80076e8:	7011      	strb	r1, [r2, #0]
 80076ea:	eb0a 0403 	add.w	r4, sl, r3
 80076ee:	f800 3f01 	strb.w	r3, [r0, #1]!
 80076f2:	2300      	movs	r3, #0
 80076f4:	461d      	mov	r5, r3
 80076f6:	f89a 1003 	ldrb.w	r1, [sl, #3]
 80076fa:	4299      	cmp	r1, r3
 80076fc:	d802      	bhi.n	8007704 <_ux_device_stack_descriptor_send+0x1d8>
 80076fe:	3101      	adds	r1, #1
 8007700:	0049      	lsls	r1, r1, #1
 8007702:	e7ce      	b.n	80076a2 <_ux_device_stack_descriptor_send+0x176>
 8007704:	f814 1f01 	ldrb.w	r1, [r4, #1]!
 8007708:	3301      	adds	r3, #1
 800770a:	f802 1013 	strb.w	r1, [r2, r3, lsl #1]
 800770e:	f800 5013 	strb.w	r5, [r0, r3, lsl #1]
 8007712:	e7f0      	b.n	80076f6 <_ux_device_stack_descriptor_send+0x1ca>
 8007714:	f1ab 0b04 	sub.w	fp, fp, #4
 8007718:	ebab 0b03 	sub.w	fp, fp, r3
 800771c:	3304      	adds	r3, #4
 800771e:	449a      	add	sl, r3
 8007720:	e7c6      	b.n	80076b0 <_ux_device_stack_descriptor_send+0x184>
 8007722:	bf00      	nop
 8007724:	20000027 	.word	0x20000027
 8007728:	20000034 	.word	0x20000034
 800772c:	20003a98 	.word	0x20003a98

08007730 <_ux_device_stack_disconnect>:
 8007730:	e92d 41f0 	stmdb	sp!, {r4, r5, r6, r7, r8, lr}
 8007734:	4f19      	ldr	r7, [pc, #100]	@ (800779c <_ux_device_stack_disconnect+0x6c>)
 8007736:	b08c      	sub	sp, #48	@ 0x30
 8007738:	683c      	ldr	r4, [r7, #0]
 800773a:	6a26      	ldr	r6, [r4, #32]
 800773c:	2e03      	cmp	r6, #3
 800773e:	d128      	bne.n	8007792 <_ux_device_stack_disconnect+0x62>
 8007740:	f8d4 50c8 	ldr.w	r5, [r4, #200]	@ 0xc8
 8007744:	b9b5      	cbnz	r5, 8007774 <_ux_device_stack_disconnect+0x44>
 8007746:	2301      	movs	r3, #1
 8007748:	6223      	str	r3, [r4, #32]
 800774a:	210f      	movs	r1, #15
 800774c:	4620      	mov	r0, r4
 800774e:	69a3      	ldr	r3, [r4, #24]
 8007750:	f104 0238 	add.w	r2, r4, #56	@ 0x38
 8007754:	4798      	blx	r3
 8007756:	4605      	mov	r5, r0
 8007758:	2300      	movs	r3, #0
 800775a:	f8c4 30b8 	str.w	r3, [r4, #184]	@ 0xb8
 800775e:	6223      	str	r3, [r4, #32]
 8007760:	683b      	ldr	r3, [r7, #0]
 8007762:	f8d3 3178 	ldr.w	r3, [r3, #376]	@ 0x178
 8007766:	b10b      	cbz	r3, 800776c <_ux_device_stack_disconnect+0x3c>
 8007768:	200a      	movs	r0, #10
 800776a:	4798      	blx	r3
 800776c:	4628      	mov	r0, r5
 800776e:	b00c      	add	sp, #48	@ 0x30
 8007770:	e8bd 81f0 	ldmia.w	sp!, {r4, r5, r6, r7, r8, pc}
 8007774:	686b      	ldr	r3, [r5, #4]
 8007776:	9601      	str	r6, [sp, #4]
 8007778:	9503      	str	r5, [sp, #12]
 800777a:	9309      	str	r3, [sp, #36]	@ 0x24
 800777c:	b113      	cbz	r3, 8007784 <_ux_device_stack_disconnect+0x54>
 800777e:	6c5b      	ldr	r3, [r3, #68]	@ 0x44
 8007780:	a801      	add	r0, sp, #4
 8007782:	4798      	blx	r3
 8007784:	f8d5 8018 	ldr.w	r8, [r5, #24]
 8007788:	4628      	mov	r0, r5
 800778a:	f000 f94b 	bl	8007a24 <_ux_device_stack_interface_delete>
 800778e:	4645      	mov	r5, r8
 8007790:	e7d8      	b.n	8007744 <_ux_device_stack_disconnect+0x14>
 8007792:	2e01      	cmp	r6, #1
 8007794:	d0d9      	beq.n	800774a <_ux_device_stack_disconnect+0x1a>
 8007796:	25ff      	movs	r5, #255	@ 0xff
 8007798:	e7de      	b.n	8007758 <_ux_device_stack_disconnect+0x28>
 800779a:	bf00      	nop
 800779c:	20003a98 	.word	0x20003a98

080077a0 <_ux_device_stack_endpoint_stall>:
 80077a0:	b538      	push	{r3, r4, r5, lr}
 80077a2:	4b0d      	ldr	r3, [pc, #52]	@ (80077d8 <_ux_device_stack_endpoint_stall+0x38>)
 80077a4:	4604      	mov	r4, r0
 80077a6:	6818      	ldr	r0, [r3, #0]
 80077a8:	f3ef 8510 	mrs	r5, PRIMASK
 80077ac:	b672      	cpsid	i
 80077ae:	681b      	ldr	r3, [r3, #0]
 80077b0:	6a1b      	ldr	r3, [r3, #32]
 80077b2:	b173      	cbz	r3, 80077d2 <_ux_device_stack_endpoint_stall+0x32>
 80077b4:	6863      	ldr	r3, [r4, #4]
 80077b6:	2b02      	cmp	r3, #2
 80077b8:	d00b      	beq.n	80077d2 <_ux_device_stack_endpoint_stall+0x32>
 80077ba:	6983      	ldr	r3, [r0, #24]
 80077bc:	4622      	mov	r2, r4
 80077be:	2114      	movs	r1, #20
 80077c0:	4798      	blx	r3
 80077c2:	7be3      	ldrb	r3, [r4, #15]
 80077c4:	079b      	lsls	r3, r3, #30
 80077c6:	d001      	beq.n	80077cc <_ux_device_stack_endpoint_stall+0x2c>
 80077c8:	2302      	movs	r3, #2
 80077ca:	6063      	str	r3, [r4, #4]
 80077cc:	f385 8810 	msr	PRIMASK, r5
 80077d0:	bd38      	pop	{r3, r4, r5, pc}
 80077d2:	20ff      	movs	r0, #255	@ 0xff
 80077d4:	e7fa      	b.n	80077cc <_ux_device_stack_endpoint_stall+0x2c>
 80077d6:	bf00      	nop
 80077d8:	20003a98 	.word	0x20003a98

080077dc <_ux_device_stack_get_status>:
 80077dc:	460a      	mov	r2, r1
 80077de:	2100      	movs	r1, #0
 80077e0:	b538      	push	{r3, r4, r5, lr}
 80077e2:	4b20      	ldr	r3, [pc, #128]	@ (8007864 <_ux_device_stack_get_status+0x88>)
 80077e4:	f010 0003 	ands.w	r0, r0, #3
 80077e8:	681c      	ldr	r4, [r3, #0]
 80077ea:	6e65      	ldr	r5, [r4, #100]	@ 0x64
 80077ec:	7029      	strb	r1, [r5, #0]
 80077ee:	6e65      	ldr	r5, [r4, #100]	@ 0x64
 80077f0:	7069      	strb	r1, [r5, #1]
 80077f2:	d00a      	beq.n	800780a <_ux_device_stack_get_status+0x2e>
 80077f4:	2802      	cmp	r0, #2
 80077f6:	69a3      	ldr	r3, [r4, #24]
 80077f8:	f104 0538 	add.w	r5, r4, #56	@ 0x38
 80077fc:	d024      	beq.n	8007848 <_ux_device_stack_get_status+0x6c>
 80077fe:	462a      	mov	r2, r5
 8007800:	2114      	movs	r1, #20
 8007802:	4620      	mov	r0, r4
 8007804:	4798      	blx	r3
 8007806:	2000      	movs	r0, #0
 8007808:	bd38      	pop	{r3, r4, r5, pc}
 800780a:	f5b2 4f70 	cmp.w	r2, #61440	@ 0xf000
 800780e:	d027      	beq.n	8007860 <_ux_device_stack_get_status+0x84>
 8007810:	681a      	ldr	r2, [r3, #0]
 8007812:	f8d2 2158 	ldr.w	r2, [r2, #344]	@ 0x158
 8007816:	2a02      	cmp	r2, #2
 8007818:	bf02      	ittt	eq
 800781a:	2101      	moveq	r1, #1
 800781c:	6e62      	ldreq	r2, [r4, #100]	@ 0x64
 800781e:	7011      	strbeq	r1, [r2, #0]
 8007820:	681b      	ldr	r3, [r3, #0]
 8007822:	f8d3 3160 	ldr.w	r3, [r3, #352]	@ 0x160
 8007826:	b123      	cbz	r3, 8007832 <_ux_device_stack_get_status+0x56>
 8007828:	6e62      	ldr	r2, [r4, #100]	@ 0x64
 800782a:	7813      	ldrb	r3, [r2, #0]
 800782c:	f043 0302 	orr.w	r3, r3, #2
 8007830:	7013      	strb	r3, [r2, #0]
 8007832:	2202      	movs	r2, #2
 8007834:	2303      	movs	r3, #3
 8007836:	f104 0058 	add.w	r0, r4, #88	@ 0x58
 800783a:	f8c4 3080 	str.w	r3, [r4, #128]	@ 0x80
 800783e:	4611      	mov	r1, r2
 8007840:	e8bd 4038 	ldmia.w	sp!, {r3, r4, r5, lr}
 8007844:	f000 ba16 	b.w	8007c74 <_ux_device_stack_transfer_request>
 8007848:	2115      	movs	r1, #21
 800784a:	4620      	mov	r0, r4
 800784c:	4798      	blx	r3
 800784e:	28ff      	cmp	r0, #255	@ 0xff
 8007850:	d004      	beq.n	800785c <_ux_device_stack_get_status+0x80>
 8007852:	2801      	cmp	r0, #1
 8007854:	d1ed      	bne.n	8007832 <_ux_device_stack_get_status+0x56>
 8007856:	6e63      	ldr	r3, [r4, #100]	@ 0x64
 8007858:	7018      	strb	r0, [r3, #0]
 800785a:	e7ea      	b.n	8007832 <_ux_device_stack_get_status+0x56>
 800785c:	69a3      	ldr	r3, [r4, #24]
 800785e:	e7ce      	b.n	80077fe <_ux_device_stack_get_status+0x22>
 8007860:	2201      	movs	r2, #1
 8007862:	e7e7      	b.n	8007834 <_ux_device_stack_get_status+0x58>
 8007864:	20003a98 	.word	0x20003a98

08007868 <_ux_device_stack_initialize>:
 8007868:	e92d 47f0 	stmdb	sp!, {r4, r5, r6, r7, r8, r9, sl, lr}
 800786c:	f8df 81ac 	ldr.w	r8, [pc, #428]	@ 8007a1c <_ux_device_stack_initialize+0x1b4>
 8007870:	f8d8 4000 	ldr.w	r4, [r8]
 8007874:	e9c4 013c 	strd	r0, r1, [r4, #240]	@ 0xf0
 8007878:	2100      	movs	r1, #0
 800787a:	e9c4 233a 	strd	r2, r3, [r4, #232]	@ 0xe8
 800787e:	9b08      	ldr	r3, [sp, #32]
 8007880:	f44f 728a 	mov.w	r2, #276	@ 0x114
 8007884:	f8c4 30f8 	str.w	r3, [r4, #248]	@ 0xf8
 8007888:	9b09      	ldr	r3, [sp, #36]	@ 0x24
 800788a:	4608      	mov	r0, r1
 800788c:	f8c4 30fc 	str.w	r3, [r4, #252]	@ 0xfc
 8007890:	9b0a      	ldr	r3, [sp, #40]	@ 0x28
 8007892:	f8c4 3100 	str.w	r3, [r4, #256]	@ 0x100
 8007896:	9b0b      	ldr	r3, [sp, #44]	@ 0x2c
 8007898:	f8c4 3104 	str.w	r3, [r4, #260]	@ 0x104
 800789c:	9b0c      	ldr	r3, [sp, #48]	@ 0x30
 800789e:	f8c4 3178 	str.w	r3, [r4, #376]	@ 0x178
 80078a2:	f000 faed 	bl	8007e80 <_ux_utility_memory_allocate>
 80078a6:	2800      	cmp	r0, #0
 80078a8:	f000 80b2 	beq.w	8007a10 <_ux_device_stack_initialize+0x1a8>
 80078ac:	f8d8 3000 	ldr.w	r3, [r8]
 80078b0:	f44f 7280 	mov.w	r2, #256	@ 0x100
 80078b4:	f8c3 0110 	str.w	r0, [r3, #272]	@ 0x110
 80078b8:	2101      	movs	r1, #1
 80078ba:	2000      	movs	r0, #0
 80078bc:	f000 fae0 	bl	8007e80 <_ux_utility_memory_allocate>
 80078c0:	6660      	str	r0, [r4, #100]	@ 0x64
 80078c2:	b908      	cbnz	r0, 80078c8 <_ux_device_stack_initialize+0x60>
 80078c4:	2712      	movs	r7, #18
 80078c6:	e014      	b.n	80078f2 <_ux_device_stack_initialize+0x8a>
 80078c8:	f8d8 3000 	ldr.w	r3, [r8]
 80078cc:	e9d3 073a 	ldrd	r0, r7, [r3, #232]	@ 0xe8
 80078d0:	2300      	movs	r3, #0
 80078d2:	4619      	mov	r1, r3
 80078d4:	461a      	mov	r2, r3
 80078d6:	461e      	mov	r6, r3
 80078d8:	469c      	mov	ip, r3
 80078da:	461d      	mov	r5, r3
 80078dc:	b9cf      	cbnz	r7, 8007912 <_ux_device_stack_initialize+0xaa>
 80078de:	4295      	cmp	r5, r2
 80078e0:	d343      	bcc.n	800796a <_ux_device_stack_initialize+0x102>
 80078e2:	2d00      	cmp	r5, #0
 80078e4:	d140      	bne.n	8007968 <_ux_device_stack_initialize+0x100>
 80078e6:	2242      	movs	r2, #66	@ 0x42
 80078e8:	2103      	movs	r1, #3
 80078ea:	2002      	movs	r0, #2
 80078ec:	f000 fa14 	bl	8007d18 <_ux_system_error_handler>
 80078f0:	2742      	movs	r7, #66	@ 0x42
 80078f2:	f8d4 00cc 	ldr.w	r0, [r4, #204]	@ 0xcc
 80078f6:	b108      	cbz	r0, 80078fc <_ux_device_stack_initialize+0x94>
 80078f8:	f000 fbaa 	bl	8008050 <_ux_utility_memory_free>
 80078fc:	6e60      	ldr	r0, [r4, #100]	@ 0x64
 80078fe:	b108      	cbz	r0, 8007904 <_ux_device_stack_initialize+0x9c>
 8007900:	f000 fba6 	bl	8008050 <_ux_utility_memory_free>
 8007904:	f8d8 3000 	ldr.w	r3, [r8]
 8007908:	f8d3 0110 	ldr.w	r0, [r3, #272]	@ 0x110
 800790c:	f000 fba0 	bl	8008050 <_ux_utility_memory_free>
 8007910:	e058      	b.n	80079c4 <_ux_device_stack_initialize+0x15c>
 8007912:	f890 e001 	ldrb.w	lr, [r0, #1]
 8007916:	f890 9000 	ldrb.w	r9, [r0]
 800791a:	f1be 0f02 	cmp.w	lr, #2
 800791e:	d018      	beq.n	8007952 <_ux_device_stack_initialize+0xea>
 8007920:	f1be 0f04 	cmp.w	lr, #4
 8007924:	d10d      	bne.n	8007942 <_ux_device_stack_initialize+0xda>
 8007926:	f890 a003 	ldrb.w	sl, [r0, #3]
 800792a:	f890 e004 	ldrb.w	lr, [r0, #4]
 800792e:	f1ba 0f00 	cmp.w	sl, #0
 8007932:	d10a      	bne.n	800794a <_ux_device_stack_initialize+0xe2>
 8007934:	4419      	add	r1, r3
 8007936:	3201      	adds	r2, #1
 8007938:	7883      	ldrb	r3, [r0, #2]
 800793a:	429e      	cmp	r6, r3
 800793c:	bf38      	it	cc
 800793e:	461e      	movcc	r6, r3
 8007940:	4673      	mov	r3, lr
 8007942:	eba7 0709 	sub.w	r7, r7, r9
 8007946:	4448      	add	r0, r9
 8007948:	e7c8      	b.n	80078dc <_ux_device_stack_initialize+0x74>
 800794a:	459e      	cmp	lr, r3
 800794c:	bf38      	it	cc
 800794e:	469e      	movcc	lr, r3
 8007950:	e7f2      	b.n	8007938 <_ux_device_stack_initialize+0xd0>
 8007952:	440b      	add	r3, r1
 8007954:	4295      	cmp	r5, r2
 8007956:	bf38      	it	cc
 8007958:	4615      	movcc	r5, r2
 800795a:	459c      	cmp	ip, r3
 800795c:	bf38      	it	cc
 800795e:	469c      	movcc	ip, r3
 8007960:	2300      	movs	r3, #0
 8007962:	4619      	mov	r1, r3
 8007964:	461a      	mov	r2, r3
 8007966:	e7ec      	b.n	8007942 <_ux_device_stack_initialize+0xda>
 8007968:	462a      	mov	r2, r5
 800796a:	2e0f      	cmp	r6, #15
 800796c:	d905      	bls.n	800797a <_ux_device_stack_initialize+0x112>
 800796e:	2212      	movs	r2, #18
 8007970:	2103      	movs	r1, #3
 8007972:	2002      	movs	r0, #2
 8007974:	f000 f9d0 	bl	8007d18 <_ux_system_error_handler>
 8007978:	e7a4      	b.n	80078c4 <_ux_device_stack_initialize+0x5c>
 800797a:	18ce      	adds	r6, r1, r3
 800797c:	4566      	cmp	r6, ip
 800797e:	bf38      	it	cc
 8007980:	4666      	movcc	r6, ip
 8007982:	2100      	movs	r1, #0
 8007984:	2320      	movs	r3, #32
 8007986:	4608      	mov	r0, r1
 8007988:	f8c4 20d0 	str.w	r2, [r4, #208]	@ 0xd0
 800798c:	f8c4 60d8 	str.w	r6, [r4, #216]	@ 0xd8
 8007990:	f000 faec 	bl	8007f6c <_ux_utility_memory_allocate_mulc_safe>
 8007994:	2800      	cmp	r0, #0
 8007996:	d095      	beq.n	80078c4 <_ux_device_stack_initialize+0x5c>
 8007998:	f8c4 00cc 	str.w	r0, [r4, #204]	@ 0xcc
 800799c:	b196      	cbz	r6, 80079c4 <_ux_device_stack_initialize+0x15c>
 800799e:	2100      	movs	r1, #0
 80079a0:	2380      	movs	r3, #128	@ 0x80
 80079a2:	4632      	mov	r2, r6
 80079a4:	4608      	mov	r0, r1
 80079a6:	f000 fae1 	bl	8007f6c <_ux_utility_memory_allocate_mulc_safe>
 80079aa:	4605      	mov	r5, r0
 80079ac:	2800      	cmp	r0, #0
 80079ae:	d089      	beq.n	80078c4 <_ux_device_stack_initialize+0x5c>
 80079b0:	f8df 906c 	ldr.w	r9, [pc, #108]	@ 8007a20 <_ux_device_stack_initialize+0x1b8>
 80079b4:	f8c4 00d4 	str.w	r0, [r4, #212]	@ 0xd4
 80079b8:	01f6      	lsls	r6, r6, #7
 80079ba:	f8d4 30d4 	ldr.w	r3, [r4, #212]	@ 0xd4
 80079be:	4433      	add	r3, r6
 80079c0:	429d      	cmp	r5, r3
 80079c2:	d302      	bcc.n	80079ca <_ux_device_stack_initialize+0x162>
 80079c4:	4638      	mov	r0, r7
 80079c6:	e8bd 87f0 	ldmia.w	sp!, {r4, r5, r6, r7, r8, r9, sl, pc}
 80079ca:	f44f 7200 	mov.w	r2, #512	@ 0x200
 80079ce:	2101      	movs	r1, #1
 80079d0:	2000      	movs	r0, #0
 80079d2:	f000 fa55 	bl	8007e80 <_ux_utility_memory_allocate>
 80079d6:	62e8      	str	r0, [r5, #44]	@ 0x2c
 80079d8:	b1e0      	cbz	r0, 8007a14 <_ux_device_stack_initialize+0x1ac>
 80079da:	2200      	movs	r2, #0
 80079dc:	4649      	mov	r1, r9
 80079de:	f105 0050 	add.w	r0, r5, #80	@ 0x50
 80079e2:	f000 fb96 	bl	8008112 <_ux_utility_semaphore_create>
 80079e6:	b9b8      	cbnz	r0, 8007a18 <_ux_device_stack_initialize+0x1b0>
 80079e8:	3580      	adds	r5, #128	@ 0x80
 80079ea:	e7e6      	b.n	80079ba <_ux_device_stack_initialize+0x152>
 80079ec:	6d2b      	ldr	r3, [r5, #80]	@ 0x50
 80079ee:	b11b      	cbz	r3, 80079f8 <_ux_device_stack_initialize+0x190>
 80079f0:	f105 0050 	add.w	r0, r5, #80	@ 0x50
 80079f4:	f000 fb9a 	bl	800812c <_ux_utility_semaphore_delete>
 80079f8:	6ae8      	ldr	r0, [r5, #44]	@ 0x2c
 80079fa:	b108      	cbz	r0, 8007a00 <_ux_device_stack_initialize+0x198>
 80079fc:	f000 fb28 	bl	8008050 <_ux_utility_memory_free>
 8007a00:	3d80      	subs	r5, #128	@ 0x80
 8007a02:	f8d4 00d4 	ldr.w	r0, [r4, #212]	@ 0xd4
 8007a06:	42a8      	cmp	r0, r5
 8007a08:	d9f0      	bls.n	80079ec <_ux_device_stack_initialize+0x184>
 8007a0a:	f000 fb21 	bl	8008050 <_ux_utility_memory_free>
 8007a0e:	e770      	b.n	80078f2 <_ux_device_stack_initialize+0x8a>
 8007a10:	2712      	movs	r7, #18
 8007a12:	e7d7      	b.n	80079c4 <_ux_device_stack_initialize+0x15c>
 8007a14:	2712      	movs	r7, #18
 8007a16:	e7f4      	b.n	8007a02 <_ux_device_stack_initialize+0x19a>
 8007a18:	2715      	movs	r7, #21
 8007a1a:	e7f2      	b.n	8007a02 <_ux_device_stack_initialize+0x19a>
 8007a1c:	20003a98 	.word	0x20003a98
 8007a20:	0800916e 	.word	0x0800916e

08007a24 <_ux_device_stack_interface_delete>:
 8007a24:	e92d 43f8 	stmdb	sp!, {r3, r4, r5, r6, r7, r8, r9, lr}
 8007a28:	4605      	mov	r5, r0
 8007a2a:	2600      	movs	r6, #0
 8007a2c:	4f0e      	ldr	r7, [pc, #56]	@ (8007a68 <_ux_device_stack_interface_delete+0x44>)
 8007a2e:	69c4      	ldr	r4, [r0, #28]
 8007a30:	f8d7 8000 	ldr.w	r8, [r7]
 8007a34:	b954      	cbnz	r4, 8007a4c <_ux_device_stack_interface_delete+0x28>
 8007a36:	69ab      	ldr	r3, [r5, #24]
 8007a38:	4620      	mov	r0, r4
 8007a3a:	f8c8 30c8 	str.w	r3, [r8, #200]	@ 0xc8
 8007a3e:	e9c5 4401 	strd	r4, r4, [r5, #4]
 8007a42:	e9c5 4406 	strd	r4, r4, [r5, #24]
 8007a46:	602c      	str	r4, [r5, #0]
 8007a48:	e8bd 83f8 	ldmia.w	sp!, {r3, r4, r5, r6, r7, r8, r9, pc}
 8007a4c:	6838      	ldr	r0, [r7, #0]
 8007a4e:	f8d4 9014 	ldr.w	r9, [r4, #20]
 8007a52:	4622      	mov	r2, r4
 8007a54:	210f      	movs	r1, #15
 8007a56:	6983      	ldr	r3, [r0, #24]
 8007a58:	4798      	blx	r3
 8007a5a:	e9c4 6600 	strd	r6, r6, [r4]
 8007a5e:	e9c4 6605 	strd	r6, r6, [r4, #20]
 8007a62:	61e6      	str	r6, [r4, #28]
 8007a64:	464c      	mov	r4, r9
 8007a66:	e7e5      	b.n	8007a34 <_ux_device_stack_interface_delete+0x10>
 8007a68:	20003a98 	.word	0x20003a98

08007a6c <_ux_device_stack_interface_set>:
 8007a6c:	e92d 4ff8 	stmdb	sp!, {r3, r4, r5, r6, r7, r8, r9, sl, fp, lr}
 8007a70:	4606      	mov	r6, r0
 8007a72:	4688      	mov	r8, r1
 8007a74:	f8df 90fc 	ldr.w	r9, [pc, #252]	@ 8007b74 <_ux_device_stack_interface_set+0x108>
 8007a78:	f8d9 7000 	ldr.w	r7, [r9]
 8007a7c:	e9d7 5333 	ldrd	r5, r3, [r7, #204]	@ 0xcc
 8007a80:	b913      	cbnz	r3, 8007a88 <_ux_device_stack_interface_set+0x1c>
 8007a82:	2012      	movs	r0, #18
 8007a84:	e8bd 8ff8 	ldmia.w	sp!, {r3, r4, r5, r6, r7, r8, r9, sl, fp, pc}
 8007a88:	682a      	ldr	r2, [r5, #0]
 8007a8a:	b112      	cbz	r2, 8007a92 <_ux_device_stack_interface_set+0x26>
 8007a8c:	3520      	adds	r5, #32
 8007a8e:	3b01      	subs	r3, #1
 8007a90:	e7f6      	b.n	8007a80 <_ux_device_stack_interface_set+0x14>
 8007a92:	462b      	mov	r3, r5
 8007a94:	2201      	movs	r2, #1
 8007a96:	4630      	mov	r0, r6
 8007a98:	f843 2b0c 	str.w	r2, [r3], #12
 8007a9c:	4933      	ldr	r1, [pc, #204]	@ (8007b6c <_ux_device_stack_interface_set+0x100>)
 8007a9e:	2209      	movs	r2, #9
 8007aa0:	f000 f9b6 	bl	8007e10 <_ux_utility_descriptor_parse>
 8007aa4:	f8d7 30c8 	ldr.w	r3, [r7, #200]	@ 0xc8
 8007aa8:	b9c3      	cbnz	r3, 8007adc <_ux_device_stack_interface_set+0x70>
 8007aaa:	f8c7 50c8 	str.w	r5, [r7, #200]	@ 0xc8
 8007aae:	7833      	ldrb	r3, [r6, #0]
 8007ab0:	f107 0b20 	add.w	fp, r7, #32
 8007ab4:	eba8 0803 	sub.w	r8, r8, r3
 8007ab8:	441e      	add	r6, r3
 8007aba:	f1b8 0f00 	cmp.w	r8, #0
 8007abe:	d008      	beq.n	8007ad2 <_ux_device_stack_interface_set+0x66>
 8007ac0:	7873      	ldrb	r3, [r6, #1]
 8007ac2:	f896 a000 	ldrb.w	sl, [r6]
 8007ac6:	2b04      	cmp	r3, #4
 8007ac8:	d003      	beq.n	8007ad2 <_ux_device_stack_interface_set+0x66>
 8007aca:	2b05      	cmp	r3, #5
 8007acc:	d00c      	beq.n	8007ae8 <_ux_device_stack_interface_set+0x7c>
 8007ace:	2b02      	cmp	r3, #2
 8007ad0:	d141      	bne.n	8007b56 <_ux_device_stack_interface_set+0xea>
 8007ad2:	4628      	mov	r0, r5
 8007ad4:	e8bd 4ff8 	ldmia.w	sp!, {r3, r4, r5, r6, r7, r8, r9, sl, fp, lr}
 8007ad8:	f000 b84e 	b.w	8007b78 <_ux_device_stack_interface_start>
 8007adc:	461a      	mov	r2, r3
 8007ade:	699b      	ldr	r3, [r3, #24]
 8007ae0:	2b00      	cmp	r3, #0
 8007ae2:	d1fb      	bne.n	8007adc <_ux_device_stack_interface_set+0x70>
 8007ae4:	6195      	str	r5, [r2, #24]
 8007ae6:	e7e2      	b.n	8007aae <_ux_device_stack_interface_set+0x42>
 8007ae8:	e9d7 4335 	ldrd	r4, r3, [r7, #212]	@ 0xd4
 8007aec:	2b00      	cmp	r3, #0
 8007aee:	d0c8      	beq.n	8007a82 <_ux_device_stack_interface_set+0x16>
 8007af0:	6822      	ldr	r2, [r4, #0]
 8007af2:	bb52      	cbnz	r2, 8007b4a <_ux_device_stack_interface_set+0xde>
 8007af4:	4623      	mov	r3, r4
 8007af6:	2201      	movs	r2, #1
 8007af8:	491d      	ldr	r1, [pc, #116]	@ (8007b70 <_ux_device_stack_interface_set+0x104>)
 8007afa:	f843 2b0c 	str.w	r2, [r3], #12
 8007afe:	4630      	mov	r0, r6
 8007b00:	2206      	movs	r2, #6
 8007b02:	f000 f985 	bl	8007e10 <_ux_utility_descriptor_parse>
 8007b06:	f8d9 1000 	ldr.w	r1, [r9]
 8007b0a:	8a23      	ldrh	r3, [r4, #16]
 8007b0c:	f8d1 1154 	ldr.w	r1, [r1, #340]	@ 0x154
 8007b10:	f3c3 020a 	ubfx	r2, r3, #0, #11
 8007b14:	2902      	cmp	r1, #2
 8007b16:	d108      	bne.n	8007b2a <_ux_device_stack_interface_set+0xbe>
 8007b18:	7be1      	ldrb	r1, [r4, #15]
 8007b1a:	07c9      	lsls	r1, r1, #31
 8007b1c:	d505      	bpl.n	8007b2a <_ux_device_stack_interface_set+0xbe>
 8007b1e:	f413 53c0 	ands.w	r3, r3, #6144	@ 0x1800
 8007b22:	bf1c      	itt	ne
 8007b24:	0adb      	lsrne	r3, r3, #11
 8007b26:	fb03 2202 	mlane	r2, r3, r2, r2
 8007b2a:	f04f 33ff 	mov.w	r3, #4294967295
 8007b2e:	6422      	str	r2, [r4, #64]	@ 0x40
 8007b30:	66e3      	str	r3, [r4, #108]	@ 0x6c
 8007b32:	4622      	mov	r2, r4
 8007b34:	210e      	movs	r1, #14
 8007b36:	4638      	mov	r0, r7
 8007b38:	e9c4 5b06 	strd	r5, fp, [r4, #24]
 8007b3c:	69bb      	ldr	r3, [r7, #24]
 8007b3e:	62a4      	str	r4, [r4, #40]	@ 0x28
 8007b40:	4798      	blx	r3
 8007b42:	b128      	cbz	r0, 8007b50 <_ux_device_stack_interface_set+0xe4>
 8007b44:	2300      	movs	r3, #0
 8007b46:	6023      	str	r3, [r4, #0]
 8007b48:	e79c      	b.n	8007a84 <_ux_device_stack_interface_set+0x18>
 8007b4a:	3480      	adds	r4, #128	@ 0x80
 8007b4c:	3b01      	subs	r3, #1
 8007b4e:	e7cd      	b.n	8007aec <_ux_device_stack_interface_set+0x80>
 8007b50:	69eb      	ldr	r3, [r5, #28]
 8007b52:	b923      	cbnz	r3, 8007b5e <_ux_device_stack_interface_set+0xf2>
 8007b54:	61ec      	str	r4, [r5, #28]
 8007b56:	eba8 080a 	sub.w	r8, r8, sl
 8007b5a:	4456      	add	r6, sl
 8007b5c:	e7ad      	b.n	8007aba <_ux_device_stack_interface_set+0x4e>
 8007b5e:	461a      	mov	r2, r3
 8007b60:	695b      	ldr	r3, [r3, #20]
 8007b62:	2b00      	cmp	r3, #0
 8007b64:	d1fb      	bne.n	8007b5e <_ux_device_stack_interface_set+0xf2>
 8007b66:	6154      	str	r4, [r2, #20]
 8007b68:	e7f5      	b.n	8007b56 <_ux_device_stack_interface_set+0xea>
 8007b6a:	bf00      	nop
 8007b6c:	2000002b 	.word	0x2000002b
 8007b70:	2000004a 	.word	0x2000004a
 8007b74:	20003a98 	.word	0x20003a98

08007b78 <_ux_device_stack_interface_start>:
 8007b78:	b530      	push	{r4, r5, lr}
 8007b7a:	4b15      	ldr	r3, [pc, #84]	@ (8007bd0 <_ux_device_stack_interface_start+0x58>)
 8007b7c:	7b82      	ldrb	r2, [r0, #14]
 8007b7e:	681b      	ldr	r3, [r3, #0]
 8007b80:	4604      	mov	r4, r0
 8007b82:	eb03 0282 	add.w	r2, r3, r2, lsl #2
 8007b86:	f8d2 5114 	ldr.w	r5, [r2, #276]	@ 0x114
 8007b8a:	b08d      	sub	sp, #52	@ 0x34
 8007b8c:	b915      	cbnz	r5, 8007b94 <_ux_device_stack_interface_start+0x1c>
 8007b8e:	2057      	movs	r0, #87	@ 0x57
 8007b90:	b00d      	add	sp, #52	@ 0x34
 8007b92:	bd30      	pop	{r4, r5, pc}
 8007b94:	2201      	movs	r2, #1
 8007b96:	9201      	str	r2, [sp, #4]
 8007b98:	7c42      	ldrb	r2, [r0, #17]
 8007b9a:	9003      	str	r0, [sp, #12]
 8007b9c:	9206      	str	r2, [sp, #24]
 8007b9e:	7c82      	ldrb	r2, [r0, #18]
 8007ba0:	9207      	str	r2, [sp, #28]
 8007ba2:	7cc2      	ldrb	r2, [r0, #19]
 8007ba4:	9208      	str	r2, [sp, #32]
 8007ba6:	8d9a      	ldrh	r2, [r3, #44]	@ 0x2c
 8007ba8:	8ddb      	ldrh	r3, [r3, #46]	@ 0x2e
 8007baa:	9205      	str	r2, [sp, #20]
 8007bac:	9304      	str	r3, [sp, #16]
 8007bae:	f8c5 0110 	str.w	r0, [r5, #272]	@ 0x110
 8007bb2:	6c6b      	ldr	r3, [r5, #68]	@ 0x44
 8007bb4:	a801      	add	r0, sp, #4
 8007bb6:	4798      	blx	r3
 8007bb8:	2800      	cmp	r0, #0
 8007bba:	d1e8      	bne.n	8007b8e <_ux_device_stack_interface_start+0x16>
 8007bbc:	2302      	movs	r3, #2
 8007bbe:	9509      	str	r5, [sp, #36]	@ 0x24
 8007bc0:	9301      	str	r3, [sp, #4]
 8007bc2:	a801      	add	r0, sp, #4
 8007bc4:	6c6b      	ldr	r3, [r5, #68]	@ 0x44
 8007bc6:	4798      	blx	r3
 8007bc8:	2800      	cmp	r0, #0
 8007bca:	d1e1      	bne.n	8007b90 <_ux_device_stack_interface_start+0x18>
 8007bcc:	6065      	str	r5, [r4, #4]
 8007bce:	e7df      	b.n	8007b90 <_ux_device_stack_interface_start+0x18>
 8007bd0:	20003a98 	.word	0x20003a98

08007bd4 <_ux_device_stack_set_feature>:
 8007bd4:	4603      	mov	r3, r0
 8007bd6:	b510      	push	{r4, lr}
 8007bd8:	4614      	mov	r4, r2
 8007bda:	4a13      	ldr	r2, [pc, #76]	@ (8007c28 <_ux_device_stack_set_feature+0x54>)
 8007bdc:	f013 0303 	ands.w	r3, r3, #3
 8007be0:	6810      	ldr	r0, [r2, #0]
 8007be2:	d005      	beq.n	8007bf0 <_ux_device_stack_set_feature+0x1c>
 8007be4:	2b02      	cmp	r3, #2
 8007be6:	d00c      	beq.n	8007c02 <_ux_device_stack_set_feature+0x2e>
 8007be8:	6983      	ldr	r3, [r0, #24]
 8007bea:	f100 0238 	add.w	r2, r0, #56	@ 0x38
 8007bee:	e014      	b.n	8007c1a <_ux_device_stack_set_feature+0x46>
 8007bf0:	2901      	cmp	r1, #1
 8007bf2:	d117      	bne.n	8007c24 <_ux_device_stack_set_feature+0x50>
 8007bf4:	f8d0 315c 	ldr.w	r3, [r0, #348]	@ 0x15c
 8007bf8:	b1a3      	cbz	r3, 8007c24 <_ux_device_stack_set_feature+0x50>
 8007bfa:	f8c0 1160 	str.w	r1, [r0, #352]	@ 0x160
 8007bfe:	2000      	movs	r0, #0
 8007c00:	bd10      	pop	{r4, pc}
 8007c02:	f8d0 30c8 	ldr.w	r3, [r0, #200]	@ 0xc8
 8007c06:	2b00      	cmp	r3, #0
 8007c08:	d0ee      	beq.n	8007be8 <_ux_device_stack_set_feature+0x14>
 8007c0a:	69da      	ldr	r2, [r3, #28]
 8007c0c:	b90a      	cbnz	r2, 8007c12 <_ux_device_stack_set_feature+0x3e>
 8007c0e:	699b      	ldr	r3, [r3, #24]
 8007c10:	e7f9      	b.n	8007c06 <_ux_device_stack_set_feature+0x32>
 8007c12:	7b91      	ldrb	r1, [r2, #14]
 8007c14:	42a1      	cmp	r1, r4
 8007c16:	d103      	bne.n	8007c20 <_ux_device_stack_set_feature+0x4c>
 8007c18:	6983      	ldr	r3, [r0, #24]
 8007c1a:	2114      	movs	r1, #20
 8007c1c:	4798      	blx	r3
 8007c1e:	e7ee      	b.n	8007bfe <_ux_device_stack_set_feature+0x2a>
 8007c20:	6952      	ldr	r2, [r2, #20]
 8007c22:	e7f3      	b.n	8007c0c <_ux_device_stack_set_feature+0x38>
 8007c24:	2054      	movs	r0, #84	@ 0x54
 8007c26:	e7eb      	b.n	8007c00 <_ux_device_stack_set_feature+0x2c>
 8007c28:	20003a98 	.word	0x20003a98

08007c2c <_ux_device_stack_transfer_abort>:
 8007c2c:	b538      	push	{r3, r4, r5, lr}
 8007c2e:	4604      	mov	r4, r0
 8007c30:	4b0c      	ldr	r3, [pc, #48]	@ (8007c64 <_ux_device_stack_transfer_abort+0x38>)
 8007c32:	6261      	str	r1, [r4, #36]	@ 0x24
 8007c34:	6818      	ldr	r0, [r3, #0]
 8007c36:	f3ef 8510 	mrs	r5, PRIMASK
 8007c3a:	b672      	cpsid	i
 8007c3c:	6823      	ldr	r3, [r4, #0]
 8007c3e:	2b01      	cmp	r3, #1
 8007c40:	d10d      	bne.n	8007c5e <_ux_device_stack_transfer_abort+0x32>
 8007c42:	4622      	mov	r2, r4
 8007c44:	210d      	movs	r1, #13
 8007c46:	6983      	ldr	r3, [r0, #24]
 8007c48:	4798      	blx	r3
 8007c4a:	f385 8810 	msr	PRIMASK, r5
 8007c4e:	2304      	movs	r3, #4
 8007c50:	4620      	mov	r0, r4
 8007c52:	f840 3b30 	str.w	r3, [r0], #48
 8007c56:	f000 fa8f 	bl	8008178 <_ux_utility_semaphore_put>
 8007c5a:	2000      	movs	r0, #0
 8007c5c:	bd38      	pop	{r3, r4, r5, pc}
 8007c5e:	f385 8810 	msr	PRIMASK, r5
 8007c62:	e7fa      	b.n	8007c5a <_ux_device_stack_transfer_abort+0x2e>
 8007c64:	20003a98 	.word	0x20003a98

08007c68 <_ux_device_stack_transfer_all_request_abort>:
 8007c68:	b508      	push	{r3, lr}
 8007c6a:	3020      	adds	r0, #32
 8007c6c:	f7ff ffde 	bl	8007c2c <_ux_device_stack_transfer_abort>
 8007c70:	2000      	movs	r0, #0
 8007c72:	bd08      	pop	{r3, pc}

08007c74 <_ux_device_stack_transfer_request>:
 8007c74:	6dc3      	ldr	r3, [r0, #92]	@ 0x5c
 8007c76:	e92d 41f0 	stmdb	sp!, {r4, r5, r6, r7, r8, lr}
 8007c7a:	2b01      	cmp	r3, #1
 8007c7c:	4604      	mov	r4, r0
 8007c7e:	460d      	mov	r5, r1
 8007c80:	4617      	mov	r7, r2
 8007c82:	d045      	beq.n	8007d10 <_ux_device_stack_transfer_request+0x9c>
 8007c84:	f3ef 8210 	mrs	r2, PRIMASK
 8007c88:	b672      	cpsid	i
 8007c8a:	4922      	ldr	r1, [pc, #136]	@ (8007d14 <_ux_device_stack_transfer_request+0xa0>)
 8007c8c:	680b      	ldr	r3, [r1, #0]
 8007c8e:	6a1b      	ldr	r3, [r3, #32]
 8007c90:	3b01      	subs	r3, #1
 8007c92:	2b02      	cmp	r3, #2
 8007c94:	d80d      	bhi.n	8007cb2 <_ux_device_stack_transfer_request+0x3e>
 8007c96:	2301      	movs	r3, #1
 8007c98:	6003      	str	r3, [r0, #0]
 8007c9a:	f382 8810 	msr	PRIMASK, r2
 8007c9e:	6886      	ldr	r6, [r0, #8]
 8007ca0:	f8d1 8000 	ldr.w	r8, [r1]
 8007ca4:	7bf3      	ldrb	r3, [r6, #15]
 8007ca6:	079b      	lsls	r3, r3, #30
 8007ca8:	d10b      	bne.n	8007cc2 <_ux_device_stack_transfer_request+0x4e>
 8007caa:	6a83      	ldr	r3, [r0, #40]	@ 0x28
 8007cac:	2b03      	cmp	r3, #3
 8007cae:	d11f      	bne.n	8007cf0 <_ux_device_stack_transfer_request+0x7c>
 8007cb0:	e010      	b.n	8007cd4 <_ux_device_stack_transfer_request+0x60>
 8007cb2:	f382 8810 	msr	PRIMASK, r2
 8007cb6:	2025      	movs	r0, #37	@ 0x25
 8007cb8:	e8bd 81f0 	ldmia.w	sp!, {r4, r5, r6, r7, r8, pc}
 8007cbc:	2064      	movs	r0, #100	@ 0x64
 8007cbe:	f000 f89e 	bl	8007dfe <_ux_utility_delay_ms>
 8007cc2:	6873      	ldr	r3, [r6, #4]
 8007cc4:	2b02      	cmp	r3, #2
 8007cc6:	d0f9      	beq.n	8007cbc <_ux_device_stack_transfer_request+0x48>
 8007cc8:	f996 300e 	ldrsb.w	r3, [r6, #14]
 8007ccc:	2b00      	cmp	r3, #0
 8007cce:	da0d      	bge.n	8007cec <_ux_device_stack_transfer_request+0x78>
 8007cd0:	2303      	movs	r3, #3
 8007cd2:	62a3      	str	r3, [r4, #40]	@ 0x28
 8007cd4:	b165      	cbz	r5, 8007cf0 <_ux_device_stack_transfer_request+0x7c>
 8007cd6:	42bd      	cmp	r5, r7
 8007cd8:	d00a      	beq.n	8007cf0 <_ux_device_stack_transfer_request+0x7c>
 8007cda:	8a32      	ldrh	r2, [r6, #16]
 8007cdc:	fbb5 f3f2 	udiv	r3, r5, r2
 8007ce0:	fb02 5313 	mls	r3, r2, r3, r5
 8007ce4:	fab3 f383 	clz	r3, r3
 8007ce8:	095b      	lsrs	r3, r3, #5
 8007cea:	e002      	b.n	8007cf2 <_ux_device_stack_transfer_request+0x7e>
 8007cec:	2302      	movs	r3, #2
 8007cee:	62a3      	str	r3, [r4, #40]	@ 0x28
 8007cf0:	2300      	movs	r3, #0
 8007cf2:	6523      	str	r3, [r4, #80]	@ 0x50
 8007cf4:	2300      	movs	r3, #0
 8007cf6:	e9c4 5305 	strd	r5, r3, [r4, #20]
 8007cfa:	68e3      	ldr	r3, [r4, #12]
 8007cfc:	4622      	mov	r2, r4
 8007cfe:	6123      	str	r3, [r4, #16]
 8007d00:	4640      	mov	r0, r8
 8007d02:	f8d8 3018 	ldr.w	r3, [r8, #24]
 8007d06:	61e5      	str	r5, [r4, #28]
 8007d08:	210c      	movs	r1, #12
 8007d0a:	e8bd 41f0 	ldmia.w	sp!, {r4, r5, r6, r7, r8, lr}
 8007d0e:	4718      	bx	r3
 8007d10:	2000      	movs	r0, #0
 8007d12:	e7d1      	b.n	8007cb8 <_ux_device_stack_transfer_request+0x44>
 8007d14:	20003a98 	.word	0x20003a98

08007d18 <_ux_system_error_handler>:
 8007d18:	4b07      	ldr	r3, [pc, #28]	@ (8007d38 <_ux_system_error_handler+0x20>)
 8007d1a:	b410      	push	{r4}
 8007d1c:	681b      	ldr	r3, [r3, #0]
 8007d1e:	6c5c      	ldr	r4, [r3, #68]	@ 0x44
 8007d20:	641a      	str	r2, [r3, #64]	@ 0x40
 8007d22:	3401      	adds	r4, #1
 8007d24:	645c      	str	r4, [r3, #68]	@ 0x44
 8007d26:	6c9b      	ldr	r3, [r3, #72]	@ 0x48
 8007d28:	b113      	cbz	r3, 8007d30 <_ux_system_error_handler+0x18>
 8007d2a:	f85d 4b04 	ldr.w	r4, [sp], #4
 8007d2e:	4718      	bx	r3
 8007d30:	f85d 4b04 	ldr.w	r4, [sp], #4
 8007d34:	4770      	bx	lr
 8007d36:	bf00      	nop
 8007d38:	20003a9c 	.word	0x20003a9c

08007d3c <_ux_system_initialize>:
 8007d3c:	e92d 43f8 	stmdb	sp!, {r3, r4, r5, r6, r7, r8, r9, lr}
 8007d40:	4689      	mov	r9, r1
 8007d42:	4616      	mov	r6, r2
 8007d44:	461f      	mov	r7, r3
 8007d46:	4604      	mov	r4, r0
 8007d48:	2800      	cmp	r0, #0
 8007d4a:	d045      	beq.n	8007dd8 <_ux_system_initialize+0x9c>
 8007d4c:	2900      	cmp	r1, #0
 8007d4e:	d043      	beq.n	8007dd8 <_ux_system_initialize+0x9c>
 8007d50:	460a      	mov	r2, r1
 8007d52:	2100      	movs	r1, #0
 8007d54:	f000 f9b6 	bl	80080c4 <_ux_utility_memory_set>
 8007d58:	f8df 8088 	ldr.w	r8, [pc, #136]	@ 8007de4 <_ux_system_initialize+0xa8>
 8007d5c:	4a1f      	ldr	r2, [pc, #124]	@ (8007ddc <_ux_system_initialize+0xa0>)
 8007d5e:	f104 034c 	add.w	r3, r4, #76	@ 0x4c
 8007d62:	f504 70e8 	add.w	r0, r4, #464	@ 0x1d0
 8007d66:	f8c8 4000 	str.w	r4, [r8]
 8007d6a:	6013      	str	r3, [r2, #0]
 8007d6c:	6020      	str	r0, [r4, #0]
 8007d6e:	b17e      	cbz	r6, 8007d90 <_ux_system_initialize+0x54>
 8007d70:	b177      	cbz	r7, 8007d90 <_ux_system_initialize+0x54>
 8007d72:	f44f 75fc 	mov.w	r5, #504	@ 0x1f8
 8007d76:	f504 73f2 	add.w	r3, r4, #484	@ 0x1e4
 8007d7a:	4425      	add	r5, r4
 8007d7c:	3507      	adds	r5, #7
 8007d7e:	6063      	str	r3, [r4, #4]
 8007d80:	f025 0107 	bic.w	r1, r5, #7
 8007d84:	444c      	add	r4, r9
 8007d86:	42a1      	cmp	r1, r4
 8007d88:	d306      	bcc.n	8007d98 <_ux_system_initialize+0x5c>
 8007d8a:	2012      	movs	r0, #18
 8007d8c:	e8bd 83f8 	ldmia.w	sp!, {r3, r4, r5, r6, r7, r8, r9, pc}
 8007d90:	4603      	mov	r3, r0
 8007d92:	f44f 75f2 	mov.w	r5, #484	@ 0x1e4
 8007d96:	e7f0      	b.n	8007d7a <_ux_system_initialize+0x3e>
 8007d98:	1a62      	subs	r2, r4, r1
 8007d9a:	f000 f8f3 	bl	8007f84 <_ux_utility_memory_byte_pool_create>
 8007d9e:	b18e      	cbz	r6, 8007dc4 <_ux_system_initialize+0x88>
 8007da0:	b187      	cbz	r7, 8007dc4 <_ux_system_initialize+0x88>
 8007da2:	463a      	mov	r2, r7
 8007da4:	2100      	movs	r1, #0
 8007da6:	4630      	mov	r0, r6
 8007da8:	f000 f98c 	bl	80080c4 <_ux_utility_memory_set>
 8007dac:	1df1      	adds	r1, r6, #7
 8007dae:	f021 0107 	bic.w	r1, r1, #7
 8007db2:	19f2      	adds	r2, r6, r7
 8007db4:	4291      	cmp	r1, r2
 8007db6:	d2e8      	bcs.n	8007d8a <_ux_system_initialize+0x4e>
 8007db8:	f8d8 3000 	ldr.w	r3, [r8]
 8007dbc:	1a52      	subs	r2, r2, r1
 8007dbe:	6858      	ldr	r0, [r3, #4]
 8007dc0:	f000 f8e0 	bl	8007f84 <_ux_utility_memory_byte_pool_create>
 8007dc4:	f8d8 0000 	ldr.w	r0, [r8]
 8007dc8:	4905      	ldr	r1, [pc, #20]	@ (8007de0 <_ux_system_initialize+0xa4>)
 8007dca:	300c      	adds	r0, #12
 8007dcc:	f000 f981 	bl	80080d2 <_ux_utility_mutex_create>
 8007dd0:	2800      	cmp	r0, #0
 8007dd2:	bf18      	it	ne
 8007dd4:	2017      	movne	r0, #23
 8007dd6:	e7d9      	b.n	8007d8c <_ux_system_initialize+0x50>
 8007dd8:	20fa      	movs	r0, #250	@ 0xfa
 8007dda:	e7d7      	b.n	8007d8c <_ux_system_initialize+0x50>
 8007ddc:	20003a98 	.word	0x20003a98
 8007de0:	0800918c 	.word	0x0800918c
 8007de4:	20003a9c 	.word	0x20003a9c

08007de8 <_uxe_system_initialize>:
 8007de8:	b410      	push	{r4}
 8007dea:	b120      	cbz	r0, 8007df6 <_uxe_system_initialize+0xe>
 8007dec:	b119      	cbz	r1, 8007df6 <_uxe_system_initialize+0xe>
 8007dee:	f85d 4b04 	ldr.w	r4, [sp], #4
 8007df2:	f7ff bfa3 	b.w	8007d3c <_ux_system_initialize>
 8007df6:	20fa      	movs	r0, #250	@ 0xfa
 8007df8:	f85d 4b04 	ldr.w	r4, [sp], #4
 8007dfc:	4770      	bx	lr

08007dfe <_ux_utility_delay_ms>:
 8007dfe:	2364      	movs	r3, #100	@ 0x64
 8007e00:	4358      	muls	r0, r3
 8007e02:	f44f 737a 	mov.w	r3, #1000	@ 0x3e8
 8007e06:	fbb0 f0f3 	udiv	r0, r0, r3
 8007e0a:	3001      	adds	r0, #1
 8007e0c:	f7fe bab2 	b.w	8006374 <_tx_thread_sleep>

08007e10 <_ux_utility_descriptor_parse>:
 8007e10:	e92d 41f0 	stmdb	sp!, {r4, r5, r6, r7, r8, lr}
 8007e14:	4605      	mov	r5, r0
 8007e16:	460e      	mov	r6, r1
 8007e18:	461c      	mov	r4, r3
 8007e1a:	f04f 0800 	mov.w	r8, #0
 8007e1e:	188f      	adds	r7, r1, r2
 8007e20:	42be      	cmp	r6, r7
 8007e22:	d101      	bne.n	8007e28 <_ux_utility_descriptor_parse+0x18>
 8007e24:	e8bd 81f0 	ldmia.w	sp!, {r4, r5, r6, r7, r8, pc}
 8007e28:	f816 3b01 	ldrb.w	r3, [r6], #1
 8007e2c:	2b02      	cmp	r3, #2
 8007e2e:	d013      	beq.n	8007e58 <_ux_utility_descriptor_parse+0x48>
 8007e30:	2b04      	cmp	r3, #4
 8007e32:	d006      	beq.n	8007e42 <_ux_utility_descriptor_parse+0x32>
 8007e34:	f815 3b01 	ldrb.w	r3, [r5], #1
 8007e38:	f804 3b01 	strb.w	r3, [r4], #1
 8007e3c:	e7f0      	b.n	8007e20 <_ux_utility_descriptor_parse+0x10>
 8007e3e:	f804 8b01 	strb.w	r8, [r4], #1
 8007e42:	07a2      	lsls	r2, r4, #30
 8007e44:	d1fb      	bne.n	8007e3e <_ux_utility_descriptor_parse+0x2e>
 8007e46:	4628      	mov	r0, r5
 8007e48:	f000 f80f 	bl	8007e6a <_ux_utility_long_get>
 8007e4c:	3504      	adds	r5, #4
 8007e4e:	f844 0b04 	str.w	r0, [r4], #4
 8007e52:	e7e5      	b.n	8007e20 <_ux_utility_descriptor_parse+0x10>
 8007e54:	f804 8b01 	strb.w	r8, [r4], #1
 8007e58:	07e3      	lsls	r3, r4, #31
 8007e5a:	d4fb      	bmi.n	8007e54 <_ux_utility_descriptor_parse+0x44>
 8007e5c:	4628      	mov	r0, r5
 8007e5e:	f000 f98d 	bl	800817c <_ux_utility_short_get>
 8007e62:	3502      	adds	r5, #2
 8007e64:	f824 0b02 	strh.w	r0, [r4], #2
 8007e68:	e7da      	b.n	8007e20 <_ux_utility_descriptor_parse+0x10>

08007e6a <_ux_utility_long_get>:
 8007e6a:	6800      	ldr	r0, [r0, #0]
 8007e6c:	4770      	bx	lr

08007e6e <_ux_utility_long_put>:
 8007e6e:	0a0b      	lsrs	r3, r1, #8
 8007e70:	7001      	strb	r1, [r0, #0]
 8007e72:	7043      	strb	r3, [r0, #1]
 8007e74:	0c0b      	lsrs	r3, r1, #16
 8007e76:	0e09      	lsrs	r1, r1, #24
 8007e78:	7083      	strb	r3, [r0, #2]
 8007e7a:	70c1      	strb	r1, [r0, #3]
 8007e7c:	4770      	bx	lr
	...

08007e80 <_ux_utility_memory_allocate>:
 8007e80:	b5f8      	push	{r3, r4, r5, r6, r7, lr}
 8007e82:	4606      	mov	r6, r0
 8007e84:	4615      	mov	r5, r2
 8007e86:	bb29      	cbnz	r1, 8007ed4 <_ux_utility_memory_allocate+0x54>
 8007e88:	4b36      	ldr	r3, [pc, #216]	@ (8007f64 <_ux_utility_memory_allocate+0xe4>)
 8007e8a:	681b      	ldr	r3, [r3, #0]
 8007e8c:	681c      	ldr	r4, [r3, #0]
 8007e8e:	b1f4      	cbz	r4, 8007ece <_ux_utility_memory_allocate+0x4e>
 8007e90:	b1ed      	cbz	r5, 8007ece <_ux_utility_memory_allocate+0x4e>
 8007e92:	4f34      	ldr	r7, [pc, #208]	@ (8007f64 <_ux_utility_memory_allocate+0xe4>)
 8007e94:	6838      	ldr	r0, [r7, #0]
 8007e96:	300c      	adds	r0, #12
 8007e98:	f000 f92d 	bl	80080f6 <_ux_utility_mutex_on>
 8007e9c:	1c73      	adds	r3, r6, #1
 8007e9e:	d01f      	beq.n	8007ee0 <_ux_utility_memory_allocate+0x60>
 8007ea0:	2e07      	cmp	r6, #7
 8007ea2:	bf38      	it	cc
 8007ea4:	2607      	movcc	r6, #7
 8007ea6:	3507      	adds	r5, #7
 8007ea8:	2e07      	cmp	r6, #7
 8007eaa:	f025 0507 	bic.w	r5, r5, #7
 8007eae:	bf0c      	ite	eq
 8007eb0:	4629      	moveq	r1, r5
 8007eb2:	1971      	addne	r1, r6, r5
 8007eb4:	4620      	mov	r0, r4
 8007eb6:	f000 f883 	bl	8007fc0 <_ux_utility_memory_byte_pool_search>
 8007eba:	b998      	cbnz	r0, 8007ee4 <_ux_utility_memory_allocate+0x64>
 8007ebc:	6838      	ldr	r0, [r7, #0]
 8007ebe:	300c      	adds	r0, #12
 8007ec0:	f000 f917 	bl	80080f2 <_ux_utility_mutex_off>
 8007ec4:	2212      	movs	r2, #18
 8007ec6:	2108      	movs	r1, #8
 8007ec8:	2002      	movs	r0, #2
 8007eca:	f7ff ff25 	bl	8007d18 <_ux_system_error_handler>
 8007ece:	2400      	movs	r4, #0
 8007ed0:	4620      	mov	r0, r4
 8007ed2:	bdf8      	pop	{r3, r4, r5, r6, r7, pc}
 8007ed4:	2901      	cmp	r1, #1
 8007ed6:	d1fa      	bne.n	8007ece <_ux_utility_memory_allocate+0x4e>
 8007ed8:	4b22      	ldr	r3, [pc, #136]	@ (8007f64 <_ux_utility_memory_allocate+0xe4>)
 8007eda:	681b      	ldr	r3, [r3, #0]
 8007edc:	685c      	ldr	r4, [r3, #4]
 8007ede:	e7d6      	b.n	8007e8e <_ux_utility_memory_allocate+0xe>
 8007ee0:	2607      	movs	r6, #7
 8007ee2:	e7e0      	b.n	8007ea6 <_ux_utility_memory_allocate+0x26>
 8007ee4:	f8d0 c000 	ldr.w	ip, [r0]
 8007ee8:	f100 0108 	add.w	r1, r0, #8
 8007eec:	ebac 0200 	sub.w	r2, ip, r0
 8007ef0:	420e      	tst	r6, r1
 8007ef2:	f1a2 0208 	sub.w	r2, r2, #8
 8007ef6:	d011      	beq.n	8007f1c <_ux_utility_memory_allocate+0x9c>
 8007ef8:	f106 0308 	add.w	r3, r6, #8
 8007efc:	440b      	add	r3, r1
 8007efe:	ea23 0306 	bic.w	r3, r3, r6
 8007f02:	f1a3 0108 	sub.w	r1, r3, #8
 8007f06:	f843 cc08 	str.w	ip, [r3, #-8]
 8007f0a:	4b17      	ldr	r3, [pc, #92]	@ (8007f68 <_ux_utility_memory_allocate+0xe8>)
 8007f0c:	604b      	str	r3, [r1, #4]
 8007f0e:	6863      	ldr	r3, [r4, #4]
 8007f10:	3301      	adds	r3, #1
 8007f12:	6063      	str	r3, [r4, #4]
 8007f14:	6001      	str	r1, [r0, #0]
 8007f16:	1a08      	subs	r0, r1, r0
 8007f18:	1a12      	subs	r2, r2, r0
 8007f1a:	4608      	mov	r0, r1
 8007f1c:	1b53      	subs	r3, r2, r5
 8007f1e:	2b13      	cmp	r3, #19
 8007f20:	d90b      	bls.n	8007f3a <_ux_utility_memory_allocate+0xba>
 8007f22:	6801      	ldr	r1, [r0, #0]
 8007f24:	f105 0308 	add.w	r3, r5, #8
 8007f28:	18c2      	adds	r2, r0, r3
 8007f2a:	50c1      	str	r1, [r0, r3]
 8007f2c:	4b0e      	ldr	r3, [pc, #56]	@ (8007f68 <_ux_utility_memory_allocate+0xe8>)
 8007f2e:	6053      	str	r3, [r2, #4]
 8007f30:	6863      	ldr	r3, [r4, #4]
 8007f32:	3301      	adds	r3, #1
 8007f34:	6063      	str	r3, [r4, #4]
 8007f36:	6002      	str	r2, [r0, #0]
 8007f38:	462a      	mov	r2, r5
 8007f3a:	6823      	ldr	r3, [r4, #0]
 8007f3c:	6044      	str	r4, [r0, #4]
 8007f3e:	3b08      	subs	r3, #8
 8007f40:	1a9b      	subs	r3, r3, r2
 8007f42:	6023      	str	r3, [r4, #0]
 8007f44:	68a3      	ldr	r3, [r4, #8]
 8007f46:	2100      	movs	r1, #0
 8007f48:	4283      	cmp	r3, r0
 8007f4a:	bf04      	itt	eq
 8007f4c:	6803      	ldreq	r3, [r0, #0]
 8007f4e:	60a3      	streq	r3, [r4, #8]
 8007f50:	f100 0408 	add.w	r4, r0, #8
 8007f54:	4620      	mov	r0, r4
 8007f56:	f000 f8b5 	bl	80080c4 <_ux_utility_memory_set>
 8007f5a:	6838      	ldr	r0, [r7, #0]
 8007f5c:	300c      	adds	r0, #12
 8007f5e:	f000 f8c8 	bl	80080f2 <_ux_utility_mutex_off>
 8007f62:	e7b5      	b.n	8007ed0 <_ux_utility_memory_allocate+0x50>
 8007f64:	20003a9c 	.word	0x20003a9c
 8007f68:	ffffeeee 	.word	0xffffeeee

08007f6c <_ux_utility_memory_allocate_mulc_safe>:
 8007f6c:	b430      	push	{r4, r5}
 8007f6e:	b113      	cbz	r3, 8007f76 <_ux_utility_memory_allocate_mulc_safe+0xa>
 8007f70:	fba2 5403 	umull	r5, r4, r2, r3
 8007f74:	b91c      	cbnz	r4, 8007f7e <_ux_utility_memory_allocate_mulc_safe+0x12>
 8007f76:	bc30      	pop	{r4, r5}
 8007f78:	435a      	muls	r2, r3
 8007f7a:	f7ff bf81 	b.w	8007e80 <_ux_utility_memory_allocate>
 8007f7e:	2000      	movs	r0, #0
 8007f80:	bc30      	pop	{r4, r5}
 8007f82:	4770      	bx	lr

08007f84 <_ux_utility_memory_byte_pool_create>:
 8007f84:	b570      	push	{r4, r5, r6, lr}
 8007f86:	4614      	mov	r4, r2
 8007f88:	4606      	mov	r6, r0
 8007f8a:	460d      	mov	r5, r1
 8007f8c:	2214      	movs	r2, #20
 8007f8e:	2100      	movs	r1, #0
 8007f90:	f000 f898 	bl	80080c4 <_ux_utility_memory_set>
 8007f94:	f024 0203 	bic.w	r2, r4, #3
 8007f98:	f1a2 0308 	sub.w	r3, r2, #8
 8007f9c:	6033      	str	r3, [r6, #0]
 8007f9e:	2302      	movs	r3, #2
 8007fa0:	e9c6 5203 	strd	r5, r2, [r6, #12]
 8007fa4:	6073      	str	r3, [r6, #4]
 8007fa6:	442a      	add	r2, r5
 8007fa8:	4b04      	ldr	r3, [pc, #16]	@ (8007fbc <_ux_utility_memory_byte_pool_create+0x38>)
 8007faa:	60b5      	str	r5, [r6, #8]
 8007fac:	f842 6c04 	str.w	r6, [r2, #-4]
 8007fb0:	f842 5d08 	str.w	r5, [r2, #-8]!
 8007fb4:	2000      	movs	r0, #0
 8007fb6:	602a      	str	r2, [r5, #0]
 8007fb8:	606b      	str	r3, [r5, #4]
 8007fba:	bd70      	pop	{r4, r5, r6, pc}
 8007fbc:	ffffeeee 	.word	0xffffeeee

08007fc0 <_ux_utility_memory_byte_pool_search>:
 8007fc0:	6842      	ldr	r2, [r0, #4]
 8007fc2:	4603      	mov	r3, r0
 8007fc4:	6800      	ldr	r0, [r0, #0]
 8007fc6:	b5f0      	push	{r4, r5, r6, r7, lr}
 8007fc8:	1e94      	subs	r4, r2, #2
 8007fca:	eb00 00c4 	add.w	r0, r0, r4, lsl #3
 8007fce:	4288      	cmp	r0, r1
 8007fd0:	d801      	bhi.n	8007fd6 <_ux_utility_memory_byte_pool_search+0x16>
 8007fd2:	2000      	movs	r0, #0
 8007fd4:	bdf0      	pop	{r4, r5, r6, r7, pc}
 8007fd6:	e9d3 0402 	ldrd	r0, r4, [r3, #8]
 8007fda:	42a0      	cmp	r0, r4
 8007fdc:	d3f9      	bcc.n	8007fd2 <_ux_utility_memory_byte_pool_search+0x12>
 8007fde:	691d      	ldr	r5, [r3, #16]
 8007fe0:	442c      	add	r4, r5
 8007fe2:	42a0      	cmp	r0, r4
 8007fe4:	d8f5      	bhi.n	8007fd2 <_ux_utility_memory_byte_pool_search+0x12>
 8007fe6:	2400      	movs	r4, #0
 8007fe8:	4e13      	ldr	r6, [pc, #76]	@ (8008038 <_ux_utility_memory_byte_pool_search+0x78>)
 8007fea:	3201      	adds	r2, #1
 8007fec:	6845      	ldr	r5, [r0, #4]
 8007fee:	42b5      	cmp	r5, r6
 8007ff0:	d11d      	bne.n	800802e <_ux_utility_memory_byte_pool_search+0x6e>
 8007ff2:	b904      	cbnz	r4, 8007ff6 <_ux_utility_memory_byte_pool_search+0x36>
 8007ff4:	6098      	str	r0, [r3, #8]
 8007ff6:	6805      	ldr	r5, [r0, #0]
 8007ff8:	1a2c      	subs	r4, r5, r0
 8007ffa:	3c08      	subs	r4, #8
 8007ffc:	42a1      	cmp	r1, r4
 8007ffe:	d918      	bls.n	8008032 <_ux_utility_memory_byte_pool_search+0x72>
 8008000:	e9d5 4700 	ldrd	r4, r7, [r5]
 8008004:	42b7      	cmp	r7, r6
 8008006:	d10d      	bne.n	8008024 <_ux_utility_memory_byte_pool_search+0x64>
 8008008:	6004      	str	r4, [r0, #0]
 800800a:	685c      	ldr	r4, [r3, #4]
 800800c:	3c01      	subs	r4, #1
 800800e:	605c      	str	r4, [r3, #4]
 8008010:	689c      	ldr	r4, [r3, #8]
 8008012:	42ac      	cmp	r4, r5
 8008014:	bf08      	it	eq
 8008016:	6098      	streq	r0, [r3, #8]
 8008018:	2401      	movs	r4, #1
 800801a:	2a00      	cmp	r2, #0
 800801c:	d0d9      	beq.n	8007fd2 <_ux_utility_memory_byte_pool_search+0x12>
 800801e:	3a01      	subs	r2, #1
 8008020:	d1e4      	bne.n	8007fec <_ux_utility_memory_byte_pool_search+0x2c>
 8008022:	e7d6      	b.n	8007fd2 <_ux_utility_memory_byte_pool_search+0x12>
 8008024:	2a00      	cmp	r2, #0
 8008026:	d0d4      	beq.n	8007fd2 <_ux_utility_memory_byte_pool_search+0x12>
 8008028:	4620      	mov	r0, r4
 800802a:	3a01      	subs	r2, #1
 800802c:	e7f4      	b.n	8008018 <_ux_utility_memory_byte_pool_search+0x58>
 800802e:	6800      	ldr	r0, [r0, #0]
 8008030:	e7f3      	b.n	800801a <_ux_utility_memory_byte_pool_search+0x5a>
 8008032:	2c00      	cmp	r4, #0
 8008034:	d1ce      	bne.n	8007fd4 <_ux_utility_memory_byte_pool_search+0x14>
 8008036:	e7cc      	b.n	8007fd2 <_ux_utility_memory_byte_pool_search+0x12>
 8008038:	ffffeeee 	.word	0xffffeeee

0800803c <_ux_utility_memory_copy>:
 800803c:	3801      	subs	r0, #1
 800803e:	440a      	add	r2, r1
 8008040:	4291      	cmp	r1, r2
 8008042:	d100      	bne.n	8008046 <_ux_utility_memory_copy+0xa>
 8008044:	4770      	bx	lr
 8008046:	f811 3b01 	ldrb.w	r3, [r1], #1
 800804a:	f800 3f01 	strb.w	r3, [r0, #1]!
 800804e:	e7f7      	b.n	8008040 <_ux_utility_memory_copy+0x4>

08008050 <_ux_utility_memory_free>:
 8008050:	b538      	push	{r3, r4, r5, lr}
 8008052:	4604      	mov	r4, r0
 8008054:	4d19      	ldr	r5, [pc, #100]	@ (80080bc <_ux_utility_memory_free+0x6c>)
 8008056:	6828      	ldr	r0, [r5, #0]
 8008058:	300c      	adds	r0, #12
 800805a:	f000 f84c 	bl	80080f6 <_ux_utility_mutex_on>
 800805e:	b1bc      	cbz	r4, 8008090 <_ux_utility_memory_free+0x40>
 8008060:	f854 3c04 	ldr.w	r3, [r4, #-4]
 8008064:	4916      	ldr	r1, [pc, #88]	@ (80080c0 <_ux_utility_memory_free+0x70>)
 8008066:	682a      	ldr	r2, [r5, #0]
 8008068:	428b      	cmp	r3, r1
 800806a:	f102 000c 	add.w	r0, r2, #12
 800806e:	d006      	beq.n	800807e <_ux_utility_memory_free+0x2e>
 8008070:	b12b      	cbz	r3, 800807e <_ux_utility_memory_free+0x2e>
 8008072:	6811      	ldr	r1, [r2, #0]
 8008074:	4299      	cmp	r1, r3
 8008076:	d00e      	beq.n	8008096 <_ux_utility_memory_free+0x46>
 8008078:	6852      	ldr	r2, [r2, #4]
 800807a:	429a      	cmp	r2, r3
 800807c:	d00b      	beq.n	8008096 <_ux_utility_memory_free+0x46>
 800807e:	f000 f838 	bl	80080f2 <_ux_utility_mutex_off>
 8008082:	e8bd 4038 	ldmia.w	sp!, {r3, r4, r5, lr}
 8008086:	2219      	movs	r2, #25
 8008088:	2108      	movs	r1, #8
 800808a:	2002      	movs	r0, #2
 800808c:	f7ff be44 	b.w	8007d18 <_ux_system_error_handler>
 8008090:	6828      	ldr	r0, [r5, #0]
 8008092:	300c      	adds	r0, #12
 8008094:	e7f3      	b.n	800807e <_ux_utility_memory_free+0x2e>
 8008096:	490a      	ldr	r1, [pc, #40]	@ (80080c0 <_ux_utility_memory_free+0x70>)
 8008098:	f1a4 0208 	sub.w	r2, r4, #8
 800809c:	f844 1c04 	str.w	r1, [r4, #-4]
 80080a0:	f854 4c08 	ldr.w	r4, [r4, #-8]
 80080a4:	6819      	ldr	r1, [r3, #0]
 80080a6:	1aa4      	subs	r4, r4, r2
 80080a8:	4421      	add	r1, r4
 80080aa:	6019      	str	r1, [r3, #0]
 80080ac:	6899      	ldr	r1, [r3, #8]
 80080ae:	4291      	cmp	r1, r2
 80080b0:	bf88      	it	hi
 80080b2:	609a      	strhi	r2, [r3, #8]
 80080b4:	e8bd 4038 	ldmia.w	sp!, {r3, r4, r5, lr}
 80080b8:	f000 b81b 	b.w	80080f2 <_ux_utility_mutex_off>
 80080bc:	20003a9c 	.word	0x20003a9c
 80080c0:	ffffeeee 	.word	0xffffeeee

080080c4 <_ux_utility_memory_set>:
 80080c4:	4402      	add	r2, r0
 80080c6:	4290      	cmp	r0, r2
 80080c8:	d100      	bne.n	80080cc <_ux_utility_memory_set+0x8>
 80080ca:	4770      	bx	lr
 80080cc:	f800 1b01 	strb.w	r1, [r0], #1
 80080d0:	e7f9      	b.n	80080c6 <_ux_utility_memory_set+0x2>

080080d2 <_ux_utility_mutex_create>:
 80080d2:	b510      	push	{r4, lr}
 80080d4:	2334      	movs	r3, #52	@ 0x34
 80080d6:	2200      	movs	r2, #0
 80080d8:	f7fe fcbc 	bl	8006a54 <_txe_mutex_create>
 80080dc:	4604      	mov	r4, r0
 80080de:	b120      	cbz	r0, 80080ea <_ux_utility_mutex_create+0x18>
 80080e0:	4602      	mov	r2, r0
 80080e2:	2108      	movs	r1, #8
 80080e4:	2002      	movs	r0, #2
 80080e6:	f7ff fe17 	bl	8007d18 <_ux_system_error_handler>
 80080ea:	4620      	mov	r0, r4
 80080ec:	bd10      	pop	{r4, pc}

080080ee <_ux_utility_mutex_delete>:
 80080ee:	f7fe bd09 	b.w	8006b04 <_txe_mutex_delete>

080080f2 <_ux_utility_mutex_off>:
 80080f2:	f7fe bd57 	b.w	8006ba4 <_txe_mutex_put>

080080f6 <_ux_utility_mutex_on>:
 80080f6:	f04f 31ff 	mov.w	r1, #4294967295
 80080fa:	b508      	push	{r3, lr}
 80080fc:	f7fe fd20 	bl	8006b40 <_txe_mutex_get>
 8008100:	4602      	mov	r2, r0
 8008102:	b128      	cbz	r0, 8008110 <_ux_utility_mutex_on+0x1a>
 8008104:	e8bd 4008 	ldmia.w	sp!, {r3, lr}
 8008108:	2108      	movs	r1, #8
 800810a:	2002      	movs	r0, #2
 800810c:	f7ff be04 	b.w	8007d18 <_ux_system_error_handler>
 8008110:	bd08      	pop	{r3, pc}

08008112 <_ux_utility_semaphore_create>:
 8008112:	b510      	push	{r4, lr}
 8008114:	231c      	movs	r3, #28
 8008116:	f7fe fd61 	bl	8006bdc <_txe_semaphore_create>
 800811a:	4604      	mov	r4, r0
 800811c:	b120      	cbz	r0, 8008128 <_ux_utility_semaphore_create+0x16>
 800811e:	4602      	mov	r2, r0
 8008120:	2108      	movs	r1, #8
 8008122:	2002      	movs	r0, #2
 8008124:	f7ff fdf8 	bl	8007d18 <_ux_system_error_handler>
 8008128:	4620      	mov	r0, r4
 800812a:	bd10      	pop	{r4, pc}

0800812c <_ux_utility_semaphore_delete>:
 800812c:	f7fe bda8 	b.w	8006c80 <_txe_semaphore_delete>

08008130 <_ux_utility_semaphore_get>:
 8008130:	b530      	push	{r4, r5, lr}
 8008132:	460d      	mov	r5, r1
 8008134:	4604      	mov	r4, r0
 8008136:	b08f      	sub	sp, #60	@ 0x3c
 8008138:	f7fe f884 	bl	8006244 <_tx_thread_identify>
 800813c:	ab0d      	add	r3, sp, #52	@ 0x34
 800813e:	9304      	str	r3, [sp, #16]
 8008140:	ab0c      	add	r3, sp, #48	@ 0x30
 8008142:	9303      	str	r3, [sp, #12]
 8008144:	ab0b      	add	r3, sp, #44	@ 0x2c
 8008146:	9302      	str	r3, [sp, #8]
 8008148:	ab0a      	add	r3, sp, #40	@ 0x28
 800814a:	9301      	str	r3, [sp, #4]
 800814c:	ab09      	add	r3, sp, #36	@ 0x24
 800814e:	9300      	str	r3, [sp, #0]
 8008150:	aa07      	add	r2, sp, #28
 8008152:	ab08      	add	r3, sp, #32
 8008154:	a906      	add	r1, sp, #24
 8008156:	f7fe fe7b 	bl	8006e50 <_txe_thread_info_get>
 800815a:	4b06      	ldr	r3, [pc, #24]	@ (8008174 <_ux_utility_semaphore_get+0x44>)
 800815c:	9a09      	ldr	r2, [sp, #36]	@ 0x24
 800815e:	681b      	ldr	r3, [r3, #0]
 8008160:	4620      	mov	r0, r4
 8008162:	6899      	ldr	r1, [r3, #8]
 8008164:	4291      	cmp	r1, r2
 8008166:	bf38      	it	cc
 8008168:	609a      	strcc	r2, [r3, #8]
 800816a:	4629      	mov	r1, r5
 800816c:	f7fe fda6 	bl	8006cbc <_txe_semaphore_get>
 8008170:	b00f      	add	sp, #60	@ 0x3c
 8008172:	bd30      	pop	{r4, r5, pc}
 8008174:	20003a9c 	.word	0x20003a9c

08008178 <_ux_utility_semaphore_put>:
 8008178:	f7fe bdc0 	b.w	8006cfc <_txe_semaphore_put>

0800817c <_ux_utility_short_get>:
 800817c:	8800      	ldrh	r0, [r0, #0]
 800817e:	4770      	bx	lr

08008180 <_ux_utility_string_length_check>:
 8008180:	b510      	push	{r4, lr}
 8008182:	b150      	cbz	r0, 800819a <_ux_utility_string_length_check+0x1a>
 8008184:	2300      	movs	r3, #0
 8008186:	5cc4      	ldrb	r4, [r0, r3]
 8008188:	b14c      	cbz	r4, 800819e <_ux_utility_string_length_check+0x1e>
 800818a:	3301      	adds	r3, #1
 800818c:	4293      	cmp	r3, r2
 800818e:	d9fa      	bls.n	8008186 <_ux_utility_string_length_check+0x6>
 8008190:	22ff      	movs	r2, #255	@ 0xff
 8008192:	2108      	movs	r1, #8
 8008194:	2002      	movs	r0, #2
 8008196:	f7ff fdbf 	bl	8007d18 <_ux_system_error_handler>
 800819a:	20ff      	movs	r0, #255	@ 0xff
 800819c:	e001      	b.n	80081a2 <_ux_utility_string_length_check+0x22>
 800819e:	b909      	cbnz	r1, 80081a4 <_ux_utility_string_length_check+0x24>
 80081a0:	2000      	movs	r0, #0
 80081a2:	bd10      	pop	{r4, pc}
 80081a4:	600b      	str	r3, [r1, #0]
 80081a6:	e7fb      	b.n	80081a0 <_ux_utility_string_length_check+0x20>

080081a8 <_ux_device_class_cdc_acm_activate>:
 80081a8:	b508      	push	{r3, lr}
 80081aa:	4603      	mov	r3, r0
 80081ac:	6a02      	ldr	r2, [r0, #32]
 80081ae:	689b      	ldr	r3, [r3, #8]
 80081b0:	6c90      	ldr	r0, [r2, #72]	@ 0x48
 80081b2:	6098      	str	r0, [r3, #8]
 80081b4:	6003      	str	r3, [r0, #0]
 80081b6:	6843      	ldr	r3, [r0, #4]
 80081b8:	b103      	cbz	r3, 80081bc <_ux_device_class_cdc_acm_activate+0x14>
 80081ba:	4798      	blx	r3
 80081bc:	2000      	movs	r0, #0
 80081be:	bd08      	pop	{r3, pc}

080081c0 <_ux_device_class_cdc_acm_control_request>:
 80081c0:	6a03      	ldr	r3, [r0, #32]
 80081c2:	e92d 41f0 	stmdb	sp!, {r4, r5, r6, r7, r8, lr}
 80081c6:	6c9c      	ldr	r4, [r3, #72]	@ 0x48
 80081c8:	4b29      	ldr	r3, [pc, #164]	@ (8008270 <_ux_device_class_cdc_acm_control_request+0xb0>)
 80081ca:	681d      	ldr	r5, [r3, #0]
 80081cc:	f105 00ae 	add.w	r0, r5, #174	@ 0xae
 80081d0:	f895 80ad 	ldrb.w	r8, [r5, #173]	@ 0xad
 80081d4:	f7ff ffd2 	bl	800817c <_ux_utility_short_get>
 80081d8:	4606      	mov	r6, r0
 80081da:	f105 00b2 	add.w	r0, r5, #178	@ 0xb2
 80081de:	f7ff ffcd 	bl	800817c <_ux_utility_short_get>
 80081e2:	f1b8 0f21 	cmp.w	r8, #33	@ 0x21
 80081e6:	4607      	mov	r7, r0
 80081e8:	d016      	beq.n	8008218 <_ux_device_class_cdc_acm_control_request+0x58>
 80081ea:	f1b8 0f22 	cmp.w	r8, #34	@ 0x22
 80081ee:	d005      	beq.n	80081fc <_ux_device_class_cdc_acm_control_request+0x3c>
 80081f0:	f1b8 0f20 	cmp.w	r8, #32
 80081f4:	d02d      	beq.n	8008252 <_ux_device_class_cdc_acm_control_request+0x92>
 80081f6:	20ff      	movs	r0, #255	@ 0xff
 80081f8:	e8bd 81f0 	ldmia.w	sp!, {r4, r5, r6, r7, r8, pc}
 80081fc:	f006 0301 	and.w	r3, r6, #1
 8008200:	f3c6 0640 	ubfx	r6, r6, #1, #1
 8008204:	f884 307f 	strb.w	r3, [r4, #127]	@ 0x7f
 8008208:	f884 6080 	strb.w	r6, [r4, #128]	@ 0x80
 800820c:	68e3      	ldr	r3, [r4, #12]
 800820e:	b10b      	cbz	r3, 8008214 <_ux_device_class_cdc_acm_control_request+0x54>
 8008210:	4620      	mov	r0, r4
 8008212:	4798      	blx	r3
 8008214:	2000      	movs	r0, #0
 8008216:	e7ef      	b.n	80081f8 <_ux_device_class_cdc_acm_control_request+0x38>
 8008218:	6fa1      	ldr	r1, [r4, #120]	@ 0x78
 800821a:	6e68      	ldr	r0, [r5, #100]	@ 0x64
 800821c:	f7ff fe27 	bl	8007e6e <_ux_utility_long_put>
 8008220:	f894 207c 	ldrb.w	r2, [r4, #124]	@ 0x7c
 8008224:	6e6b      	ldr	r3, [r5, #100]	@ 0x64
 8008226:	2f07      	cmp	r7, #7
 8008228:	711a      	strb	r2, [r3, #4]
 800822a:	f894 207d 	ldrb.w	r2, [r4, #125]	@ 0x7d
 800822e:	6e6b      	ldr	r3, [r5, #100]	@ 0x64
 8008230:	4639      	mov	r1, r7
 8008232:	715a      	strb	r2, [r3, #5]
 8008234:	f894 207e 	ldrb.w	r2, [r4, #126]	@ 0x7e
 8008238:	6e6b      	ldr	r3, [r5, #100]	@ 0x64
 800823a:	bf28      	it	cs
 800823c:	2107      	movcs	r1, #7
 800823e:	719a      	strb	r2, [r3, #6]
 8008240:	2303      	movs	r3, #3
 8008242:	463a      	mov	r2, r7
 8008244:	f8c5 3080 	str.w	r3, [r5, #128]	@ 0x80
 8008248:	f105 0058 	add.w	r0, r5, #88	@ 0x58
 800824c:	f7ff fd12 	bl	8007c74 <_ux_device_stack_transfer_request>
 8008250:	e7e0      	b.n	8008214 <_ux_device_class_cdc_acm_control_request+0x54>
 8008252:	6e68      	ldr	r0, [r5, #100]	@ 0x64
 8008254:	f7ff fe09 	bl	8007e6a <_ux_utility_long_get>
 8008258:	6e6b      	ldr	r3, [r5, #100]	@ 0x64
 800825a:	67a0      	str	r0, [r4, #120]	@ 0x78
 800825c:	791a      	ldrb	r2, [r3, #4]
 800825e:	f884 207c 	strb.w	r2, [r4, #124]	@ 0x7c
 8008262:	795a      	ldrb	r2, [r3, #5]
 8008264:	f884 207d 	strb.w	r2, [r4, #125]	@ 0x7d
 8008268:	799b      	ldrb	r3, [r3, #6]
 800826a:	f884 307e 	strb.w	r3, [r4, #126]	@ 0x7e
 800826e:	e7cd      	b.n	800820c <_ux_device_class_cdc_acm_control_request+0x4c>
 8008270:	20003a98 	.word	0x20003a98

08008274 <_ux_device_class_cdc_acm_deactivate>:
 8008274:	b538      	push	{r3, r4, r5, lr}
 8008276:	6a03      	ldr	r3, [r0, #32]
 8008278:	2126      	movs	r1, #38	@ 0x26
 800827a:	6c9c      	ldr	r4, [r3, #72]	@ 0x48
 800827c:	6823      	ldr	r3, [r4, #0]
 800827e:	69dd      	ldr	r5, [r3, #28]
 8008280:	f995 300e 	ldrsb.w	r3, [r5, #14]
 8008284:	6968      	ldr	r0, [r5, #20]
 8008286:	2b00      	cmp	r3, #0
 8008288:	bfbe      	ittt	lt
 800828a:	4603      	movlt	r3, r0
 800828c:	4628      	movlt	r0, r5
 800828e:	461d      	movlt	r5, r3
 8008290:	f7ff fcea 	bl	8007c68 <_ux_device_stack_transfer_all_request_abort>
 8008294:	2126      	movs	r1, #38	@ 0x26
 8008296:	4628      	mov	r0, r5
 8008298:	f7ff fce6 	bl	8007c68 <_ux_device_stack_transfer_all_request_abort>
 800829c:	2200      	movs	r2, #0
 800829e:	2107      	movs	r1, #7
 80082a0:	4620      	mov	r0, r4
 80082a2:	f000 f85f 	bl	8008364 <_ux_device_class_cdc_acm_ioctl>
 80082a6:	68a3      	ldr	r3, [r4, #8]
 80082a8:	b10b      	cbz	r3, 80082ae <_ux_device_class_cdc_acm_deactivate+0x3a>
 80082aa:	4620      	mov	r0, r4
 80082ac:	4798      	blx	r3
 80082ae:	2000      	movs	r0, #0
 80082b0:	f884 007f 	strb.w	r0, [r4, #127]	@ 0x7f
 80082b4:	f884 0080 	strb.w	r0, [r4, #128]	@ 0x80
 80082b8:	bd38      	pop	{r3, r4, r5, pc}

080082ba <_ux_device_class_cdc_acm_entry>:
 80082ba:	6803      	ldr	r3, [r0, #0]
 80082bc:	3b01      	subs	r3, #1
 80082be:	2b06      	cmp	r3, #6
 80082c0:	d815      	bhi.n	80082ee <_ux_device_class_cdc_acm_entry+0x34>
 80082c2:	e8df f003 	tbb	[pc, r3]
 80082c6:	0e08      	.short	0x0e08
 80082c8:	14041210 	.word	0x14041210
 80082cc:	06          	.byte	0x06
 80082cd:	00          	.byte	0x00
 80082ce:	f000 b811 	b.w	80082f4 <_ux_device_class_cdc_acm_initialize>
 80082d2:	f000 b8af 	b.w	8008434 <_ux_device_class_cdc_acm_uninitialize>
 80082d6:	6943      	ldr	r3, [r0, #20]
 80082d8:	2b0a      	cmp	r3, #10
 80082da:	bf14      	ite	ne
 80082dc:	2057      	movne	r0, #87	@ 0x57
 80082de:	2000      	moveq	r0, #0
 80082e0:	4770      	bx	lr
 80082e2:	f7ff bf61 	b.w	80081a8 <_ux_device_class_cdc_acm_activate>
 80082e6:	f7ff bfc5 	b.w	8008274 <_ux_device_class_cdc_acm_deactivate>
 80082ea:	f7ff bf69 	b.w	80081c0 <_ux_device_class_cdc_acm_control_request>
 80082ee:	2054      	movs	r0, #84	@ 0x54
 80082f0:	4770      	bx	lr
	...

080082f4 <_ux_device_class_cdc_acm_initialize>:
 80082f4:	2100      	movs	r1, #0
 80082f6:	b570      	push	{r4, r5, r6, lr}
 80082f8:	2284      	movs	r2, #132	@ 0x84
 80082fa:	6a06      	ldr	r6, [r0, #32]
 80082fc:	4605      	mov	r5, r0
 80082fe:	4608      	mov	r0, r1
 8008300:	f7ff fdbe 	bl	8007e80 <_ux_utility_memory_allocate>
 8008304:	4604      	mov	r4, r0
 8008306:	b338      	cbz	r0, 8008358 <_ux_device_class_cdc_acm_initialize+0x64>
 8008308:	6a6b      	ldr	r3, [r5, #36]	@ 0x24
 800830a:	64b0      	str	r0, [r6, #72]	@ 0x48
 800830c:	681a      	ldr	r2, [r3, #0]
 800830e:	f100 0510 	add.w	r5, r0, #16
 8008312:	6042      	str	r2, [r0, #4]
 8008314:	685a      	ldr	r2, [r3, #4]
 8008316:	689b      	ldr	r3, [r3, #8]
 8008318:	6082      	str	r2, [r0, #8]
 800831a:	60c3      	str	r3, [r0, #12]
 800831c:	490f      	ldr	r1, [pc, #60]	@ (800835c <_ux_device_class_cdc_acm_initialize+0x68>)
 800831e:	4628      	mov	r0, r5
 8008320:	f7ff fed7 	bl	80080d2 <_ux_utility_mutex_create>
 8008324:	b120      	cbz	r0, 8008330 <_ux_device_class_cdc_acm_initialize+0x3c>
 8008326:	4620      	mov	r0, r4
 8008328:	f7ff fe92 	bl	8008050 <_ux_utility_memory_free>
 800832c:	2017      	movs	r0, #23
 800832e:	bd70      	pop	{r4, r5, r6, pc}
 8008330:	490b      	ldr	r1, [pc, #44]	@ (8008360 <_ux_device_class_cdc_acm_initialize+0x6c>)
 8008332:	f104 0044 	add.w	r0, r4, #68	@ 0x44
 8008336:	f7ff fecc 	bl	80080d2 <_ux_utility_mutex_create>
 800833a:	b118      	cbz	r0, 8008344 <_ux_device_class_cdc_acm_initialize+0x50>
 800833c:	4628      	mov	r0, r5
 800833e:	f7ff fed6 	bl	80080ee <_ux_utility_mutex_delete>
 8008342:	e7f0      	b.n	8008326 <_ux_device_class_cdc_acm_initialize+0x32>
 8008344:	f44f 33e1 	mov.w	r3, #115200	@ 0x1c200
 8008348:	67a3      	str	r3, [r4, #120]	@ 0x78
 800834a:	2301      	movs	r3, #1
 800834c:	f8a4 307c 	strh.w	r3, [r4, #124]	@ 0x7c
 8008350:	2308      	movs	r3, #8
 8008352:	f884 307e 	strb.w	r3, [r4, #126]	@ 0x7e
 8008356:	e7ea      	b.n	800832e <_ux_device_class_cdc_acm_initialize+0x3a>
 8008358:	2012      	movs	r0, #18
 800835a:	e7e8      	b.n	800832e <_ux_device_class_cdc_acm_initialize+0x3a>
 800835c:	0800919c 	.word	0x0800919c
 8008360:	080091bc 	.word	0x080091bc

08008364 <_ux_device_class_cdc_acm_ioctl>:
 8008364:	1e4b      	subs	r3, r1, #1
 8008366:	b510      	push	{r4, lr}
 8008368:	2b08      	cmp	r3, #8
 800836a:	d85a      	bhi.n	8008422 <_ux_device_class_cdc_acm_ioctl+0xbe>
 800836c:	e8df f003 	tbb	[pc, r3]
 8008370:	2d1f1305 	.word	0x2d1f1305
 8008374:	48595926 	.word	0x48595926
 8008378:	48          	.byte	0x48
 8008379:	00          	.byte	0x00
 800837a:	6813      	ldr	r3, [r2, #0]
 800837c:	6783      	str	r3, [r0, #120]	@ 0x78
 800837e:	7913      	ldrb	r3, [r2, #4]
 8008380:	f880 307c 	strb.w	r3, [r0, #124]	@ 0x7c
 8008384:	7953      	ldrb	r3, [r2, #5]
 8008386:	f880 307d 	strb.w	r3, [r0, #125]	@ 0x7d
 800838a:	7993      	ldrb	r3, [r2, #6]
 800838c:	f880 307e 	strb.w	r3, [r0, #126]	@ 0x7e
 8008390:	2400      	movs	r4, #0
 8008392:	4620      	mov	r0, r4
 8008394:	bd10      	pop	{r4, pc}
 8008396:	6f83      	ldr	r3, [r0, #120]	@ 0x78
 8008398:	6013      	str	r3, [r2, #0]
 800839a:	f890 307c 	ldrb.w	r3, [r0, #124]	@ 0x7c
 800839e:	7113      	strb	r3, [r2, #4]
 80083a0:	f890 307d 	ldrb.w	r3, [r0, #125]	@ 0x7d
 80083a4:	7153      	strb	r3, [r2, #5]
 80083a6:	f890 307e 	ldrb.w	r3, [r0, #126]	@ 0x7e
 80083aa:	7193      	strb	r3, [r2, #6]
 80083ac:	e7f0      	b.n	8008390 <_ux_device_class_cdc_acm_ioctl+0x2c>
 80083ae:	f890 3080 	ldrb.w	r3, [r0, #128]	@ 0x80
 80083b2:	7013      	strb	r3, [r2, #0]
 80083b4:	f890 307f 	ldrb.w	r3, [r0, #127]	@ 0x7f
 80083b8:	7053      	strb	r3, [r2, #1]
 80083ba:	e7e9      	b.n	8008390 <_ux_device_class_cdc_acm_ioctl+0x2c>
 80083bc:	7813      	ldrb	r3, [r2, #0]
 80083be:	f880 3080 	strb.w	r3, [r0, #128]	@ 0x80
 80083c2:	7853      	ldrb	r3, [r2, #1]
 80083c4:	f880 307f 	strb.w	r3, [r0, #127]	@ 0x7f
 80083c8:	e7e2      	b.n	8008390 <_ux_device_class_cdc_acm_ioctl+0x2c>
 80083ca:	6803      	ldr	r3, [r0, #0]
 80083cc:	2a01      	cmp	r2, #1
 80083ce:	69d8      	ldr	r0, [r3, #28]
 80083d0:	d00a      	beq.n	80083e8 <_ux_device_class_cdc_acm_ioctl+0x84>
 80083d2:	2a02      	cmp	r2, #2
 80083d4:	d00e      	beq.n	80083f4 <_ux_device_class_cdc_acm_ioctl+0x90>
 80083d6:	2453      	movs	r4, #83	@ 0x53
 80083d8:	6a03      	ldr	r3, [r0, #32]
 80083da:	2b01      	cmp	r3, #1
 80083dc:	d1d9      	bne.n	8008392 <_ux_device_class_cdc_acm_ioctl+0x2e>
 80083de:	21f9      	movs	r1, #249	@ 0xf9
 80083e0:	3020      	adds	r0, #32
 80083e2:	f7ff fc23 	bl	8007c2c <_ux_device_stack_transfer_abort>
 80083e6:	e7d4      	b.n	8008392 <_ux_device_class_cdc_acm_ioctl+0x2e>
 80083e8:	f990 300e 	ldrsb.w	r3, [r0, #14]
 80083ec:	2b00      	cmp	r3, #0
 80083ee:	db05      	blt.n	80083fc <_ux_device_class_cdc_acm_ioctl+0x98>
 80083f0:	6940      	ldr	r0, [r0, #20]
 80083f2:	e003      	b.n	80083fc <_ux_device_class_cdc_acm_ioctl+0x98>
 80083f4:	f990 300e 	ldrsb.w	r3, [r0, #14]
 80083f8:	2b00      	cmp	r3, #0
 80083fa:	dbf9      	blt.n	80083f0 <_ux_device_class_cdc_acm_ioctl+0x8c>
 80083fc:	2400      	movs	r4, #0
 80083fe:	e7eb      	b.n	80083d8 <_ux_device_class_cdc_acm_ioctl+0x74>
 8008400:	3908      	subs	r1, #8
 8008402:	bf18      	it	ne
 8008404:	2101      	movne	r1, #1
 8008406:	6803      	ldr	r3, [r0, #0]
 8008408:	69db      	ldr	r3, [r3, #28]
 800840a:	7b98      	ldrb	r0, [r3, #14]
 800840c:	f000 0080 	and.w	r0, r0, #128	@ 0x80
 8008410:	ebb0 1fc1 	cmp.w	r0, r1, lsl #7
 8008414:	bf18      	it	ne
 8008416:	695b      	ldrne	r3, [r3, #20]
 8008418:	6a19      	ldr	r1, [r3, #32]
 800841a:	2901      	cmp	r1, #1
 800841c:	d008      	beq.n	8008430 <_ux_device_class_cdc_acm_ioctl+0xcc>
 800841e:	66da      	str	r2, [r3, #108]	@ 0x6c
 8008420:	e7b6      	b.n	8008390 <_ux_device_class_cdc_acm_ioctl+0x2c>
 8008422:	2254      	movs	r2, #84	@ 0x54
 8008424:	2107      	movs	r1, #7
 8008426:	2002      	movs	r0, #2
 8008428:	f7ff fc76 	bl	8007d18 <_ux_system_error_handler>
 800842c:	2454      	movs	r4, #84	@ 0x54
 800842e:	e7b0      	b.n	8008392 <_ux_device_class_cdc_acm_ioctl+0x2e>
 8008430:	24ff      	movs	r4, #255	@ 0xff
 8008432:	e7ae      	b.n	8008392 <_ux_device_class_cdc_acm_ioctl+0x2e>

08008434 <_ux_device_class_cdc_acm_uninitialize>:
 8008434:	6a03      	ldr	r3, [r0, #32]
 8008436:	b510      	push	{r4, lr}
 8008438:	6c9c      	ldr	r4, [r3, #72]	@ 0x48
 800843a:	b154      	cbz	r4, 8008452 <_ux_device_class_cdc_acm_uninitialize+0x1e>
 800843c:	f104 0010 	add.w	r0, r4, #16
 8008440:	f7ff fe55 	bl	80080ee <_ux_utility_mutex_delete>
 8008444:	f104 0044 	add.w	r0, r4, #68	@ 0x44
 8008448:	f7ff fe51 	bl	80080ee <_ux_utility_mutex_delete>
 800844c:	4620      	mov	r0, r4
 800844e:	f7ff fdff 	bl	8008050 <_ux_utility_memory_free>
 8008452:	2000      	movs	r0, #0
 8008454:	bd10      	pop	{r4, pc}
	...

08008458 <HAL_PCD_SetupStageCallback>:
 8008458:	4b2d      	ldr	r3, [pc, #180]	@ (8008510 <HAL_PCD_SetupStageCallback+0xb8>)
 800845a:	e92d 41f0 	stmdb	sp!, {r4, r5, r6, r7, r8, lr}
 800845e:	681b      	ldr	r3, [r3, #0]
 8008460:	f200 419c 	addw	r1, r0, #1180	@ 0x49c
 8008464:	69dd      	ldr	r5, [r3, #28]
 8008466:	2208      	movs	r2, #8
 8008468:	686c      	ldr	r4, [r5, #4]
 800846a:	4606      	mov	r6, r0
 800846c:	f104 0074 	add.w	r0, r4, #116	@ 0x74
 8008470:	f7ff fde4 	bl	800803c <_ux_utility_memory_copy>
 8008474:	2300      	movs	r3, #0
 8008476:	2101      	movs	r1, #1
 8008478:	68aa      	ldr	r2, [r5, #8]
 800847a:	63a3      	str	r3, [r4, #56]	@ 0x38
 800847c:	f022 020e 	bic.w	r2, r2, #14
 8008480:	6261      	str	r1, [r4, #36]	@ 0x24
 8008482:	6463      	str	r3, [r4, #68]	@ 0x44
 8008484:	60aa      	str	r2, [r5, #8]
 8008486:	f994 2074 	ldrsb.w	r2, [r4, #116]	@ 0x74
 800848a:	f104 0720 	add.w	r7, r4, #32
 800848e:	429a      	cmp	r2, r3
 8008490:	da07      	bge.n	80084a2 <HAL_PCD_SetupStageCallback+0x4a>
 8008492:	2380      	movs	r3, #128	@ 0x80
 8008494:	7329      	strb	r1, [r5, #12]
 8008496:	73ab      	strb	r3, [r5, #14]
 8008498:	4638      	mov	r0, r7
 800849a:	e8bd 41f0 	ldmia.w	sp!, {r4, r5, r6, r7, r8, lr}
 800849e:	f7fe bf59 	b.w	8007354 <_ux_device_stack_control_request_process>
 80084a2:	73ab      	strb	r3, [r5, #14]
 80084a4:	f894 307a 	ldrb.w	r3, [r4, #122]	@ 0x7a
 80084a8:	b993      	cbnz	r3, 80084d0 <HAL_PCD_SetupStageCallback+0x78>
 80084aa:	f894 307b 	ldrb.w	r3, [r4, #123]	@ 0x7b
 80084ae:	b97b      	cbnz	r3, 80084d0 <HAL_PCD_SetupStageCallback+0x78>
 80084b0:	2380      	movs	r3, #128	@ 0x80
 80084b2:	4638      	mov	r0, r7
 80084b4:	73ab      	strb	r3, [r5, #14]
 80084b6:	f7fe ff4d 	bl	8007354 <_ux_device_stack_control_request_process>
 80084ba:	4603      	mov	r3, r0
 80084bc:	b9d0      	cbnz	r0, 80084f4 <HAL_PCD_SetupStageCallback+0x9c>
 80084be:	2204      	movs	r2, #4
 80084c0:	732a      	strb	r2, [r5, #12]
 80084c2:	4601      	mov	r1, r0
 80084c4:	4602      	mov	r2, r0
 80084c6:	4630      	mov	r0, r6
 80084c8:	e8bd 41f0 	ldmia.w	sp!, {r4, r5, r6, r7, r8, lr}
 80084cc:	f7fa b9db 	b.w	8002886 <HAL_PCD_EP_Transmit>
 80084d0:	f104 007a 	add.w	r0, r4, #122	@ 0x7a
 80084d4:	6aa7      	ldr	r7, [r4, #40]	@ 0x28
 80084d6:	f7ff fe51 	bl	800817c <_ux_utility_short_get>
 80084da:	f5b0 7f80 	cmp.w	r0, #256	@ 0x100
 80084de:	4603      	mov	r3, r0
 80084e0:	f04f 0800 	mov.w	r8, #0
 80084e4:	6360      	str	r0, [r4, #52]	@ 0x34
 80084e6:	d907      	bls.n	80084f8 <HAL_PCD_SetupStageCallback+0xa0>
 80084e8:	4639      	mov	r1, r7
 80084ea:	4628      	mov	r0, r5
 80084ec:	f000 f976 	bl	80087dc <_ux_dcd_stm32_endpoint_stall>
 80084f0:	f885 800c 	strb.w	r8, [r5, #12]
 80084f4:	e8bd 81f0 	ldmia.w	sp!, {r4, r5, r6, r7, r8, pc}
 80084f8:	6ae2      	ldr	r2, [r4, #44]	@ 0x2c
 80084fa:	f8c4 8038 	str.w	r8, [r4, #56]	@ 0x38
 80084fe:	6322      	str	r2, [r4, #48]	@ 0x30
 8008500:	4630      	mov	r0, r6
 8008502:	7bb9      	ldrb	r1, [r7, #14]
 8008504:	f7fa f999 	bl	800283a <HAL_PCD_EP_Receive>
 8008508:	2302      	movs	r3, #2
 800850a:	732b      	strb	r3, [r5, #12]
 800850c:	e7f2      	b.n	80084f4 <HAL_PCD_SetupStageCallback+0x9c>
 800850e:	bf00      	nop
 8008510:	20003a98 	.word	0x20003a98

08008514 <HAL_PCD_DataInStageCallback>:
 8008514:	4b2f      	ldr	r3, [pc, #188]	@ (80085d4 <HAL_PCD_DataInStageCallback+0xc0>)
 8008516:	e92d 41f0 	stmdb	sp!, {r4, r5, r6, r7, r8, lr}
 800851a:	681b      	ldr	r3, [r3, #0]
 800851c:	4606      	mov	r6, r0
 800851e:	f8d3 801c 	ldr.w	r8, [r3, #28]
 8008522:	f011 030f 	ands.w	r3, r1, #15
 8008526:	460d      	mov	r5, r1
 8008528:	d00f      	beq.n	800854a <HAL_PCD_DataInStageCallback+0x36>
 800852a:	220c      	movs	r2, #12
 800852c:	fb02 8303 	mla	r3, r2, r3, r8
 8008530:	6cdc      	ldr	r4, [r3, #76]	@ 0x4c
 8008532:	6f21      	ldr	r1, [r4, #112]	@ 0x70
 8008534:	2300      	movs	r3, #0
 8008536:	6b62      	ldr	r2, [r4, #52]	@ 0x34
 8008538:	2900      	cmp	r1, #0
 800853a:	d040      	beq.n	80085be <HAL_PCD_DataInStageCallback+0xaa>
 800853c:	2a00      	cmp	r2, #0
 800853e:	d03e      	beq.n	80085be <HAL_PCD_DataInStageCallback+0xaa>
 8008540:	461a      	mov	r2, r3
 8008542:	4629      	mov	r1, r5
 8008544:	6723      	str	r3, [r4, #112]	@ 0x70
 8008546:	63e3      	str	r3, [r4, #60]	@ 0x3c
 8008548:	e034      	b.n	80085b4 <HAL_PCD_DataInStageCallback+0xa0>
 800854a:	f8d8 4004 	ldr.w	r4, [r8, #4]
 800854e:	2900      	cmp	r1, #0
 8008550:	d1ef      	bne.n	8008532 <HAL_PCD_DataInStageCallback+0x1e>
 8008552:	f898 300c 	ldrb.w	r3, [r8, #12]
 8008556:	2b01      	cmp	r3, #1
 8008558:	d112      	bne.n	8008580 <HAL_PCD_DataInStageCallback+0x6c>
 800855a:	6aa7      	ldr	r7, [r4, #40]	@ 0x28
 800855c:	460b      	mov	r3, r1
 800855e:	460a      	mov	r2, r1
 8008560:	f7fa f96b 	bl	800283a <HAL_PCD_EP_Receive>
 8008564:	6be1      	ldr	r1, [r4, #60]	@ 0x3c
 8008566:	8a38      	ldrh	r0, [r7, #16]
 8008568:	4281      	cmp	r1, r0
 800856a:	d819      	bhi.n	80085a0 <HAL_PCD_DataInStageCallback+0x8c>
 800856c:	6f23      	ldr	r3, [r4, #112]	@ 0x70
 800856e:	2b01      	cmp	r3, #1
 8008570:	d108      	bne.n	8008584 <HAL_PCD_DataInStageCallback+0x70>
 8008572:	462b      	mov	r3, r5
 8008574:	462a      	mov	r2, r5
 8008576:	4630      	mov	r0, r6
 8008578:	7bb9      	ldrb	r1, [r7, #14]
 800857a:	f7fa f984 	bl	8002886 <HAL_PCD_EP_Transmit>
 800857e:	6725      	str	r5, [r4, #112]	@ 0x70
 8008580:	e8bd 81f0 	ldmia.w	sp!, {r4, r5, r6, r7, r8, pc}
 8008584:	2302      	movs	r3, #2
 8008586:	6223      	str	r3, [r4, #32]
 8008588:	6b63      	ldr	r3, [r4, #52]	@ 0x34
 800858a:	6465      	str	r5, [r4, #68]	@ 0x44
 800858c:	63a3      	str	r3, [r4, #56]	@ 0x38
 800858e:	6ce3      	ldr	r3, [r4, #76]	@ 0x4c
 8008590:	b113      	cbz	r3, 8008598 <HAL_PCD_DataInStageCallback+0x84>
 8008592:	f104 0020 	add.w	r0, r4, #32
 8008596:	4798      	blx	r3
 8008598:	2304      	movs	r3, #4
 800859a:	f888 300c 	strb.w	r3, [r8, #12]
 800859e:	e7ef      	b.n	8008580 <HAL_PCD_DataInStageCallback+0x6c>
 80085a0:	1a0b      	subs	r3, r1, r0
 80085a2:	4283      	cmp	r3, r0
 80085a4:	bf28      	it	cs
 80085a6:	4603      	movcs	r3, r0
 80085a8:	6b22      	ldr	r2, [r4, #48]	@ 0x30
 80085aa:	1ac9      	subs	r1, r1, r3
 80085ac:	4402      	add	r2, r0
 80085ae:	6322      	str	r2, [r4, #48]	@ 0x30
 80085b0:	63e1      	str	r1, [r4, #60]	@ 0x3c
 80085b2:	7bb9      	ldrb	r1, [r7, #14]
 80085b4:	4630      	mov	r0, r6
 80085b6:	e8bd 41f0 	ldmia.w	sp!, {r4, r5, r6, r7, r8, lr}
 80085ba:	f7fa b964 	b.w	8002886 <HAL_PCD_EP_Transmit>
 80085be:	6463      	str	r3, [r4, #68]	@ 0x44
 80085c0:	2302      	movs	r3, #2
 80085c2:	63a2      	str	r2, [r4, #56]	@ 0x38
 80085c4:	6223      	str	r3, [r4, #32]
 80085c6:	f104 0050 	add.w	r0, r4, #80	@ 0x50
 80085ca:	e8bd 41f0 	ldmia.w	sp!, {r4, r5, r6, r7, r8, lr}
 80085ce:	f7ff bdd3 	b.w	8008178 <_ux_utility_semaphore_put>
 80085d2:	bf00      	nop
 80085d4:	20003a98 	.word	0x20003a98

080085d8 <HAL_PCD_DataOutStageCallback>:
 80085d8:	e92d 41f0 	stmdb	sp!, {r4, r5, r6, r7, r8, lr}
 80085dc:	240c      	movs	r4, #12
 80085de:	4a27      	ldr	r2, [pc, #156]	@ (800867c <HAL_PCD_DataOutStageCallback+0xa4>)
 80085e0:	4605      	mov	r5, r0
 80085e2:	6812      	ldr	r2, [r2, #0]
 80085e4:	69d6      	ldr	r6, [r2, #28]
 80085e6:	f001 020f 	and.w	r2, r1, #15
 80085ea:	fb04 6202 	mla	r2, r4, r2, r6
 80085ee:	6854      	ldr	r4, [r2, #4]
 80085f0:	2900      	cmp	r1, #0
 80085f2:	d134      	bne.n	800865e <HAL_PCD_DataOutStageCallback+0x86>
 80085f4:	7b33      	ldrb	r3, [r6, #12]
 80085f6:	2b02      	cmp	r3, #2
 80085f8:	d13e      	bne.n	8008678 <HAL_PCD_DataOutStageCallback+0xa0>
 80085fa:	6aa7      	ldr	r7, [r4, #40]	@ 0x28
 80085fc:	f7fa f93b 	bl	8002876 <HAL_PCD_EP_GetRxCount>
 8008600:	6ba3      	ldr	r3, [r4, #56]	@ 0x38
 8008602:	6b62      	ldr	r2, [r4, #52]	@ 0x34
 8008604:	4403      	add	r3, r0
 8008606:	4293      	cmp	r3, r2
 8008608:	f104 0820 	add.w	r8, r4, #32
 800860c:	63a3      	str	r3, [r4, #56]	@ 0x38
 800860e:	d81e      	bhi.n	800864e <HAL_PCD_DataOutStageCallback+0x76>
 8008610:	d002      	beq.n	8008618 <HAL_PCD_DataOutStageCallback+0x40>
 8008612:	8a3b      	ldrh	r3, [r7, #16]
 8008614:	4283      	cmp	r3, r0
 8008616:	d011      	beq.n	800863c <HAL_PCD_DataOutStageCallback+0x64>
 8008618:	2300      	movs	r3, #0
 800861a:	6463      	str	r3, [r4, #68]	@ 0x44
 800861c:	2380      	movs	r3, #128	@ 0x80
 800861e:	4640      	mov	r0, r8
 8008620:	73b3      	strb	r3, [r6, #14]
 8008622:	f7fe fe97 	bl	8007354 <_ux_device_stack_control_request_process>
 8008626:	4603      	mov	r3, r0
 8008628:	bb30      	cbnz	r0, 8008678 <HAL_PCD_DataOutStageCallback+0xa0>
 800862a:	2203      	movs	r2, #3
 800862c:	4601      	mov	r1, r0
 800862e:	7332      	strb	r2, [r6, #12]
 8008630:	4602      	mov	r2, r0
 8008632:	4628      	mov	r0, r5
 8008634:	e8bd 41f0 	ldmia.w	sp!, {r4, r5, r6, r7, r8, lr}
 8008638:	f7fa b925 	b.w	8002886 <HAL_PCD_EP_Transmit>
 800863c:	6b22      	ldr	r2, [r4, #48]	@ 0x30
 800863e:	4628      	mov	r0, r5
 8008640:	441a      	add	r2, r3
 8008642:	6322      	str	r2, [r4, #48]	@ 0x30
 8008644:	7bb9      	ldrb	r1, [r7, #14]
 8008646:	e8bd 41f0 	ldmia.w	sp!, {r4, r5, r6, r7, r8, lr}
 800864a:	f7fa b8f6 	b.w	800283a <HAL_PCD_EP_Receive>
 800864e:	2327      	movs	r3, #39	@ 0x27
 8008650:	6463      	str	r3, [r4, #68]	@ 0x44
 8008652:	6ce3      	ldr	r3, [r4, #76]	@ 0x4c
 8008654:	b183      	cbz	r3, 8008678 <HAL_PCD_DataOutStageCallback+0xa0>
 8008656:	4640      	mov	r0, r8
 8008658:	e8bd 41f0 	ldmia.w	sp!, {r4, r5, r6, r7, r8, lr}
 800865c:	4718      	bx	r3
 800865e:	f7fa f90a 	bl	8002876 <HAL_PCD_EP_GetRxCount>
 8008662:	2300      	movs	r3, #0
 8008664:	6463      	str	r3, [r4, #68]	@ 0x44
 8008666:	2302      	movs	r3, #2
 8008668:	63a0      	str	r0, [r4, #56]	@ 0x38
 800866a:	6223      	str	r3, [r4, #32]
 800866c:	f104 0050 	add.w	r0, r4, #80	@ 0x50
 8008670:	e8bd 41f0 	ldmia.w	sp!, {r4, r5, r6, r7, r8, lr}
 8008674:	f7ff bd80 	b.w	8008178 <_ux_utility_semaphore_put>
 8008678:	e8bd 81f0 	ldmia.w	sp!, {r4, r5, r6, r7, r8, pc}
 800867c:	20003a98 	.word	0x20003a98

08008680 <HAL_PCD_ResetCallback>:
 8008680:	b538      	push	{r3, r4, r5, lr}
 8008682:	4c0a      	ldr	r4, [pc, #40]	@ (80086ac <HAL_PCD_ResetCallback+0x2c>)
 8008684:	4605      	mov	r5, r0
 8008686:	6823      	ldr	r3, [r4, #0]
 8008688:	6a1b      	ldr	r3, [r3, #32]
 800868a:	b10b      	cbz	r3, 8008690 <HAL_PCD_ResetCallback+0x10>
 800868c:	f7ff f850 	bl	8007730 <_ux_device_stack_disconnect>
 8008690:	79ea      	ldrb	r2, [r5, #7]
 8008692:	6823      	ldr	r3, [r4, #0]
 8008694:	2a00      	cmp	r2, #0
 8008696:	bf0c      	ite	eq
 8008698:	2202      	moveq	r2, #2
 800869a:	2201      	movne	r2, #1
 800869c:	f8c3 2154 	str.w	r2, [r3, #340]	@ 0x154
 80086a0:	f000 f932 	bl	8008908 <_ux_dcd_stm32_initialize_complete>
 80086a4:	2201      	movs	r2, #1
 80086a6:	6823      	ldr	r3, [r4, #0]
 80086a8:	621a      	str	r2, [r3, #32]
 80086aa:	bd38      	pop	{r3, r4, r5, pc}
 80086ac:	20003a98 	.word	0x20003a98

080086b0 <HAL_PCD_ConnectCallback>:
 80086b0:	4b03      	ldr	r3, [pc, #12]	@ (80086c0 <HAL_PCD_ConnectCallback+0x10>)
 80086b2:	681b      	ldr	r3, [r3, #0]
 80086b4:	f8d3 3178 	ldr.w	r3, [r3, #376]	@ 0x178
 80086b8:	b10b      	cbz	r3, 80086be <HAL_PCD_ConnectCallback+0xe>
 80086ba:	20f1      	movs	r0, #241	@ 0xf1
 80086bc:	4718      	bx	r3
 80086be:	4770      	bx	lr
 80086c0:	20003a98 	.word	0x20003a98

080086c4 <HAL_PCD_DisconnectCallback>:
 80086c4:	b510      	push	{r4, lr}
 80086c6:	4c07      	ldr	r4, [pc, #28]	@ (80086e4 <HAL_PCD_DisconnectCallback+0x20>)
 80086c8:	6823      	ldr	r3, [r4, #0]
 80086ca:	f8d3 3178 	ldr.w	r3, [r3, #376]	@ 0x178
 80086ce:	b10b      	cbz	r3, 80086d4 <HAL_PCD_DisconnectCallback+0x10>
 80086d0:	20f2      	movs	r0, #242	@ 0xf2
 80086d2:	4798      	blx	r3
 80086d4:	6823      	ldr	r3, [r4, #0]
 80086d6:	6a1b      	ldr	r3, [r3, #32]
 80086d8:	b11b      	cbz	r3, 80086e2 <HAL_PCD_DisconnectCallback+0x1e>
 80086da:	e8bd 4010 	ldmia.w	sp!, {r4, lr}
 80086de:	f7ff b827 	b.w	8007730 <_ux_device_stack_disconnect>
 80086e2:	bd10      	pop	{r4, pc}
 80086e4:	20003a98 	.word	0x20003a98

080086e8 <HAL_PCD_SuspendCallback>:
 80086e8:	4b03      	ldr	r3, [pc, #12]	@ (80086f8 <HAL_PCD_SuspendCallback+0x10>)
 80086ea:	681b      	ldr	r3, [r3, #0]
 80086ec:	f8d3 3178 	ldr.w	r3, [r3, #376]	@ 0x178
 80086f0:	b10b      	cbz	r3, 80086f6 <HAL_PCD_SuspendCallback+0xe>
 80086f2:	20f4      	movs	r0, #244	@ 0xf4
 80086f4:	4718      	bx	r3
 80086f6:	4770      	bx	lr
 80086f8:	20003a98 	.word	0x20003a98

080086fc <HAL_PCD_ResumeCallback>:
 80086fc:	4b03      	ldr	r3, [pc, #12]	@ (800870c <HAL_PCD_ResumeCallback+0x10>)
 80086fe:	681b      	ldr	r3, [r3, #0]
 8008700:	f8d3 3178 	ldr.w	r3, [r3, #376]	@ 0x178
 8008704:	b10b      	cbz	r3, 800870a <HAL_PCD_ResumeCallback+0xe>
 8008706:	20f3      	movs	r0, #243	@ 0xf3
 8008708:	4718      	bx	r3
 800870a:	4770      	bx	lr
 800870c:	20003a98 	.word	0x20003a98

08008710 <HAL_PCD_SOFCallback>:
 8008710:	4b03      	ldr	r3, [pc, #12]	@ (8008720 <HAL_PCD_SOFCallback+0x10>)
 8008712:	681b      	ldr	r3, [r3, #0]
 8008714:	f8d3 3178 	ldr.w	r3, [r3, #376]	@ 0x178
 8008718:	b10b      	cbz	r3, 800871e <HAL_PCD_SOFCallback+0xe>
 800871a:	20f0      	movs	r0, #240	@ 0xf0
 800871c:	4718      	bx	r3
 800871e:	4770      	bx	lr
 8008720:	20003a98 	.word	0x20003a98

08008724 <_ux_dcd_stm32_endpoint_create>:
 8008724:	b570      	push	{r4, r5, r6, lr}
 8008726:	460c      	mov	r4, r1
 8008728:	7b89      	ldrb	r1, [r1, #14]
 800872a:	4603      	mov	r3, r0
 800872c:	f001 027f 	and.w	r2, r1, #127	@ 0x7f
 8008730:	2a05      	cmp	r2, #5
 8008732:	d825      	bhi.n	8008780 <_ux_dcd_stm32_endpoint_create+0x5c>
 8008734:	f8d0 0094 	ldr.w	r0, [r0, #148]	@ 0x94
 8008738:	7905      	ldrb	r5, [r0, #4]
 800873a:	42aa      	cmp	r2, r5
 800873c:	d220      	bcs.n	8008780 <_ux_dcd_stm32_endpoint_create+0x5c>
 800873e:	eb02 0242 	add.w	r2, r2, r2, lsl #1
 8008742:	0092      	lsls	r2, r2, #2
 8008744:	060d      	lsls	r5, r1, #24
 8008746:	bf4c      	ite	mi
 8008748:	324c      	addmi	r2, #76	@ 0x4c
 800874a:	3204      	addpl	r2, #4
 800874c:	4413      	add	r3, r2
 800874e:	685a      	ldr	r2, [r3, #4]
 8008750:	f012 0501 	ands.w	r5, r2, #1
 8008754:	d114      	bne.n	8008780 <_ux_dcd_stm32_endpoint_create+0x5c>
 8008756:	f021 0680 	bic.w	r6, r1, #128	@ 0x80
 800875a:	f042 0201 	orr.w	r2, r2, #1
 800875e:	605a      	str	r2, [r3, #4]
 8008760:	4632      	mov	r2, r6
 8008762:	60a3      	str	r3, [r4, #8]
 8008764:	725e      	strb	r6, [r3, #9]
 8008766:	f021 067f 	bic.w	r6, r1, #127	@ 0x7f
 800876a:	601c      	str	r4, [r3, #0]
 800876c:	729e      	strb	r6, [r3, #10]
 800876e:	b12a      	cbz	r2, 800877c <_ux_dcd_stm32_endpoint_create+0x58>
 8008770:	7be3      	ldrb	r3, [r4, #15]
 8008772:	8a22      	ldrh	r2, [r4, #16]
 8008774:	f003 0303 	and.w	r3, r3, #3
 8008778:	f7f9 fff8 	bl	800276c <HAL_PCD_EP_Open>
 800877c:	4628      	mov	r0, r5
 800877e:	bd70      	pop	{r4, r5, r6, pc}
 8008780:	2514      	movs	r5, #20
 8008782:	e7fb      	b.n	800877c <_ux_dcd_stm32_endpoint_create+0x58>

08008784 <_ux_dcd_stm32_endpoint_destroy>:
 8008784:	b510      	push	{r4, lr}
 8008786:	2400      	movs	r4, #0
 8008788:	688b      	ldr	r3, [r1, #8]
 800878a:	f8d0 0094 	ldr.w	r0, [r0, #148]	@ 0x94
 800878e:	605c      	str	r4, [r3, #4]
 8008790:	7b89      	ldrb	r1, [r1, #14]
 8008792:	f7fa f824 	bl	80027de <HAL_PCD_EP_Close>
 8008796:	4620      	mov	r0, r4
 8008798:	bd10      	pop	{r4, pc}

0800879a <_ux_dcd_stm32_endpoint_reset>:
 800879a:	b570      	push	{r4, r5, r6, lr}
 800879c:	688b      	ldr	r3, [r1, #8]
 800879e:	4605      	mov	r5, r0
 80087a0:	460c      	mov	r4, r1
 80087a2:	f3ef 8610 	mrs	r6, PRIMASK
 80087a6:	b672      	cpsid	i
 80087a8:	685a      	ldr	r2, [r3, #4]
 80087aa:	f422 7243 	bic.w	r2, r2, #780	@ 0x30c
 80087ae:	605a      	str	r2, [r3, #4]
 80087b0:	2200      	movs	r2, #0
 80087b2:	721a      	strb	r2, [r3, #8]
 80087b4:	7b89      	ldrb	r1, [r1, #14]
 80087b6:	f8d0 0094 	ldr.w	r0, [r0, #148]	@ 0x94
 80087ba:	f7fa f8b5 	bl	8002928 <HAL_PCD_EP_ClrStall>
 80087be:	7ba1      	ldrb	r1, [r4, #14]
 80087c0:	f8d5 0094 	ldr.w	r0, [r5, #148]	@ 0x94
 80087c4:	f7fa fc5e 	bl	8003084 <HAL_PCD_EP_Flush>
 80087c8:	6e23      	ldr	r3, [r4, #96]	@ 0x60
 80087ca:	b11b      	cbz	r3, 80087d4 <_ux_dcd_stm32_endpoint_reset+0x3a>
 80087cc:	f104 0050 	add.w	r0, r4, #80	@ 0x50
 80087d0:	f7ff fcd2 	bl	8008178 <_ux_utility_semaphore_put>
 80087d4:	f386 8810 	msr	PRIMASK, r6
 80087d8:	2000      	movs	r0, #0
 80087da:	bd70      	pop	{r4, r5, r6, pc}

080087dc <_ux_dcd_stm32_endpoint_stall>:
 80087dc:	b508      	push	{r3, lr}
 80087de:	688b      	ldr	r3, [r1, #8]
 80087e0:	f8d0 0094 	ldr.w	r0, [r0, #148]	@ 0x94
 80087e4:	685a      	ldr	r2, [r3, #4]
 80087e6:	f042 0204 	orr.w	r2, r2, #4
 80087ea:	605a      	str	r2, [r3, #4]
 80087ec:	7b89      	ldrb	r1, [r1, #14]
 80087ee:	7a9b      	ldrb	r3, [r3, #10]
 80087f0:	4319      	orrs	r1, r3
 80087f2:	f7fa f862 	bl	80028ba <HAL_PCD_EP_SetStall>
 80087f6:	2000      	movs	r0, #0
 80087f8:	bd08      	pop	{r3, pc}

080087fa <_ux_dcd_stm32_endpoint_status>:
 80087fa:	f001 037f 	and.w	r3, r1, #127	@ 0x7f
 80087fe:	2b05      	cmp	r3, #5
 8008800:	d812      	bhi.n	8008828 <_ux_dcd_stm32_endpoint_status+0x2e>
 8008802:	f8d0 2094 	ldr.w	r2, [r0, #148]	@ 0x94
 8008806:	7912      	ldrb	r2, [r2, #4]
 8008808:	4293      	cmp	r3, r2
 800880a:	d20d      	bcs.n	8008828 <_ux_dcd_stm32_endpoint_status+0x2e>
 800880c:	220c      	movs	r2, #12
 800880e:	4353      	muls	r3, r2
 8008810:	060a      	lsls	r2, r1, #24
 8008812:	bf4c      	ite	mi
 8008814:	334c      	addmi	r3, #76	@ 0x4c
 8008816:	3304      	addpl	r3, #4
 8008818:	4418      	add	r0, r3
 800881a:	6840      	ldr	r0, [r0, #4]
 800881c:	07c3      	lsls	r3, r0, #31
 800881e:	bf4c      	ite	mi
 8008820:	f3c0 0080 	ubfxmi	r0, r0, #2, #1
 8008824:	20ff      	movpl	r0, #255	@ 0xff
 8008826:	4770      	bx	lr
 8008828:	2300      	movs	r3, #0
 800882a:	685b      	ldr	r3, [r3, #4]
 800882c:	deff      	udf	#255	@ 0xff

0800882e <_ux_dcd_stm32_frame_number_get>:
 800882e:	2000      	movs	r0, #0
 8008830:	4770      	bx	lr

08008832 <_ux_dcd_stm32_function>:
 8008832:	b508      	push	{r3, lr}
 8008834:	460b      	mov	r3, r1
 8008836:	4611      	mov	r1, r2
 8008838:	6802      	ldr	r2, [r0, #0]
 800883a:	b932      	cbnz	r2, 800884a <_ux_dcd_stm32_function+0x18>
 800883c:	2102      	movs	r1, #2
 800883e:	2255      	movs	r2, #85	@ 0x55
 8008840:	4608      	mov	r0, r1
 8008842:	f7ff fa69 	bl	8007d18 <_ux_system_error_handler>
 8008846:	2055      	movs	r0, #85	@ 0x55
 8008848:	bd08      	pop	{r3, pc}
 800884a:	3b0a      	subs	r3, #10
 800884c:	69c0      	ldr	r0, [r0, #28]
 800884e:	2b0b      	cmp	r3, #11
 8008850:	d834      	bhi.n	80088bc <_ux_dcd_stm32_function+0x8a>
 8008852:	e8df f003 	tbb	[pc, r3]
 8008856:	3306      	.short	0x3306
 8008858:	16120e0a 	.word	0x16120e0a
 800885c:	2833221a 	.word	0x2833221a
 8008860:	2f1e      	.short	0x2f1e
 8008862:	e8bd 4008 	ldmia.w	sp!, {r3, lr}
 8008866:	f7ff bfe2 	b.w	800882e <_ux_dcd_stm32_frame_number_get>
 800886a:	e8bd 4008 	ldmia.w	sp!, {r3, lr}
 800886e:	f000 b8c8 	b.w	8008a02 <_ux_dcd_stm32_transfer_request>
 8008872:	e8bd 4008 	ldmia.w	sp!, {r3, lr}
 8008876:	f000 b8b5 	b.w	80089e4 <_ux_dcd_stm32_transfer_abort>
 800887a:	e8bd 4008 	ldmia.w	sp!, {r3, lr}
 800887e:	f7ff bf51 	b.w	8008724 <_ux_dcd_stm32_endpoint_create>
 8008882:	e8bd 4008 	ldmia.w	sp!, {r3, lr}
 8008886:	f7ff bf7d 	b.w	8008784 <_ux_dcd_stm32_endpoint_destroy>
 800888a:	e8bd 4008 	ldmia.w	sp!, {r3, lr}
 800888e:	f7ff bf84 	b.w	800879a <_ux_dcd_stm32_endpoint_reset>
 8008892:	e8bd 4008 	ldmia.w	sp!, {r3, lr}
 8008896:	f7ff bfa1 	b.w	80087dc <_ux_dcd_stm32_endpoint_stall>
 800889a:	b2c9      	uxtb	r1, r1
 800889c:	f8d0 0094 	ldr.w	r0, [r0, #148]	@ 0x94
 80088a0:	f7f9 ff51 	bl	8002746 <HAL_PCD_SetAddress>
 80088a4:	e7d0      	b.n	8008848 <_ux_dcd_stm32_function+0x16>
 80088a6:	290b      	cmp	r1, #11
 80088a8:	d10f      	bne.n	80088ca <_ux_dcd_stm32_function+0x98>
 80088aa:	f8d0 0094 	ldr.w	r0, [r0, #148]	@ 0x94
 80088ae:	f7f9 ff27 	bl	8002700 <HAL_PCD_Stop>
 80088b2:	e7c9      	b.n	8008848 <_ux_dcd_stm32_function+0x16>
 80088b4:	e8bd 4008 	ldmia.w	sp!, {r3, lr}
 80088b8:	f7ff bf9f 	b.w	80087fa <_ux_dcd_stm32_endpoint_status>
 80088bc:	2102      	movs	r1, #2
 80088be:	2254      	movs	r2, #84	@ 0x54
 80088c0:	4608      	mov	r0, r1
 80088c2:	f7ff fa29 	bl	8007d18 <_ux_system_error_handler>
 80088c6:	2054      	movs	r0, #84	@ 0x54
 80088c8:	e7be      	b.n	8008848 <_ux_dcd_stm32_function+0x16>
 80088ca:	2000      	movs	r0, #0
 80088cc:	e7bc      	b.n	8008848 <_ux_dcd_stm32_function+0x16>
	...

080088d0 <_ux_dcd_stm32_initialize>:
 80088d0:	b538      	push	{r3, r4, r5, lr}
 80088d2:	4b0b      	ldr	r3, [pc, #44]	@ (8008900 <_ux_dcd_stm32_initialize+0x30>)
 80088d4:	460d      	mov	r5, r1
 80088d6:	681c      	ldr	r4, [r3, #0]
 80088d8:	2100      	movs	r1, #0
 80088da:	2380      	movs	r3, #128	@ 0x80
 80088dc:	2298      	movs	r2, #152	@ 0x98
 80088de:	4608      	mov	r0, r1
 80088e0:	6063      	str	r3, [r4, #4]
 80088e2:	f7ff facd 	bl	8007e80 <_ux_utility_memory_allocate>
 80088e6:	b148      	cbz	r0, 80088fc <_ux_dcd_stm32_initialize+0x2c>
 80088e8:	4b06      	ldr	r3, [pc, #24]	@ (8008904 <_ux_dcd_stm32_initialize+0x34>)
 80088ea:	61e0      	str	r0, [r4, #28]
 80088ec:	6004      	str	r4, [r0, #0]
 80088ee:	61a3      	str	r3, [r4, #24]
 80088f0:	2301      	movs	r3, #1
 80088f2:	f8c0 5094 	str.w	r5, [r0, #148]	@ 0x94
 80088f6:	2000      	movs	r0, #0
 80088f8:	6023      	str	r3, [r4, #0]
 80088fa:	bd38      	pop	{r3, r4, r5, pc}
 80088fc:	2012      	movs	r0, #18
 80088fe:	e7fc      	b.n	80088fa <_ux_dcd_stm32_initialize+0x2a>
 8008900:	20003a98 	.word	0x20003a98
 8008904:	08008833 	.word	0x08008833

08008908 <_ux_dcd_stm32_initialize_complete>:
 8008908:	b570      	push	{r4, r5, r6, lr}
 800890a:	4e34      	ldr	r6, [pc, #208]	@ (80089dc <_ux_dcd_stm32_initialize_complete+0xd4>)
 800890c:	6834      	ldr	r4, [r6, #0]
 800890e:	f8d4 3170 	ldr.w	r3, [r4, #368]	@ 0x170
 8008912:	69e5      	ldr	r5, [r4, #28]
 8008914:	2b01      	cmp	r3, #1
 8008916:	d14b      	bne.n	80089b0 <_ux_dcd_stm32_initialize_complete+0xa8>
 8008918:	f8d4 3108 	ldr.w	r3, [r4, #264]	@ 0x108
 800891c:	f8c4 30e0 	str.w	r3, [r4, #224]	@ 0xe0
 8008920:	f8d4 310c 	ldr.w	r3, [r4, #268]	@ 0x10c
 8008924:	220e      	movs	r2, #14
 8008926:	492e      	ldr	r1, [pc, #184]	@ (80089e0 <_ux_dcd_stm32_initialize_complete+0xd8>)
 8008928:	f8d4 00e0 	ldr.w	r0, [r4, #224]	@ 0xe0
 800892c:	f8c4 30e4 	str.w	r3, [r4, #228]	@ 0xe4
 8008930:	f104 0324 	add.w	r3, r4, #36	@ 0x24
 8008934:	f7ff fa6c 	bl	8007e10 <_ux_utility_descriptor_parse>
 8008938:	f44f 737a 	mov.w	r3, #1000	@ 0x3e8
 800893c:	f8c4 30a4 	str.w	r3, [r4, #164]	@ 0xa4
 8008940:	6e63      	ldr	r3, [r4, #100]	@ 0x64
 8008942:	f104 0238 	add.w	r2, r4, #56	@ 0x38
 8008946:	66a3      	str	r3, [r4, #104]	@ 0x68
 8008948:	f894 302b 	ldrb.w	r3, [r4, #43]	@ 0x2b
 800894c:	6622      	str	r2, [r4, #96]	@ 0x60
 800894e:	210e      	movs	r1, #14
 8008950:	f8a4 3048 	strh.w	r3, [r4, #72]	@ 0x48
 8008954:	66e3      	str	r3, [r4, #108]	@ 0x6c
 8008956:	4620      	mov	r0, r4
 8008958:	69a3      	ldr	r3, [r4, #24]
 800895a:	4798      	blx	r3
 800895c:	2100      	movs	r1, #0
 800895e:	f8d5 0094 	ldr.w	r0, [r5, #148]	@ 0x94
 8008962:	f7fa fb8f 	bl	8003084 <HAL_PCD_EP_Flush>
 8008966:	2300      	movs	r3, #0
 8008968:	f894 202b 	ldrb.w	r2, [r4, #43]	@ 0x2b
 800896c:	4619      	mov	r1, r3
 800896e:	f8d5 0094 	ldr.w	r0, [r5, #148]	@ 0x94
 8008972:	f7f9 fefb 	bl	800276c <HAL_PCD_EP_Open>
 8008976:	2180      	movs	r1, #128	@ 0x80
 8008978:	f8d5 0094 	ldr.w	r0, [r5, #148]	@ 0x94
 800897c:	f7fa fb82 	bl	8003084 <HAL_PCD_EP_Flush>
 8008980:	2300      	movs	r3, #0
 8008982:	f894 202b 	ldrb.w	r2, [r4, #43]	@ 0x2b
 8008986:	2180      	movs	r1, #128	@ 0x80
 8008988:	f8d5 0094 	ldr.w	r0, [r5, #148]	@ 0x94
 800898c:	f7f9 feee 	bl	800276c <HAL_PCD_EP_Open>
 8008990:	2300      	movs	r3, #0
 8008992:	2208      	movs	r2, #8
 8008994:	2001      	movs	r0, #1
 8008996:	e9c4 321c 	strd	r3, r2, [r4, #112]	@ 0x70
 800899a:	63e3      	str	r3, [r4, #60]	@ 0x3c
 800899c:	6833      	ldr	r3, [r6, #0]
 800899e:	e9c4 0016 	strd	r0, r0, [r4, #88]	@ 0x58
 80089a2:	f8d3 3178 	ldr.w	r3, [r3, #376]	@ 0x178
 80089a6:	66e2      	str	r2, [r4, #108]	@ 0x6c
 80089a8:	b103      	cbz	r3, 80089ac <_ux_dcd_stm32_initialize_complete+0xa4>
 80089aa:	4798      	blx	r3
 80089ac:	2000      	movs	r0, #0
 80089ae:	bd70      	pop	{r4, r5, r6, pc}
 80089b0:	2300      	movs	r3, #0
 80089b2:	f8c4 3170 	str.w	r3, [r4, #368]	@ 0x170
 80089b6:	f8d4 3154 	ldr.w	r3, [r4, #340]	@ 0x154
 80089ba:	2b01      	cmp	r3, #1
 80089bc:	bf0b      	itete	eq
 80089be:	f8d4 30e8 	ldreq.w	r3, [r4, #232]	@ 0xe8
 80089c2:	f8d4 30f0 	ldrne.w	r3, [r4, #240]	@ 0xf0
 80089c6:	f8c4 30e0 	streq.w	r3, [r4, #224]	@ 0xe0
 80089ca:	f8c4 30e0 	strne.w	r3, [r4, #224]	@ 0xe0
 80089ce:	bf0c      	ite	eq
 80089d0:	f8d4 30ec 	ldreq.w	r3, [r4, #236]	@ 0xec
 80089d4:	f8d4 30f4 	ldrne.w	r3, [r4, #244]	@ 0xf4
 80089d8:	e7a4      	b.n	8008924 <_ux_dcd_stm32_initialize_complete+0x1c>
 80089da:	bf00      	nop
 80089dc:	20003a98 	.word	0x20003a98
 80089e0:	2000003c 	.word	0x2000003c

080089e4 <_ux_dcd_stm32_transfer_abort>:
 80089e4:	b538      	push	{r3, r4, r5, lr}
 80089e6:	4604      	mov	r4, r0
 80089e8:	688d      	ldr	r5, [r1, #8]
 80089ea:	f8d0 0094 	ldr.w	r0, [r0, #148]	@ 0x94
 80089ee:	7ba9      	ldrb	r1, [r5, #14]
 80089f0:	f7f9 ffcf 	bl	8002992 <HAL_PCD_EP_Abort>
 80089f4:	7ba9      	ldrb	r1, [r5, #14]
 80089f6:	f8d4 0094 	ldr.w	r0, [r4, #148]	@ 0x94
 80089fa:	f7fa fb43 	bl	8003084 <HAL_PCD_EP_Flush>
 80089fe:	2000      	movs	r0, #0
 8008a00:	bd38      	pop	{r3, r4, r5, pc}

08008a02 <_ux_dcd_stm32_transfer_request>:
 8008a02:	b570      	push	{r4, r5, r6, lr}
 8008a04:	460c      	mov	r4, r1
 8008a06:	6aa6      	ldr	r6, [r4, #40]	@ 0x28
 8008a08:	688d      	ldr	r5, [r1, #8]
 8008a0a:	2e03      	cmp	r6, #3
 8008a0c:	f8d0 0094 	ldr.w	r0, [r0, #148]	@ 0x94
 8008a10:	7ba9      	ldrb	r1, [r5, #14]
 8008a12:	68e2      	ldr	r2, [r4, #12]
 8008a14:	6963      	ldr	r3, [r4, #20]
 8008a16:	d111      	bne.n	8008a3c <_ux_dcd_stm32_transfer_request+0x3a>
 8008a18:	f7f9 ff35 	bl	8002886 <HAL_PCD_EP_Transmit>
 8008a1c:	7bab      	ldrb	r3, [r5, #14]
 8008a1e:	065a      	lsls	r2, r3, #25
 8008a20:	d101      	bne.n	8008a26 <_ux_dcd_stm32_transfer_request+0x24>
 8008a22:	2000      	movs	r0, #0
 8008a24:	bd70      	pop	{r4, r5, r6, pc}
 8008a26:	6ce1      	ldr	r1, [r4, #76]	@ 0x4c
 8008a28:	f104 0030 	add.w	r0, r4, #48	@ 0x30
 8008a2c:	f7ff fb80 	bl	8008130 <_ux_utility_semaphore_get>
 8008a30:	2800      	cmp	r0, #0
 8008a32:	d1f7      	bne.n	8008a24 <_ux_dcd_stm32_transfer_request+0x22>
 8008a34:	6963      	ldr	r3, [r4, #20]
 8008a36:	61a3      	str	r3, [r4, #24]
 8008a38:	6a60      	ldr	r0, [r4, #36]	@ 0x24
 8008a3a:	e7f3      	b.n	8008a24 <_ux_dcd_stm32_transfer_request+0x22>
 8008a3c:	f7f9 fefd 	bl	800283a <HAL_PCD_EP_Receive>
 8008a40:	7bab      	ldrb	r3, [r5, #14]
 8008a42:	065b      	lsls	r3, r3, #25
 8008a44:	d0ed      	beq.n	8008a22 <_ux_dcd_stm32_transfer_request+0x20>
 8008a46:	6ce1      	ldr	r1, [r4, #76]	@ 0x4c
 8008a48:	f104 0030 	add.w	r0, r4, #48	@ 0x30
 8008a4c:	f7ff fb70 	bl	8008130 <_ux_utility_semaphore_get>
 8008a50:	2800      	cmp	r0, #0
 8008a52:	d0f1      	beq.n	8008a38 <_ux_dcd_stm32_transfer_request+0x36>
 8008a54:	e7e6      	b.n	8008a24 <_ux_dcd_stm32_transfer_request+0x22>
	...

08008a58 <app_ux_device_thread_entry>:
 8008a58:	b510      	push	{r4, lr}
 8008a5a:	4c14      	ldr	r4, [pc, #80]	@ (8008aac <app_ux_device_thread_entry+0x54>)
 8008a5c:	f7f8 fb00 	bl	8001060 <MX_USB_OTG_FS_PCD_Init>
 8008a60:	f44f 7100 	mov.w	r1, #512	@ 0x200
 8008a64:	4620      	mov	r0, r4
 8008a66:	f7fa fb45 	bl	80030f4 <HAL_PCDEx_SetRxFiFo>
 8008a6a:	f44f 7280 	mov.w	r2, #256	@ 0x100
 8008a6e:	2100      	movs	r1, #0
 8008a70:	4620      	mov	r0, r4
 8008a72:	f7fa fb20 	bl	80030b6 <HAL_PCDEx_SetTxFiFo>
 8008a76:	f44f 7280 	mov.w	r2, #256	@ 0x100
 8008a7a:	2101      	movs	r1, #1
 8008a7c:	4620      	mov	r0, r4
 8008a7e:	f7fa fb1a 	bl	80030b6 <HAL_PCDEx_SetTxFiFo>
 8008a82:	f44f 7280 	mov.w	r2, #256	@ 0x100
 8008a86:	2102      	movs	r1, #2
 8008a88:	4620      	mov	r0, r4
 8008a8a:	f7fa fb14 	bl	80030b6 <HAL_PCDEx_SetTxFiFo>
 8008a8e:	f44f 7280 	mov.w	r2, #256	@ 0x100
 8008a92:	2103      	movs	r1, #3
 8008a94:	4620      	mov	r0, r4
 8008a96:	f7fa fb0e 	bl	80030b6 <HAL_PCDEx_SetTxFiFo>
 8008a9a:	4621      	mov	r1, r4
 8008a9c:	4804      	ldr	r0, [pc, #16]	@ (8008ab0 <app_ux_device_thread_entry+0x58>)
 8008a9e:	f7ff ff17 	bl	80088d0 <_ux_dcd_stm32_initialize>
 8008aa2:	4620      	mov	r0, r4
 8008aa4:	e8bd 4010 	ldmia.w	sp!, {r4, lr}
 8008aa8:	f7f9 be0e 	b.w	80026c8 <HAL_PCD_Start>
 8008aac:	20002b70 	.word	0x20002b70
 8008ab0:	42040000 	.word	0x42040000

08008ab4 <MX_USBX_Device_Init>:
 8008ab4:	e92d 41f0 	stmdb	sp!, {r4, r5, r6, r7, r8, lr}
 8008ab8:	b08e      	sub	sp, #56	@ 0x38
 8008aba:	2300      	movs	r3, #0
 8008abc:	f44f 52c0 	mov.w	r2, #6144	@ 0x1800
 8008ac0:	a90d      	add	r1, sp, #52	@ 0x34
 8008ac2:	4606      	mov	r6, r0
 8008ac4:	f7fd ff2c 	bl	8006920 <_txe_byte_allocate>
 8008ac8:	4603      	mov	r3, r0
 8008aca:	b118      	cbz	r0, 8008ad4 <MX_USBX_Device_Init+0x20>
 8008acc:	2002      	movs	r0, #2
 8008ace:	b00e      	add	sp, #56	@ 0x38
 8008ad0:	e8bd 81f0 	ldmia.w	sp!, {r4, r5, r6, r7, r8, pc}
 8008ad4:	4602      	mov	r2, r0
 8008ad6:	f44f 51c0 	mov.w	r1, #6144	@ 0x1800
 8008ada:	980d      	ldr	r0, [sp, #52]	@ 0x34
 8008adc:	f7ff f984 	bl	8007de8 <_uxe_system_initialize>
 8008ae0:	4604      	mov	r4, r0
 8008ae2:	b108      	cbz	r0, 8008ae8 <MX_USBX_Device_Init+0x34>
 8008ae4:	20ff      	movs	r0, #255	@ 0xff
 8008ae6:	e7f2      	b.n	8008ace <MX_USBX_Device_Init+0x1a>
 8008ae8:	a909      	add	r1, sp, #36	@ 0x24
 8008aea:	2001      	movs	r0, #1
 8008aec:	f000 fa4c 	bl	8008f88 <USBD_Get_Device_Framework_Speed>
 8008af0:	a90a      	add	r1, sp, #40	@ 0x28
 8008af2:	4605      	mov	r5, r0
 8008af4:	4620      	mov	r0, r4
 8008af6:	f000 fa47 	bl	8008f88 <USBD_Get_Device_Framework_Speed>
 8008afa:	4607      	mov	r7, r0
 8008afc:	a80b      	add	r0, sp, #44	@ 0x2c
 8008afe:	f000 fa65 	bl	8008fcc <USBD_Get_String_Framework>
 8008b02:	4680      	mov	r8, r0
 8008b04:	a80c      	add	r0, sp, #48	@ 0x30
 8008b06:	f000 fab1 	bl	800906c <USBD_Get_Language_Id_Framework>
 8008b0a:	9b0c      	ldr	r3, [sp, #48]	@ 0x30
 8008b0c:	9404      	str	r4, [sp, #16]
 8008b0e:	e9cd 0302 	strd	r0, r3, [sp, #8]
 8008b12:	9b0b      	ldr	r3, [sp, #44]	@ 0x2c
 8008b14:	463a      	mov	r2, r7
 8008b16:	e9cd 8300 	strd	r8, r3, [sp]
 8008b1a:	4628      	mov	r0, r5
 8008b1c:	9b0a      	ldr	r3, [sp, #40]	@ 0x28
 8008b1e:	9909      	ldr	r1, [sp, #36]	@ 0x24
 8008b20:	f7fe fea2 	bl	8007868 <_ux_device_stack_initialize>
 8008b24:	4604      	mov	r4, r0
 8008b26:	2800      	cmp	r0, #0
 8008b28:	d1dc      	bne.n	8008ae4 <MX_USBX_Device_Init+0x30>
 8008b2a:	4d1d      	ldr	r5, [pc, #116]	@ (8008ba0 <MX_USBX_Device_Init+0xec>)
 8008b2c:	4b1d      	ldr	r3, [pc, #116]	@ (8008ba4 <MX_USBX_Device_Init+0xf0>)
 8008b2e:	4601      	mov	r1, r0
 8008b30:	602b      	str	r3, [r5, #0]
 8008b32:	4b1d      	ldr	r3, [pc, #116]	@ (8008ba8 <MX_USBX_Device_Init+0xf4>)
 8008b34:	2002      	movs	r0, #2
 8008b36:	606b      	str	r3, [r5, #4]
 8008b38:	4b1c      	ldr	r3, [pc, #112]	@ (8008bac <MX_USBX_Device_Init+0xf8>)
 8008b3a:	4f1d      	ldr	r7, [pc, #116]	@ (8008bb0 <MX_USBX_Device_Init+0xfc>)
 8008b3c:	60ab      	str	r3, [r5, #8]
 8008b3e:	f000 fab9 	bl	80090b4 <USBD_Get_Configuration_Number>
 8008b42:	4621      	mov	r1, r4
 8008b44:	6038      	str	r0, [r7, #0]
 8008b46:	2002      	movs	r0, #2
 8008b48:	f000 fa9e 	bl	8009088 <USBD_Get_Interface_Number>
 8008b4c:	9500      	str	r5, [sp, #0]
 8008b4e:	4603      	mov	r3, r0
 8008b50:	683a      	ldr	r2, [r7, #0]
 8008b52:	4918      	ldr	r1, [pc, #96]	@ (8008bb4 <MX_USBX_Device_Init+0x100>)
 8008b54:	4818      	ldr	r0, [pc, #96]	@ (8008bb8 <MX_USBX_Device_Init+0x104>)
 8008b56:	f7fe faaf 	bl	80070b8 <_ux_device_stack_class_register>
 8008b5a:	4603      	mov	r3, r0
 8008b5c:	2800      	cmp	r0, #0
 8008b5e:	d1c1      	bne.n	8008ae4 <MX_USBX_Device_Init+0x30>
 8008b60:	f44f 6280 	mov.w	r2, #1024	@ 0x400
 8008b64:	4630      	mov	r0, r6
 8008b66:	a90d      	add	r1, sp, #52	@ 0x34
 8008b68:	f7fd feda 	bl	8006920 <_txe_byte_allocate>
 8008b6c:	4603      	mov	r3, r0
 8008b6e:	2800      	cmp	r0, #0
 8008b70:	d1ac      	bne.n	8008acc <MX_USBX_Device_Init+0x18>
 8008b72:	2201      	movs	r2, #1
 8008b74:	21b0      	movs	r1, #176	@ 0xb0
 8008b76:	e9cd 2105 	strd	r2, r1, [sp, #20]
 8008b7a:	220a      	movs	r2, #10
 8008b7c:	e9cd 2202 	strd	r2, r2, [sp, #8]
 8008b80:	f44f 6280 	mov.w	r2, #1024	@ 0x400
 8008b84:	9201      	str	r2, [sp, #4]
 8008b86:	9a0d      	ldr	r2, [sp, #52]	@ 0x34
 8008b88:	9004      	str	r0, [sp, #16]
 8008b8a:	9200      	str	r2, [sp, #0]
 8008b8c:	490b      	ldr	r1, [pc, #44]	@ (8008bbc <MX_USBX_Device_Init+0x108>)
 8008b8e:	4a0c      	ldr	r2, [pc, #48]	@ (8008bc0 <MX_USBX_Device_Init+0x10c>)
 8008b90:	480c      	ldr	r0, [pc, #48]	@ (8008bc4 <MX_USBX_Device_Init+0x110>)
 8008b92:	f7fe f8bf 	bl	8006d14 <_txe_thread_create>
 8008b96:	2800      	cmp	r0, #0
 8008b98:	bf18      	it	ne
 8008b9a:	200e      	movne	r0, #14
 8008b9c:	e797      	b.n	8008ace <MX_USBX_Device_Init+0x1a>
 8008b9e:	bf00      	nop
 8008ba0:	20003b50 	.word	0x20003b50
 8008ba4:	08008bc9 	.word	0x08008bc9
 8008ba8:	08008bcb 	.word	0x08008bcb
 8008bac:	08008bcd 	.word	0x08008bcd
 8008bb0:	20003b5c 	.word	0x20003b5c
 8008bb4:	080082bb 	.word	0x080082bb
 8008bb8:	20000010 	.word	0x20000010
 8008bbc:	080091dd 	.word	0x080091dd
 8008bc0:	08008a59 	.word	0x08008a59
 8008bc4:	20003aa0 	.word	0x20003aa0

08008bc8 <USBD_CDC_ACM_Activate>:
 8008bc8:	4770      	bx	lr

08008bca <USBD_CDC_ACM_Deactivate>:
 8008bca:	4770      	bx	lr

08008bcc <USBD_CDC_ACM_ParameterChange>:
 8008bcc:	4770      	bx	lr

08008bce <USBD_FrameWork_AssignEp>:
 8008bce:	b5f0      	push	{r4, r5, r6, r7, lr}
 8008bd0:	255c      	movs	r5, #92	@ 0x5c
 8008bd2:	2600      	movs	r6, #0
 8008bd4:	6844      	ldr	r4, [r0, #4]
 8008bd6:	fb05 0504 	mla	r5, r5, r4, r0
 8008bda:	f8d5 c01c 	ldr.w	ip, [r5, #28]
 8008bde:	45b4      	cmp	ip, r6
 8008be0:	d10e      	bne.n	8008c00 <USBD_FrameWork_AssignEp+0x32>
 8008be2:	255c      	movs	r5, #92	@ 0x5c
 8008be4:	436c      	muls	r4, r5
 8008be6:	2506      	movs	r5, #6
 8008be8:	fb05 4406 	mla	r4, r5, r6, r4
 8008bec:	4420      	add	r0, r4
 8008bee:	84c3      	strh	r3, [r0, #38]	@ 0x26
 8008bf0:	2301      	movs	r3, #1
 8008bf2:	f880 1024 	strb.w	r1, [r0, #36]	@ 0x24
 8008bf6:	f880 2025 	strb.w	r2, [r0, #37]	@ 0x25
 8008bfa:	f880 3028 	strb.w	r3, [r0, #40]	@ 0x28
 8008bfe:	bdf0      	pop	{r4, r5, r6, r7, pc}
 8008c00:	f895 7028 	ldrb.w	r7, [r5, #40]	@ 0x28
 8008c04:	3506      	adds	r5, #6
 8008c06:	2f00      	cmp	r7, #0
 8008c08:	d0eb      	beq.n	8008be2 <USBD_FrameWork_AssignEp+0x14>
 8008c0a:	3601      	adds	r6, #1
 8008c0c:	e7e7      	b.n	8008bde <USBD_FrameWork_AssignEp+0x10>

08008c0e <USBD_Desc_GetString.part.0>:
 8008c0e:	b570      	push	{r4, r5, r6, lr}
 8008c10:	4604      	mov	r4, r0
 8008c12:	460d      	mov	r5, r1
 8008c14:	4616      	mov	r6, r2
 8008c16:	f7f7 fc4d 	bl	80004b4 <strlen>
 8008c1a:	2301      	movs	r3, #1
 8008c1c:	b2c0      	uxtb	r0, r0
 8008c1e:	8030      	strh	r0, [r6, #0]
 8008c20:	7028      	strb	r0, [r5, #0]
 8008c22:	1e60      	subs	r0, r4, #1
 8008c24:	f810 2f01 	ldrb.w	r2, [r0, #1]!
 8008c28:	b902      	cbnz	r2, 8008c2c <USBD_Desc_GetString.part.0+0x1e>
 8008c2a:	bd70      	pop	{r4, r5, r6, pc}
 8008c2c:	1c59      	adds	r1, r3, #1
 8008c2e:	54ea      	strb	r2, [r5, r3]
 8008c30:	b2cb      	uxtb	r3, r1
 8008c32:	e7f7      	b.n	8008c24 <USBD_Desc_GetString.part.0+0x16>

08008c34 <USBD_Device_Framework_Builder.constprop.0.isra.0>:
 8008c34:	e92d 4ff0 	stmdb	sp!, {r4, r5, r6, r7, r8, r9, sl, fp, lr}
 8008c38:	2300      	movs	r3, #0
 8008c3a:	460c      	mov	r4, r1
 8008c3c:	2512      	movs	r5, #18
 8008c3e:	f06f 077c 	mvn.w	r7, #124	@ 0x7c
 8008c42:	b085      	sub	sp, #20
 8008c44:	f8c0 3124 	str.w	r3, [r0, #292]	@ 0x124
 8008c48:	700d      	strb	r5, [r1, #0]
 8008c4a:	7227      	strb	r7, [r4, #8]
 8008c4c:	2704      	movs	r7, #4
 8008c4e:	7267      	strb	r7, [r4, #9]
 8008c50:	2710      	movs	r7, #16
 8008c52:	72a7      	strb	r7, [r4, #10]
 8008c54:	2757      	movs	r7, #87	@ 0x57
 8008c56:	2101      	movs	r1, #1
 8008c58:	4606      	mov	r6, r0
 8008c5a:	9202      	str	r2, [sp, #8]
 8008c5c:	72e7      	strb	r7, [r4, #11]
 8008c5e:	2202      	movs	r2, #2
 8008c60:	2040      	movs	r0, #64	@ 0x40
 8008c62:	2703      	movs	r7, #3
 8008c64:	7061      	strb	r1, [r4, #1]
 8008c66:	73a1      	strb	r1, [r4, #14]
 8008c68:	7461      	strb	r1, [r4, #17]
 8008c6a:	9902      	ldr	r1, [sp, #8]
 8008c6c:	70a3      	strb	r3, [r4, #2]
 8008c6e:	2901      	cmp	r1, #1
 8008c70:	70e2      	strb	r2, [r4, #3]
 8008c72:	7123      	strb	r3, [r4, #4]
 8008c74:	7163      	strb	r3, [r4, #5]
 8008c76:	71a3      	strb	r3, [r4, #6]
 8008c78:	71e0      	strb	r0, [r4, #7]
 8008c7a:	7323      	strb	r3, [r4, #12]
 8008c7c:	7362      	strb	r2, [r4, #13]
 8008c7e:	73e2      	strb	r2, [r4, #15]
 8008c80:	7427      	strb	r7, [r4, #16]
 8008c82:	f8c6 5120 	str.w	r5, [r6, #288]	@ 0x120
 8008c86:	d10f      	bne.n	8008ca8 <USBD_Device_Framework_Builder.constprop.0.isra.0+0x74>
 8008c88:	210a      	movs	r1, #10
 8008c8a:	7523      	strb	r3, [r4, #20]
 8008c8c:	74a1      	strb	r1, [r4, #18]
 8008c8e:	75a3      	strb	r3, [r4, #22]
 8008c90:	75e3      	strb	r3, [r4, #23]
 8008c92:	7623      	strb	r3, [r4, #24]
 8008c94:	76e3      	strb	r3, [r4, #27]
 8008c96:	2106      	movs	r1, #6
 8008c98:	231c      	movs	r3, #28
 8008c9a:	7562      	strb	r2, [r4, #21]
 8008c9c:	9a02      	ldr	r2, [sp, #8]
 8008c9e:	74e1      	strb	r1, [r4, #19]
 8008ca0:	7660      	strb	r0, [r4, #25]
 8008ca2:	76a2      	strb	r2, [r4, #26]
 8008ca4:	f8c6 3120 	str.w	r3, [r6, #288]	@ 0x120
 8008ca8:	f8df a2d8 	ldr.w	sl, [pc, #728]	@ 8008f84 <USBD_Device_Framework_Builder.constprop.0.isra.0+0x350>
 8008cac:	6877      	ldr	r7, [r6, #4]
 8008cae:	2f02      	cmp	r7, #2
 8008cb0:	d812      	bhi.n	8008cd8 <USBD_Device_Framework_Builder.constprop.0.isra.0+0xa4>
 8008cb2:	68b3      	ldr	r3, [r6, #8]
 8008cb4:	2b02      	cmp	r3, #2
 8008cb6:	9301      	str	r3, [sp, #4]
 8008cb8:	d80e      	bhi.n	8008cd8 <USBD_Device_Framework_Builder.constprop.0.isra.0+0xa4>
 8008cba:	f89a 2000 	ldrb.w	r2, [sl]
 8008cbe:	b15a      	cbz	r2, 8008cd8 <USBD_Device_Framework_Builder.constprop.0.isra.0+0xa4>
 8008cc0:	235c      	movs	r3, #92	@ 0x5c
 8008cc2:	fb03 6307 	mla	r3, r3, r7, r6
 8008cc6:	6999      	ldr	r1, [r3, #24]
 8008cc8:	f8d6 0120 	ldr.w	r0, [r6, #288]	@ 0x120
 8008ccc:	b1b1      	cbz	r1, 8008cfc <USBD_Device_Framework_Builder.constprop.0.isra.0+0xc8>
 8008cce:	9b01      	ldr	r3, [sp, #4]
 8008cd0:	3701      	adds	r7, #1
 8008cd2:	3301      	adds	r3, #1
 8008cd4:	6077      	str	r7, [r6, #4]
 8008cd6:	60b3      	str	r3, [r6, #8]
 8008cd8:	4ba9      	ldr	r3, [pc, #676]	@ (8008f80 <USBD_Device_Framework_Builder.constprop.0.isra.0+0x34c>)
 8008cda:	f10a 0a01 	add.w	sl, sl, #1
 8008cde:	459a      	cmp	sl, r3
 8008ce0:	d1e4      	bne.n	8008cac <USBD_Device_Framework_Builder.constprop.0.isra.0+0x78>
 8008ce2:	68b3      	ldr	r3, [r6, #8]
 8008ce4:	2b01      	cmp	r3, #1
 8008ce6:	f240 8141 	bls.w	8008f6c <USBD_Device_Framework_Builder.constprop.0.isra.0+0x338>
 8008cea:	23ef      	movs	r3, #239	@ 0xef
 8008cec:	7123      	strb	r3, [r4, #4]
 8008cee:	2302      	movs	r3, #2
 8008cf0:	7163      	strb	r3, [r4, #5]
 8008cf2:	2301      	movs	r3, #1
 8008cf4:	71a3      	strb	r3, [r4, #6]
 8008cf6:	b005      	add	sp, #20
 8008cf8:	e8bd 8ff0 	ldmia.w	sp!, {r4, r5, r6, r7, r8, r9, sl, fp, pc}
 8008cfc:	2101      	movs	r1, #1
 8008cfe:	611f      	str	r7, [r3, #16]
 8008d00:	6199      	str	r1, [r3, #24]
 8008d02:	731a      	strb	r2, [r3, #12]
 8008d04:	9b02      	ldr	r3, [sp, #8]
 8008d06:	1825      	adds	r5, r4, r0
 8008d08:	7033      	strb	r3, [r6, #0]
 8008d0a:	b98f      	cbnz	r7, 8008d30 <USBD_Device_Framework_Builder.constprop.0.isra.0+0xfc>
 8008d0c:	2309      	movs	r3, #9
 8008d0e:	5423      	strb	r3, [r4, r0]
 8008d10:	2302      	movs	r3, #2
 8008d12:	706b      	strb	r3, [r5, #1]
 8008d14:	23c0      	movs	r3, #192	@ 0xc0
 8008d16:	71eb      	strb	r3, [r5, #7]
 8008d18:	2319      	movs	r3, #25
 8008d1a:	712f      	strb	r7, [r5, #4]
 8008d1c:	7169      	strb	r1, [r5, #5]
 8008d1e:	71af      	strb	r7, [r5, #6]
 8008d20:	722b      	strb	r3, [r5, #8]
 8008d22:	f8d6 3124 	ldr.w	r3, [r6, #292]	@ 0x124
 8008d26:	70af      	strb	r7, [r5, #2]
 8008d28:	3309      	adds	r3, #9
 8008d2a:	70ef      	strb	r7, [r5, #3]
 8008d2c:	f8c6 3124 	str.w	r3, [r6, #292]	@ 0x124
 8008d30:	2a02      	cmp	r2, #2
 8008d32:	d1cc      	bne.n	8008cce <USBD_Device_Framework_Builder.constprop.0.isra.0+0x9a>
 8008d34:	9b01      	ldr	r3, [sp, #4]
 8008d36:	2b00      	cmp	r3, #0
 8008d38:	f000 810f 	beq.w	8008f5a <USBD_Device_Framework_Builder.constprop.0.isra.0+0x326>
 8008d3c:	9a01      	ldr	r2, [sp, #4]
 8008d3e:	6a33      	ldr	r3, [r6, #32]
 8008d40:	2a02      	cmp	r2, #2
 8008d42:	d101      	bne.n	8008d48 <USBD_Device_Framework_Builder.constprop.0.isra.0+0x114>
 8008d44:	6ff2      	ldr	r2, [r6, #124]	@ 0x7c
 8008d46:	4413      	add	r3, r2
 8008d48:	215c      	movs	r1, #92	@ 0x5c
 8008d4a:	2202      	movs	r2, #2
 8008d4c:	f04f 0803 	mov.w	r8, #3
 8008d50:	fb01 6107 	mla	r1, r1, r7, r6
 8008d54:	b2db      	uxtb	r3, r3
 8008d56:	f881 305a 	strb.w	r3, [r1, #90]	@ 0x5a
 8008d5a:	3301      	adds	r3, #1
 8008d5c:	f881 305b 	strb.w	r3, [r1, #91]	@ 0x5b
 8008d60:	9b02      	ldr	r3, [sp, #8]
 8008d62:	620a      	str	r2, [r1, #32]
 8008d64:	2b01      	cmp	r3, #1
 8008d66:	f8c1 801c 	str.w	r8, [r1, #28]
 8008d6a:	f040 80f8 	bne.w	8008f5e <USBD_Device_Framework_Builder.constprop.0.isra.0+0x32a>
 8008d6e:	f44f 7300 	mov.w	r3, #512	@ 0x200
 8008d72:	4611      	mov	r1, r2
 8008d74:	4630      	mov	r0, r6
 8008d76:	f7ff ff2a 	bl	8008bce <USBD_FrameWork_AssignEp>
 8008d7a:	f44f 7300 	mov.w	r3, #512	@ 0x200
 8008d7e:	2182      	movs	r1, #130	@ 0x82
 8008d80:	4630      	mov	r0, r6
 8008d82:	f7ff ff24 	bl	8008bce <USBD_FrameWork_AssignEp>
 8008d86:	4642      	mov	r2, r8
 8008d88:	2308      	movs	r3, #8
 8008d8a:	2183      	movs	r1, #131	@ 0x83
 8008d8c:	4630      	mov	r0, r6
 8008d8e:	f7ff ff1e 	bl	8008bce <USBD_FrameWork_AssignEp>
 8008d92:	2208      	movs	r2, #8
 8008d94:	f8d6 3124 	ldr.w	r3, [r6, #292]	@ 0x124
 8008d98:	215c      	movs	r1, #92	@ 0x5c
 8008d9a:	54ea      	strb	r2, [r5, r3]
 8008d9c:	220b      	movs	r2, #11
 8008d9e:	eb05 0c03 	add.w	ip, r5, r3
 8008da2:	f88c 2001 	strb.w	r2, [ip, #1]
 8008da6:	fb01 6207 	mla	r2, r1, r7, r6
 8008daa:	9200      	str	r2, [sp, #0]
 8008dac:	f892 205a 	ldrb.w	r2, [r2, #90]	@ 0x5a
 8008db0:	2002      	movs	r0, #2
 8008db2:	f88c 2002 	strb.w	r2, [ip, #2]
 8008db6:	f04f 0e01 	mov.w	lr, #1
 8008dba:	9203      	str	r2, [sp, #12]
 8008dbc:	f04f 0109 	mov.w	r1, #9
 8008dc0:	2200      	movs	r2, #0
 8008dc2:	f103 0808 	add.w	r8, r3, #8
 8008dc6:	f88c e006 	strb.w	lr, [ip, #6]
 8008dca:	f88c 2007 	strb.w	r2, [ip, #7]
 8008dce:	f88c 0003 	strb.w	r0, [ip, #3]
 8008dd2:	f88c 0004 	strb.w	r0, [ip, #4]
 8008dd6:	f88c 0005 	strb.w	r0, [ip, #5]
 8008dda:	f805 1008 	strb.w	r1, [r5, r8]
 8008dde:	f04f 0104 	mov.w	r1, #4
 8008de2:	eb08 0c05 	add.w	ip, r8, r5
 8008de6:	f88c 1001 	strb.w	r1, [ip, #1]
 8008dea:	9903      	ldr	r1, [sp, #12]
 8008dec:	f88c 2003 	strb.w	r2, [ip, #3]
 8008df0:	f88c 1002 	strb.w	r1, [ip, #2]
 8008df4:	f88c e004 	strb.w	lr, [ip, #4]
 8008df8:	f88c e007 	strb.w	lr, [ip, #7]
 8008dfc:	f88c 2008 	strb.w	r2, [ip, #8]
 8008e00:	f88c 0005 	strb.w	r0, [ip, #5]
 8008e04:	f88c 0006 	strb.w	r0, [ip, #6]
 8008e08:	f04f 0c05 	mov.w	ip, #5
 8008e0c:	f103 0811 	add.w	r8, r3, #17
 8008e10:	f04f 0b10 	mov.w	fp, #16
 8008e14:	f805 c008 	strb.w	ip, [r5, r8]
 8008e18:	eb08 0905 	add.w	r9, r8, r5
 8008e1c:	f04f 0824 	mov.w	r8, #36	@ 0x24
 8008e20:	f889 b003 	strb.w	fp, [r9, #3]
 8008e24:	f103 0b16 	add.w	fp, r3, #22
 8008e28:	f889 8001 	strb.w	r8, [r9, #1]
 8008e2c:	f889 2002 	strb.w	r2, [r9, #2]
 8008e30:	f889 e004 	strb.w	lr, [r9, #4]
 8008e34:	9900      	ldr	r1, [sp, #0]
 8008e36:	eb0b 0905 	add.w	r9, fp, r5
 8008e3a:	f805 c00b 	strb.w	ip, [r5, fp]
 8008e3e:	f889 8001 	strb.w	r8, [r9, #1]
 8008e42:	f889 e002 	strb.w	lr, [r9, #2]
 8008e46:	f889 2003 	strb.w	r2, [r9, #3]
 8008e4a:	f891 b05b 	ldrb.w	fp, [r1, #91]	@ 0x5b
 8008e4e:	f04f 0104 	mov.w	r1, #4
 8008e52:	f889 b004 	strb.w	fp, [r9, #4]
 8008e56:	f103 091b 	add.w	r9, r3, #27
 8008e5a:	f805 1009 	strb.w	r1, [r5, r9]
 8008e5e:	eb09 0e05 	add.w	lr, r9, r5
 8008e62:	f103 091f 	add.w	r9, r3, #31
 8008e66:	f88e 8001 	strb.w	r8, [lr, #1]
 8008e6a:	f88e 0002 	strb.w	r0, [lr, #2]
 8008e6e:	f88e 0003 	strb.w	r0, [lr, #3]
 8008e72:	eb09 0e05 	add.w	lr, r9, r5
 8008e76:	f805 c009 	strb.w	ip, [r5, r9]
 8008e7a:	f88e 8001 	strb.w	r8, [lr, #1]
 8008e7e:	f04f 0806 	mov.w	r8, #6
 8008e82:	f88e 8002 	strb.w	r8, [lr, #2]
 8008e86:	f04f 0807 	mov.w	r8, #7
 8008e8a:	9903      	ldr	r1, [sp, #12]
 8008e8c:	f103 0924 	add.w	r9, r3, #36	@ 0x24
 8008e90:	f88e 1003 	strb.w	r1, [lr, #3]
 8008e94:	f88e b004 	strb.w	fp, [lr, #4]
 8008e98:	9900      	ldr	r1, [sp, #0]
 8008e9a:	eb09 0e05 	add.w	lr, r9, r5
 8008e9e:	f805 8009 	strb.w	r8, [r5, r9]
 8008ea2:	f88e c001 	strb.w	ip, [lr, #1]
 8008ea6:	f891 9030 	ldrb.w	r9, [r1, #48]	@ 0x30
 8008eaa:	f88e 9002 	strb.w	r9, [lr, #2]
 8008eae:	f04f 0903 	mov.w	r9, #3
 8008eb2:	f88e 9003 	strb.w	r9, [lr, #3]
 8008eb6:	f8b1 9032 	ldrh.w	r9, [r1, #50]	@ 0x32
 8008eba:	f04f 0109 	mov.w	r1, #9
 8008ebe:	f8ae 9004 	strh.w	r9, [lr, #4]
 8008ec2:	f103 092b 	add.w	r9, r3, #43	@ 0x2b
 8008ec6:	f88e c006 	strb.w	ip, [lr, #6]
 8008eca:	f805 1009 	strb.w	r1, [r5, r9]
 8008ece:	eb09 0e05 	add.w	lr, r9, r5
 8008ed2:	f04f 090a 	mov.w	r9, #10
 8008ed6:	f04f 0104 	mov.w	r1, #4
 8008eda:	f88e 9005 	strb.w	r9, [lr, #5]
 8008ede:	f103 0934 	add.w	r9, r3, #52	@ 0x34
 8008ee2:	f88e 1001 	strb.w	r1, [lr, #1]
 8008ee6:	f88e 2003 	strb.w	r2, [lr, #3]
 8008eea:	f88e 2006 	strb.w	r2, [lr, #6]
 8008eee:	f88e 2007 	strb.w	r2, [lr, #7]
 8008ef2:	f88e 2008 	strb.w	r2, [lr, #8]
 8008ef6:	f88e b002 	strb.w	fp, [lr, #2]
 8008efa:	f88e 0004 	strb.w	r0, [lr, #4]
 8008efe:	eb09 0e05 	add.w	lr, r9, r5
 8008f02:	f805 8009 	strb.w	r8, [r5, r9]
 8008f06:	f88e c001 	strb.w	ip, [lr, #1]
 8008f0a:	9900      	ldr	r1, [sp, #0]
 8008f0c:	f891 9024 	ldrb.w	r9, [r1, #36]	@ 0x24
 8008f10:	f88e 0003 	strb.w	r0, [lr, #3]
 8008f14:	f88e 9002 	strb.w	r9, [lr, #2]
 8008f18:	f8b1 9026 	ldrh.w	r9, [r1, #38]	@ 0x26
 8008f1c:	f88e 2006 	strb.w	r2, [lr, #6]
 8008f20:	f8ae 9004 	strh.w	r9, [lr, #4]
 8008f24:	f103 093b 	add.w	r9, r3, #59	@ 0x3b
 8008f28:	eb09 0e05 	add.w	lr, r9, r5
 8008f2c:	f805 8009 	strb.w	r8, [r5, r9]
 8008f30:	f88e c001 	strb.w	ip, [lr, #1]
 8008f34:	f891 c02a 	ldrb.w	ip, [r1, #42]	@ 0x2a
 8008f38:	f88e 0003 	strb.w	r0, [lr, #3]
 8008f3c:	f88e c002 	strb.w	ip, [lr, #2]
 8008f40:	8d89      	ldrh	r1, [r1, #44]	@ 0x2c
 8008f42:	3342      	adds	r3, #66	@ 0x42
 8008f44:	f8ae 1004 	strh.w	r1, [lr, #4]
 8008f48:	f88e 2006 	strb.w	r2, [lr, #6]
 8008f4c:	f8c6 3124 	str.w	r3, [r6, #292]	@ 0x124
 8008f50:	792a      	ldrb	r2, [r5, #4]
 8008f52:	806b      	strh	r3, [r5, #2]
 8008f54:	4402      	add	r2, r0
 8008f56:	712a      	strb	r2, [r5, #4]
 8008f58:	e6b9      	b.n	8008cce <USBD_Device_Framework_Builder.constprop.0.isra.0+0x9a>
 8008f5a:	9b01      	ldr	r3, [sp, #4]
 8008f5c:	e6f4      	b.n	8008d48 <USBD_Device_Framework_Builder.constprop.0.isra.0+0x114>
 8008f5e:	2340      	movs	r3, #64	@ 0x40
 8008f60:	4611      	mov	r1, r2
 8008f62:	4630      	mov	r0, r6
 8008f64:	f7ff fe33 	bl	8008bce <USBD_FrameWork_AssignEp>
 8008f68:	2340      	movs	r3, #64	@ 0x40
 8008f6a:	e708      	b.n	8008d7e <USBD_Device_Framework_Builder.constprop.0.isra.0+0x14a>
 8008f6c:	4b05      	ldr	r3, [pc, #20]	@ (8008f84 <USBD_Device_Framework_Builder.constprop.0.isra.0+0x350>)
 8008f6e:	781b      	ldrb	r3, [r3, #0]
 8008f70:	2b02      	cmp	r3, #2
 8008f72:	f47f aec0 	bne.w	8008cf6 <USBD_Device_Framework_Builder.constprop.0.isra.0+0xc2>
 8008f76:	7123      	strb	r3, [r4, #4]
 8008f78:	7163      	strb	r3, [r4, #5]
 8008f7a:	2300      	movs	r3, #0
 8008f7c:	e6ba      	b.n	8008cf4 <USBD_Device_Framework_Builder.constprop.0.isra.0+0xc0>
 8008f7e:	bf00      	nop
 8008f80:	20000053 	.word	0x20000053
 8008f84:	20000050 	.word	0x20000050

08008f88 <USBD_Get_Device_Framework_Speed>:
 8008f88:	b538      	push	{r3, r4, r5, lr}
 8008f8a:	4602      	mov	r2, r0
 8008f8c:	460c      	mov	r4, r1
 8008f8e:	b950      	cbnz	r0, 8008fa6 <USBD_Get_Device_Framework_Speed+0x1e>
 8008f90:	4d0a      	ldr	r5, [pc, #40]	@ (8008fbc <USBD_Get_Device_Framework_Speed+0x34>)
 8008f92:	490b      	ldr	r1, [pc, #44]	@ (8008fc0 <USBD_Get_Device_Framework_Speed+0x38>)
 8008f94:	4628      	mov	r0, r5
 8008f96:	f7ff fe4d 	bl	8008c34 <USBD_Device_Framework_Builder.constprop.0.isra.0>
 8008f9a:	e9d5 3248 	ldrd	r3, r2, [r5, #288]	@ 0x120
 8008f9e:	4808      	ldr	r0, [pc, #32]	@ (8008fc0 <USBD_Get_Device_Framework_Speed+0x38>)
 8008fa0:	4413      	add	r3, r2
 8008fa2:	6023      	str	r3, [r4, #0]
 8008fa4:	bd38      	pop	{r3, r4, r5, pc}
 8008fa6:	4d07      	ldr	r5, [pc, #28]	@ (8008fc4 <USBD_Get_Device_Framework_Speed+0x3c>)
 8008fa8:	4907      	ldr	r1, [pc, #28]	@ (8008fc8 <USBD_Get_Device_Framework_Speed+0x40>)
 8008faa:	4628      	mov	r0, r5
 8008fac:	f7ff fe42 	bl	8008c34 <USBD_Device_Framework_Builder.constprop.0.isra.0>
 8008fb0:	e9d5 3248 	ldrd	r3, r2, [r5, #288]	@ 0x120
 8008fb4:	4804      	ldr	r0, [pc, #16]	@ (8008fc8 <USBD_Get_Device_Framework_Speed+0x40>)
 8008fb6:	4413      	add	r3, r2
 8008fb8:	e7f3      	b.n	8008fa2 <USBD_Get_Device_Framework_Speed+0x1a>
 8008fba:	bf00      	nop
 8008fbc:	20003f1c 	.word	0x20003f1c
 8008fc0:	20003d2c 	.word	0x20003d2c
 8008fc4:	20003df4 	.word	0x20003df4
 8008fc8:	20003c64 	.word	0x20003c64

08008fcc <USBD_Get_String_Framework>:
 8008fcc:	f240 4309 	movw	r3, #1033	@ 0x409
 8008fd0:	e92d 41f3 	stmdb	sp!, {r0, r1, r4, r5, r6, r7, r8, lr}
 8008fd4:	4c21      	ldr	r4, [pc, #132]	@ (800905c <USBD_Get_String_Framework+0x90>)
 8008fd6:	f04f 0809 	mov.w	r8, #9
 8008fda:	8023      	strh	r3, [r4, #0]
 8008fdc:	2301      	movs	r3, #1
 8008fde:	2704      	movs	r7, #4
 8008fe0:	4606      	mov	r6, r0
 8008fe2:	f10d 0206 	add.w	r2, sp, #6
 8008fe6:	1ce1      	adds	r1, r4, #3
 8008fe8:	481d      	ldr	r0, [pc, #116]	@ (8009060 <USBD_Get_String_Framework+0x94>)
 8008fea:	70a3      	strb	r3, [r4, #2]
 8008fec:	f7ff fe0f 	bl	8008c0e <USBD_Desc_GetString.part.0>
 8008ff0:	f89d 3006 	ldrb.w	r3, [sp, #6]
 8008ff4:	481b      	ldr	r0, [pc, #108]	@ (8009064 <USBD_Get_String_Framework+0x98>)
 8008ff6:	1d1a      	adds	r2, r3, #4
 8008ff8:	b2d2      	uxtb	r2, r2
 8008ffa:	f804 8002 	strb.w	r8, [r4, r2]
 8008ffe:	1d5a      	adds	r2, r3, #5
 8009000:	b2d2      	uxtb	r2, r2
 8009002:	54a7      	strb	r7, [r4, r2]
 8009004:	2202      	movs	r2, #2
 8009006:	1dd9      	adds	r1, r3, #7
 8009008:	3306      	adds	r3, #6
 800900a:	b2db      	uxtb	r3, r3
 800900c:	54e2      	strb	r2, [r4, r3]
 800900e:	b2cd      	uxtb	r5, r1
 8009010:	f10d 0206 	add.w	r2, sp, #6
 8009014:	fa54 f181 	uxtab	r1, r4, r1
 8009018:	f7ff fdf9 	bl	8008c0e <USBD_Desc_GetString.part.0>
 800901c:	2203      	movs	r2, #3
 800901e:	f8bd 3006 	ldrh.w	r3, [sp, #6]
 8009022:	4811      	ldr	r0, [pc, #68]	@ (8009068 <USBD_Get_String_Framework+0x9c>)
 8009024:	18e9      	adds	r1, r5, r3
 8009026:	b2c9      	uxtb	r1, r1
 8009028:	1c4b      	adds	r3, r1, #1
 800902a:	b2db      	uxtb	r3, r3
 800902c:	f804 8003 	strb.w	r8, [r4, r3]
 8009030:	1c8b      	adds	r3, r1, #2
 8009032:	b2db      	uxtb	r3, r3
 8009034:	54e7      	strb	r7, [r4, r3]
 8009036:	1ccb      	adds	r3, r1, #3
 8009038:	b2db      	uxtb	r3, r3
 800903a:	4439      	add	r1, r7
 800903c:	54e2      	strb	r2, [r4, r3]
 800903e:	fa54 f181 	uxtab	r1, r4, r1
 8009042:	f10d 0206 	add.w	r2, sp, #6
 8009046:	f7ff fde2 	bl	8008c0e <USBD_Desc_GetString.part.0>
 800904a:	4620      	mov	r0, r4
 800904c:	f7f7 fa32 	bl	80004b4 <strlen>
 8009050:	6030      	str	r0, [r6, #0]
 8009052:	4620      	mov	r0, r4
 8009054:	b002      	add	sp, #8
 8009056:	e8bd 81f0 	ldmia.w	sp!, {r4, r5, r6, r7, r8, pc}
 800905a:	bf00      	nop
 800905c:	20003b64 	.word	0x20003b64
 8009060:	080091f9 	.word	0x080091f9
 8009064:	0800920c 	.word	0x0800920c
 8009068:	0800921d 	.word	0x0800921d

0800906c <USBD_Get_Language_Id_Framework>:
 800906c:	b538      	push	{r3, r4, r5, lr}
 800906e:	f240 4309 	movw	r3, #1033	@ 0x409
 8009072:	4c04      	ldr	r4, [pc, #16]	@ (8009084 <USBD_Get_Language_Id_Framework+0x18>)
 8009074:	4605      	mov	r5, r0
 8009076:	4620      	mov	r0, r4
 8009078:	8023      	strh	r3, [r4, #0]
 800907a:	f7f7 fa1b 	bl	80004b4 <strlen>
 800907e:	6028      	str	r0, [r5, #0]
 8009080:	4620      	mov	r0, r4
 8009082:	bd38      	pop	{r3, r4, r5, pc}
 8009084:	20003b60 	.word	0x20003b60

08009088 <USBD_Get_Interface_Number>:
 8009088:	2200      	movs	r2, #0
 800908a:	b530      	push	{r4, r5, lr}
 800908c:	4604      	mov	r4, r0
 800908e:	4610      	mov	r0, r2
 8009090:	4b07      	ldr	r3, [pc, #28]	@ (80090b0 <USBD_Get_Interface_Number+0x28>)
 8009092:	7b1d      	ldrb	r5, [r3, #12]
 8009094:	42a5      	cmp	r5, r4
 8009096:	d104      	bne.n	80090a2 <USBD_Get_Interface_Number+0x1a>
 8009098:	7d1d      	ldrb	r5, [r3, #20]
 800909a:	428d      	cmp	r5, r1
 800909c:	bf08      	it	eq
 800909e:	f893 005a 	ldrbeq.w	r0, [r3, #90]	@ 0x5a
 80090a2:	3201      	adds	r2, #1
 80090a4:	2a03      	cmp	r2, #3
 80090a6:	f103 035c 	add.w	r3, r3, #92	@ 0x5c
 80090aa:	d1f2      	bne.n	8009092 <USBD_Get_Interface_Number+0xa>
 80090ac:	bd30      	pop	{r4, r5, pc}
 80090ae:	bf00      	nop
 80090b0:	20003f1c 	.word	0x20003f1c

080090b4 <USBD_Get_Configuration_Number>:
 80090b4:	2001      	movs	r0, #1
 80090b6:	4770      	bx	lr

080090b8 <memset>:
 80090b8:	4402      	add	r2, r0
 80090ba:	4603      	mov	r3, r0
 80090bc:	4293      	cmp	r3, r2
 80090be:	d100      	bne.n	80090c2 <memset+0xa>
 80090c0:	4770      	bx	lr
 80090c2:	f803 1b01 	strb.w	r1, [r3], #1
 80090c6:	e7f9      	b.n	80090bc <memset+0x4>

080090c8 <__libc_init_array>:
 80090c8:	b570      	push	{r4, r5, r6, lr}
 80090ca:	4d0d      	ldr	r5, [pc, #52]	@ (8009100 <__libc_init_array+0x38>)
 80090cc:	2600      	movs	r6, #0
 80090ce:	4c0d      	ldr	r4, [pc, #52]	@ (8009104 <__libc_init_array+0x3c>)
 80090d0:	1b64      	subs	r4, r4, r5
 80090d2:	10a4      	asrs	r4, r4, #2
 80090d4:	42a6      	cmp	r6, r4
 80090d6:	d109      	bne.n	80090ec <__libc_init_array+0x24>
 80090d8:	4d0b      	ldr	r5, [pc, #44]	@ (8009108 <__libc_init_array+0x40>)
 80090da:	2600      	movs	r6, #0
 80090dc:	4c0b      	ldr	r4, [pc, #44]	@ (800910c <__libc_init_array+0x44>)
 80090de:	f000 f817 	bl	8009110 <_init>
 80090e2:	1b64      	subs	r4, r4, r5
 80090e4:	10a4      	asrs	r4, r4, #2
 80090e6:	42a6      	cmp	r6, r4
 80090e8:	d105      	bne.n	80090f6 <__libc_init_array+0x2e>
 80090ea:	bd70      	pop	{r4, r5, r6, pc}
 80090ec:	f855 3b04 	ldr.w	r3, [r5], #4
 80090f0:	3601      	adds	r6, #1
 80090f2:	4798      	blx	r3
 80090f4:	e7ee      	b.n	80090d4 <__libc_init_array+0xc>
 80090f6:	f855 3b04 	ldr.w	r3, [r5], #4
 80090fa:	3601      	adds	r6, #1
 80090fc:	4798      	blx	r3
 80090fe:	e7f2      	b.n	80090e6 <__libc_init_array+0x1e>
 8009100:	0800930c 	.word	0x0800930c
 8009104:	0800930c 	.word	0x0800930c
 8009108:	0800930c 	.word	0x0800930c
 800910c:	08009310 	.word	0x08009310

08009110 <_init>:
 8009110:	b5f8      	push	{r3, r4, r5, r6, r7, lr}
 8009112:	bf00      	nop
 8009114:	bcf8      	pop	{r3, r4, r5, r6, r7}
 8009116:	bc08      	pop	{r3}
 8009118:	469e      	mov	lr, r3
 800911a:	4770      	bx	lr

0800911c <_fini>:
 800911c:	b5f8      	push	{r3, r4, r5, r6, r7, lr}
 800911e:	bf00      	nop
 8009120:	bcf8      	pop	{r3, r4, r5, r6, r7}
 8009122:	bc08      	pop	{r3}
 8009124:	469e      	mov	lr, r3
 8009126:	4770      	bx	lr
